ccopy_reg
_reconstructor
p0
(c__main__
AuthorNetwork
p1
c__builtin__
object
p2
Ntp3
Rp4
(dp5
S'network_dict'
p6
(dp7
L1L
c__builtin__
set
p8
((lp9
tp10
Rp11
sL2L
g8
((lp12
tp13
Rp14
sL3L
g8
((lp15
tp16
Rp17
sL4L
g8
((lp18
tp19
Rp20
sL5L
g8
((lp21
L2010L
aL1717L
atp22
Rp23
sL6L
g8
((lp24
tp25
Rp26
sL7L
g8
((lp27
tp28
Rp29
sL8L
g8
((lp30
L970L
aL61L
atp31
Rp32
sL9L
g8
((lp33
tp34
Rp35
sL10L
g8
((lp36
tp37
Rp38
sL11L
g8
((lp39
tp40
Rp41
sL12L
g8
((lp42
L2081L
aL456L
aL60L
aL2013L
aL2014L
atp43
Rp44
sL13L
g8
((lp45
tp46
Rp47
sL14L
g8
((lp48
tp49
Rp50
sL15L
g8
((lp51
tp52
Rp53
sL16L
g8
((lp54
tp55
Rp56
sL17L
g8
((lp57
tp58
Rp59
sL18L
g8
((lp60
tp61
Rp62
sL19L
g8
((lp63
tp64
Rp65
sL20L
g8
((lp66
tp67
Rp68
sL21L
g8
((lp69
tp70
Rp71
sL22L
g8
((lp72
tp73
Rp74
sL23L
g8
((lp75
L1483L
atp76
Rp77
sL24L
g8
((lp78
tp79
Rp80
sL25L
g8
((lp81
tp82
Rp83
sL26L
g8
((lp84
tp85
Rp86
sL27L
g8
((lp87
tp88
Rp89
sL28L
g8
((lp90
tp91
Rp92
sL29L
g8
((lp93
tp94
Rp95
sL30L
g8
((lp96
tp97
Rp98
sL31L
g8
((lp99
tp100
Rp101
sL32L
g8
((lp102
tp103
Rp104
sL33L
g8
((lp105
tp106
Rp107
sL34L
g8
((lp108
tp109
Rp110
sL35L
g8
((lp111
tp112
Rp113
sL36L
g8
((lp114
tp115
Rp116
sL37L
g8
((lp117
tp118
Rp119
sL38L
g8
((lp120
tp121
Rp122
sL39L
g8
((lp123
tp124
Rp125
sL40L
g8
((lp126
tp127
Rp128
sL41L
g8
((lp129
tp130
Rp131
sL42L
g8
((lp132
tp133
Rp134
sL43L
g8
((lp135
L298L
aL2029L
aL2030L
aL2031L
aL2291L
aL2300L
aL2301L
aL1662L
aL223L
atp136
Rp137
sL44L
g8
((lp138
tp139
Rp140
sL45L
g8
((lp141
tp142
Rp143
sL46L
g8
((lp144
tp145
Rp146
sL47L
g8
((lp147
tp148
Rp149
sL48L
g8
((lp150
L136L
aL1957L
atp151
Rp152
sL49L
g8
((lp153
L2024L
aL1206L
atp154
Rp155
sL50L
g8
((lp156
tp157
Rp158
sL51L
g8
((lp159
tp160
Rp161
sL52L
g8
((lp162
tp163
Rp164
sL53L
g8
((lp165
tp166
Rp167
sL54L
g8
((lp168
L131L
atp169
Rp170
sL55L
g8
((lp171
tp172
Rp173
sL56L
g8
((lp174
tp175
Rp176
sL57L
g8
((lp177
tp178
Rp179
sL58L
g8
((lp180
tp181
Rp182
sL59L
g8
((lp183
tp184
Rp185
sL60L
g8
((lp186
L456L
aL2081L
aL12L
atp187
Rp188
sL61L
g8
((lp189
L1542L
aL8L
aL2025L
aL970L
aL1559L
aL2004L
aL2005L
aL2006L
aL2007L
aL2008L
aL2009L
atp190
Rp191
sL62L
g8
((lp192
tp193
Rp194
sL63L
g8
((lp195
tp196
Rp197
sL64L
g8
((lp198
tp199
Rp200
sL65L
g8
((lp201
tp202
Rp203
sL66L
g8
((lp204
tp205
Rp206
sL67L
g8
((lp207
tp208
Rp209
sL68L
g8
((lp210
tp211
Rp212
sL69L
g8
((lp213
tp214
Rp215
sL70L
g8
((lp216
L1377L
aL2315L
aL1685L
aL1697L
atp217
Rp218
sL71L
g8
((lp219
tp220
Rp221
sL72L
g8
((lp222
tp223
Rp224
sL73L
g8
((lp225
tp226
Rp227
sL74L
g8
((lp228
tp229
Rp230
sL75L
g8
((lp231
tp232
Rp233
sL76L
g8
((lp234
tp235
Rp236
sL77L
g8
((lp237
tp238
Rp239
sL78L
g8
((lp240
tp241
Rp242
sL79L
g8
((lp243
tp244
Rp245
sL80L
g8
((lp246
tp247
Rp248
sL81L
g8
((lp249
tp250
Rp251
sL82L
g8
((lp252
tp253
Rp254
sL83L
g8
((lp255
tp256
Rp257
sL84L
g8
((lp258
tp259
Rp260
sL85L
g8
((lp261
L2201L
aL1542L
atp262
Rp263
sL86L
g8
((lp264
tp265
Rp266
sL87L
g8
((lp267
tp268
Rp269
sL88L
g8
((lp270
tp271
Rp272
sL89L
g8
((lp273
tp274
Rp275
sL90L
g8
((lp276
tp277
Rp278
sL91L
g8
((lp279
tp280
Rp281
sL92L
g8
((lp282
L2341L
atp283
Rp284
sL93L
g8
((lp285
tp286
Rp287
sL94L
g8
((lp288
tp289
Rp290
sL95L
g8
((lp291
tp292
Rp293
sL96L
g8
((lp294
tp295
Rp296
sL97L
g8
((lp297
tp298
Rp299
sL98L
g8
((lp300
tp301
Rp302
sL99L
g8
((lp303
tp304
Rp305
sL100L
g8
((lp306
tp307
Rp308
sL101L
g8
((lp309
tp310
Rp311
sL102L
g8
((lp312
tp313
Rp314
sL103L
g8
((lp315
tp316
Rp317
sL104L
g8
((lp318
tp319
Rp320
sL105L
g8
((lp321
tp322
Rp323
sL106L
g8
((lp324
tp325
Rp326
sL107L
g8
((lp327
L1900L
aL1967L
aL1973L
aL955L
aL319L
atp328
Rp329
sL108L
g8
((lp330
tp331
Rp332
sL109L
g8
((lp333
tp334
Rp335
sL110L
g8
((lp336
tp337
Rp338
sL111L
g8
((lp339
L2003L
aL822L
atp340
Rp341
sL112L
g8
((lp342
tp343
Rp344
sL113L
g8
((lp345
tp346
Rp347
sL114L
g8
((lp348
tp349
Rp350
sL115L
g8
((lp351
tp352
Rp353
sL116L
g8
((lp354
tp355
Rp356
sL117L
g8
((lp357
tp358
Rp359
sL118L
g8
((lp360
tp361
Rp362
sL119L
g8
((lp363
tp364
Rp365
sL120L
g8
((lp366
tp367
Rp368
sL121L
g8
((lp369
tp370
Rp371
sL122L
g8
((lp372
tp373
Rp374
sL123L
g8
((lp375
tp376
Rp377
sL124L
g8
((lp378
tp379
Rp380
sL125L
g8
((lp381
tp382
Rp383
sL126L
g8
((lp384
tp385
Rp386
sL127L
g8
((lp387
tp388
Rp389
sL128L
g8
((lp390
tp391
Rp392
sL129L
g8
((lp393
tp394
Rp395
sL130L
g8
((lp396
tp397
Rp398
sL131L
g8
((lp399
L54L
atp400
Rp401
sL132L
g8
((lp402
tp403
Rp404
sL133L
g8
((lp405
tp406
Rp407
sL134L
g8
((lp408
tp409
Rp410
sL135L
g8
((lp411
tp412
Rp413
sL136L
g8
((lp414
L2331L
aL1957L
aL2091L
aL48L
aL1979L
atp415
Rp416
sL137L
g8
((lp417
tp418
Rp419
sL138L
g8
((lp420
tp421
Rp422
sL139L
g8
((lp423
tp424
Rp425
sL140L
g8
((lp426
tp427
Rp428
sL141L
g8
((lp429
tp430
Rp431
sL142L
g8
((lp432
tp433
Rp434
sL143L
g8
((lp435
tp436
Rp437
sL144L
g8
((lp438
tp439
Rp440
sL145L
g8
((lp441
L769L
aL1511L
aL2314L
aL300L
aL2094L
aL304L
aL2071L
aL2072L
aL1470L
aL2079L
atp442
Rp443
sL146L
g8
((lp444
tp445
Rp446
sL147L
g8
((lp447
tp448
Rp449
sL148L
g8
((lp450
tp451
Rp452
sL149L
g8
((lp453
tp454
Rp455
sL150L
g8
((lp456
tp457
Rp458
sL151L
g8
((lp459
tp460
Rp461
sL152L
g8
((lp462
tp463
Rp464
sL153L
g8
((lp465
tp466
Rp467
sL154L
g8
((lp468
tp469
Rp470
sL155L
g8
((lp471
tp472
Rp473
sL156L
g8
((lp474
tp475
Rp476
sL157L
g8
((lp477
tp478
Rp479
sL158L
g8
((lp480
tp481
Rp482
sL159L
g8
((lp483
L160L
aL353L
aL176L
aL1589L
aL1049L
aL2299L
aL2268L
atp484
Rp485
sL160L
g8
((lp486
L353L
aL176L
aL1589L
aL1049L
aL2299L
aL2268L
aL159L
atp487
Rp488
sL161L
g8
((lp489
tp490
Rp491
sL162L
g8
((lp492
L1988L
aL1847L
atp493
Rp494
sL163L
g8
((lp495
tp496
Rp497
sL164L
g8
((lp498
tp499
Rp500
sL165L
g8
((lp501
tp502
Rp503
sL166L
g8
((lp504
tp505
Rp506
sL167L
g8
((lp507
tp508
Rp509
sL168L
g8
((lp510
tp511
Rp512
sL169L
g8
((lp513
tp514
Rp515
sL170L
g8
((lp516
tp517
Rp518
sL171L
g8
((lp519
tp520
Rp521
sL172L
g8
((lp522
tp523
Rp524
sL173L
g8
((lp525
tp526
Rp527
sL174L
g8
((lp528
tp529
Rp530
sL175L
g8
((lp531
tp532
Rp533
sL176L
g8
((lp534
L353L
aL160L
aL2268L
aL159L
atp535
Rp536
sL177L
g8
((lp537
tp538
Rp539
sL178L
g8
((lp540
tp541
Rp542
sL179L
g8
((lp543
tp544
Rp545
sL180L
g8
((lp546
tp547
Rp548
sL181L
g8
((lp549
tp550
Rp551
sL182L
g8
((lp552
tp553
Rp554
sL183L
g8
((lp555
tp556
Rp557
sL184L
g8
((lp558
tp559
Rp560
sL185L
g8
((lp561
L193L
aL1926L
aL1927L
aL2354L
aL1778L
aL1904L
aL2002L
aL1818L
aL254L
atp562
Rp563
sL186L
g8
((lp564
tp565
Rp566
sL187L
g8
((lp567
tp568
Rp569
sL188L
g8
((lp570
tp571
Rp572
sL189L
g8
((lp573
tp574
Rp575
sL190L
g8
((lp576
tp577
Rp578
sL191L
g8
((lp579
L2092L
atp580
Rp581
sL192L
g8
((lp582
tp583
Rp584
sL193L
g8
((lp585
L185L
aL1818L
aL2083L
aL2002L
atp586
Rp587
sL194L
g8
((lp588
tp589
Rp590
sL195L
g8
((lp591
tp592
Rp593
sL196L
g8
((lp594
tp595
Rp596
sL197L
g8
((lp597
tp598
Rp599
sL198L
g8
((lp600
tp601
Rp602
sL199L
g8
((lp603
tp604
Rp605
sL200L
g8
((lp606
tp607
Rp608
sL201L
g8
((lp609
tp610
Rp611
sL202L
g8
((lp612
tp613
Rp614
sL203L
g8
((lp615
tp616
Rp617
sL204L
g8
((lp618
L2189L
aL2127L
atp619
Rp620
sL205L
g8
((lp621
tp622
Rp623
sL206L
g8
((lp624
tp625
Rp626
sL207L
g8
((lp627
tp628
Rp629
sL208L
g8
((lp630
L2263L
atp631
Rp632
sL209L
g8
((lp633
tp634
Rp635
sL210L
g8
((lp636
tp637
Rp638
sL211L
g8
((lp639
tp640
Rp641
sL212L
g8
((lp642
tp643
Rp644
sL213L
g8
((lp645
tp646
Rp647
sL214L
g8
((lp648
tp649
Rp650
sL215L
g8
((lp651
tp652
Rp653
sL216L
g8
((lp654
tp655
Rp656
sL217L
g8
((lp657
tp658
Rp659
sL218L
g8
((lp660
tp661
Rp662
sL219L
g8
((lp663
tp664
Rp665
sL220L
g8
((lp666
tp667
Rp668
sL221L
g8
((lp669
tp670
Rp671
sL222L
g8
((lp672
tp673
Rp674
sL223L
g8
((lp675
L43L
aL2300L
aL2301L
atp676
Rp677
sL224L
g8
((lp678
tp679
Rp680
sL225L
g8
((lp681
tp682
Rp683
sL226L
g8
((lp684
tp685
Rp686
sL227L
g8
((lp687
L2116L
aL2117L
aL914L
aL2073L
aL2332L
aL2333L
aL2334L
aL2335L
atp688
Rp689
sL228L
g8
((lp690
tp691
Rp692
sL229L
g8
((lp693
tp694
Rp695
sL230L
g8
((lp696
tp697
Rp698
sL231L
g8
((lp699
tp700
Rp701
sL232L
g8
((lp702
tp703
Rp704
sL233L
g8
((lp705
tp706
Rp707
sL234L
g8
((lp708
tp709
Rp710
sL235L
g8
((lp711
tp712
Rp713
sL236L
g8
((lp714
tp715
Rp716
sL237L
g8
((lp717
tp718
Rp719
sL238L
g8
((lp720
tp721
Rp722
sL239L
g8
((lp723
tp724
Rp725
sL240L
g8
((lp726
tp727
Rp728
sL241L
g8
((lp729
tp730
Rp731
sL242L
g8
((lp732
tp733
Rp734
sL243L
g8
((lp735
tp736
Rp737
sL244L
g8
((lp738
tp739
Rp740
sL245L
g8
((lp741
tp742
Rp743
sL246L
g8
((lp744
tp745
Rp746
sL247L
g8
((lp747
tp748
Rp749
sL248L
g8
((lp750
tp751
Rp752
sL249L
g8
((lp753
tp754
Rp755
sL250L
g8
((lp756
tp757
Rp758
sL251L
g8
((lp759
tp760
Rp761
sL252L
g8
((lp762
tp763
Rp764
sL253L
g8
((lp765
tp766
Rp767
sL254L
g8
((lp768
L1904L
aL185L
atp769
Rp770
sL255L
g8
((lp771
tp772
Rp773
sL256L
g8
((lp774
tp775
Rp776
sL257L
g8
((lp777
tp778
Rp779
sL258L
g8
((lp780
tp781
Rp782
sL259L
g8
((lp783
tp784
Rp785
sL260L
g8
((lp786
tp787
Rp788
sL261L
g8
((lp789
tp790
Rp791
sL262L
g8
((lp792
tp793
Rp794
sL263L
g8
((lp795
tp796
Rp797
sL264L
g8
((lp798
tp799
Rp800
sL265L
g8
((lp801
tp802
Rp803
sL266L
g8
((lp804
tp805
Rp806
sL267L
g8
((lp807
tp808
Rp809
sL268L
g8
((lp810
tp811
Rp812
sL269L
g8
((lp813
tp814
Rp815
sL270L
g8
((lp816
tp817
Rp818
sL271L
g8
((lp819
tp820
Rp821
sL272L
g8
((lp822
tp823
Rp824
sL273L
g8
((lp825
tp826
Rp827
sL274L
g8
((lp828
tp829
Rp830
sL275L
g8
((lp831
tp832
Rp833
sL276L
g8
((lp834
tp835
Rp836
sL277L
g8
((lp837
tp838
Rp839
sL278L
g8
((lp840
tp841
Rp842
sL279L
g8
((lp843
tp844
Rp845
sL280L
g8
((lp846
tp847
Rp848
sL281L
g8
((lp849
tp850
Rp851
sL282L
g8
((lp852
tp853
Rp854
sL283L
g8
((lp855
tp856
Rp857
sL284L
g8
((lp858
tp859
Rp860
sL285L
g8
((lp861
tp862
Rp863
sL286L
g8
((lp864
tp865
Rp866
sL287L
g8
((lp867
tp868
Rp869
sL288L
g8
((lp870
tp871
Rp872
sL289L
g8
((lp873
tp874
Rp875
sL290L
g8
((lp876
tp877
Rp878
sL291L
g8
((lp879
tp880
Rp881
sL292L
g8
((lp882
L2344L
aL2205L
aL2206L
atp883
Rp884
sL293L
g8
((lp885
tp886
Rp887
sL294L
g8
((lp888
tp889
Rp890
sL295L
g8
((lp891
L2185L
aL1854L
atp892
Rp893
sL296L
g8
((lp894
tp895
Rp896
sL297L
g8
((lp897
tp898
Rp899
sL298L
g8
((lp900
L43L
aL1662L
atp901
Rp902
sL299L
g8
((lp903
tp904
Rp905
sL300L
g8
((lp906
L145L
aL2079L
atp907
Rp908
sL301L
g8
((lp909
tp910
Rp911
sL302L
g8
((lp912
tp913
Rp914
sL303L
g8
((lp915
tp916
Rp917
sL304L
g8
((lp918
L145L
aL2094L
aL1511L
atp919
Rp920
sL305L
g8
((lp921
tp922
Rp923
sL306L
g8
((lp924
tp925
Rp926
sL307L
g8
((lp927
tp928
Rp929
sL308L
g8
((lp930
tp931
Rp932
sL309L
g8
((lp933
L1014L
aL310L
atp934
Rp935
sL310L
g8
((lp936
L1014L
aL2028L
aL1013L
aL309L
atp937
Rp938
sL311L
g8
((lp939
tp940
Rp941
sL312L
g8
((lp942
tp943
Rp944
sL313L
g8
((lp945
tp946
Rp947
sL314L
g8
((lp948
tp949
Rp950
sL315L
g8
((lp951
tp952
Rp953
sL316L
g8
((lp954
tp955
Rp956
sL317L
g8
((lp957
tp958
Rp959
sL318L
g8
((lp960
tp961
Rp962
sL319L
g8
((lp963
L107L
aL1973L
atp964
Rp965
sL320L
g8
((lp966
tp967
Rp968
sL321L
g8
((lp969
tp970
Rp971
sL322L
g8
((lp972
tp973
Rp974
sL323L
g8
((lp975
tp976
Rp977
sL324L
g8
((lp978
tp979
Rp980
sL325L
g8
((lp981
tp982
Rp983
sL326L
g8
((lp984
tp985
Rp986
sL327L
g8
((lp987
tp988
Rp989
sL328L
g8
((lp990
tp991
Rp992
sL329L
g8
((lp993
tp994
Rp995
sL330L
g8
((lp996
tp997
Rp998
sL331L
g8
((lp999
tp1000
Rp1001
sL332L
g8
((lp1002
tp1003
Rp1004
sL333L
g8
((lp1005
tp1006
Rp1007
sL334L
g8
((lp1008
tp1009
Rp1010
sL335L
g8
((lp1011
tp1012
Rp1013
sL336L
g8
((lp1014
tp1015
Rp1016
sL337L
g8
((lp1017
tp1018
Rp1019
sL338L
g8
((lp1020
tp1021
Rp1022
sL339L
g8
((lp1023
tp1024
Rp1025
sL340L
g8
((lp1026
L1625L
aL2012L
atp1027
Rp1028
sL341L
g8
((lp1029
tp1030
Rp1031
sL342L
g8
((lp1032
tp1033
Rp1034
sL343L
g8
((lp1035
tp1036
Rp1037
sL344L
g8
((lp1038
tp1039
Rp1040
sL345L
g8
((lp1041
L2281L
atp1042
Rp1043
sL346L
g8
((lp1044
tp1045
Rp1046
sL347L
g8
((lp1047
tp1048
Rp1049
sL348L
g8
((lp1050
tp1051
Rp1052
sL349L
g8
((lp1053
tp1054
Rp1055
sL350L
g8
((lp1056
tp1057
Rp1058
sL351L
g8
((lp1059
tp1060
Rp1061
sL352L
g8
((lp1062
tp1063
Rp1064
sL353L
g8
((lp1065
L176L
aL160L
aL2268L
aL159L
atp1066
Rp1067
sL354L
g8
((lp1068
tp1069
Rp1070
sL355L
g8
((lp1071
tp1072
Rp1073
sL356L
g8
((lp1074
tp1075
Rp1076
sL357L
g8
((lp1077
tp1078
Rp1079
sL358L
g8
((lp1080
L2194L
aL2107L
aL967L
atp1081
Rp1082
sL359L
g8
((lp1083
tp1084
Rp1085
sL360L
g8
((lp1086
tp1087
Rp1088
sL361L
g8
((lp1089
tp1090
Rp1091
sL362L
g8
((lp1092
tp1093
Rp1094
sL363L
g8
((lp1095
tp1096
Rp1097
sL364L
g8
((lp1098
tp1099
Rp1100
sL365L
g8
((lp1101
tp1102
Rp1103
sL366L
g8
((lp1104
tp1105
Rp1106
sL367L
g8
((lp1107
tp1108
Rp1109
sL368L
g8
((lp1110
tp1111
Rp1112
sL369L
g8
((lp1113
tp1114
Rp1115
sL370L
g8
((lp1116
tp1117
Rp1118
sL371L
g8
((lp1119
tp1120
Rp1121
sL372L
g8
((lp1122
tp1123
Rp1124
sL373L
g8
((lp1125
tp1126
Rp1127
sL374L
g8
((lp1128
tp1129
Rp1130
sL375L
g8
((lp1131
tp1132
Rp1133
sL376L
g8
((lp1134
tp1135
Rp1136
sL377L
g8
((lp1137
tp1138
Rp1139
sL378L
g8
((lp1140
tp1141
Rp1142
sL379L
g8
((lp1143
tp1144
Rp1145
sL380L
g8
((lp1146
tp1147
Rp1148
sL381L
g8
((lp1149
tp1150
Rp1151
sL382L
g8
((lp1152
tp1153
Rp1154
sL383L
g8
((lp1155
tp1156
Rp1157
sL384L
g8
((lp1158
tp1159
Rp1160
sL385L
g8
((lp1161
tp1162
Rp1163
sL386L
g8
((lp1164
tp1165
Rp1166
sL387L
g8
((lp1167
tp1168
Rp1169
sL388L
g8
((lp1170
tp1171
Rp1172
sL389L
g8
((lp1173
tp1174
Rp1175
sL390L
g8
((lp1176
tp1177
Rp1178
sL391L
g8
((lp1179
tp1180
Rp1181
sL392L
g8
((lp1182
tp1183
Rp1184
sL393L
g8
((lp1185
tp1186
Rp1187
sL394L
g8
((lp1188
tp1189
Rp1190
sL395L
g8
((lp1191
tp1192
Rp1193
sL396L
g8
((lp1194
tp1195
Rp1196
sL397L
g8
((lp1197
tp1198
Rp1199
sL398L
g8
((lp1200
tp1201
Rp1202
sL399L
g8
((lp1203
tp1204
Rp1205
sL400L
g8
((lp1206
tp1207
Rp1208
sL401L
g8
((lp1209
tp1210
Rp1211
sL402L
g8
((lp1212
tp1213
Rp1214
sL403L
g8
((lp1215
tp1216
Rp1217
sL404L
g8
((lp1218
tp1219
Rp1220
sL405L
g8
((lp1221
tp1222
Rp1223
sL406L
g8
((lp1224
tp1225
Rp1226
sL407L
g8
((lp1227
tp1228
Rp1229
sL408L
g8
((lp1230
tp1231
Rp1232
sL409L
g8
((lp1233
tp1234
Rp1235
sL410L
g8
((lp1236
tp1237
Rp1238
sL411L
g8
((lp1239
tp1240
Rp1241
sL412L
g8
((lp1242
tp1243
Rp1244
sL413L
g8
((lp1245
tp1246
Rp1247
sL414L
g8
((lp1248
tp1249
Rp1250
sL415L
g8
((lp1251
tp1252
Rp1253
sL416L
g8
((lp1254
tp1255
Rp1256
sL417L
g8
((lp1257
tp1258
Rp1259
sL418L
g8
((lp1260
tp1261
Rp1262
sL419L
g8
((lp1263
tp1264
Rp1265
sL420L
g8
((lp1266
tp1267
Rp1268
sL421L
g8
((lp1269
tp1270
Rp1271
sL422L
g8
((lp1272
tp1273
Rp1274
sL423L
g8
((lp1275
tp1276
Rp1277
sL424L
g8
((lp1278
tp1279
Rp1280
sL425L
g8
((lp1281
tp1282
Rp1283
sL426L
g8
((lp1284
tp1285
Rp1286
sL427L
g8
((lp1287
tp1288
Rp1289
sL428L
g8
((lp1290
tp1291
Rp1292
sL429L
g8
((lp1293
tp1294
Rp1295
sL430L
g8
((lp1296
tp1297
Rp1298
sL431L
g8
((lp1299
tp1300
Rp1301
sL432L
g8
((lp1302
tp1303
Rp1304
sL433L
g8
((lp1305
tp1306
Rp1307
sL434L
g8
((lp1308
tp1309
Rp1310
sL435L
g8
((lp1311
tp1312
Rp1313
sL436L
g8
((lp1314
tp1315
Rp1316
sL437L
g8
((lp1317
tp1318
Rp1319
sL438L
g8
((lp1320
tp1321
Rp1322
sL439L
g8
((lp1323
tp1324
Rp1325
sL440L
g8
((lp1326
tp1327
Rp1328
sL441L
g8
((lp1329
tp1330
Rp1331
sL442L
g8
((lp1332
tp1333
Rp1334
sL443L
g8
((lp1335
tp1336
Rp1337
sL444L
g8
((lp1338
tp1339
Rp1340
sL445L
g8
((lp1341
tp1342
Rp1343
sL446L
g8
((lp1344
tp1345
Rp1346
sL447L
g8
((lp1347
tp1348
Rp1349
sL448L
g8
((lp1350
tp1351
Rp1352
sL449L
g8
((lp1353
tp1354
Rp1355
sL450L
g8
((lp1356
tp1357
Rp1358
sL451L
g8
((lp1359
tp1360
Rp1361
sL452L
g8
((lp1362
tp1363
Rp1364
sL453L
g8
((lp1365
tp1366
Rp1367
sL454L
g8
((lp1368
tp1369
Rp1370
sL455L
g8
((lp1371
tp1372
Rp1373
sL456L
g8
((lp1374
L2081L
aL12L
aL60L
atp1375
Rp1376
sL457L
g8
((lp1377
tp1378
Rp1379
sL458L
g8
((lp1380
tp1381
Rp1382
sL459L
g8
((lp1383
tp1384
Rp1385
sL460L
g8
((lp1386
tp1387
Rp1388
sL461L
g8
((lp1389
tp1390
Rp1391
sL462L
g8
((lp1392
tp1393
Rp1394
sL463L
g8
((lp1395
tp1396
Rp1397
sL464L
g8
((lp1398
tp1399
Rp1400
sL465L
g8
((lp1401
tp1402
Rp1403
sL466L
g8
((lp1404
tp1405
Rp1406
sL467L
g8
((lp1407
tp1408
Rp1409
sL468L
g8
((lp1410
tp1411
Rp1412
sL469L
g8
((lp1413
tp1414
Rp1415
sL470L
g8
((lp1416
tp1417
Rp1418
sL471L
g8
((lp1419
tp1420
Rp1421
sL472L
g8
((lp1422
tp1423
Rp1424
sL473L
g8
((lp1425
tp1426
Rp1427
sL474L
g8
((lp1428
tp1429
Rp1430
sL475L
g8
((lp1431
tp1432
Rp1433
sL476L
g8
((lp1434
tp1435
Rp1436
sL477L
g8
((lp1437
tp1438
Rp1439
sL478L
g8
((lp1440
tp1441
Rp1442
sL479L
g8
((lp1443
tp1444
Rp1445
sL480L
g8
((lp1446
tp1447
Rp1448
sL481L
g8
((lp1449
tp1450
Rp1451
sL482L
g8
((lp1452
tp1453
Rp1454
sL483L
g8
((lp1455
tp1456
Rp1457
sL484L
g8
((lp1458
tp1459
Rp1460
sL485L
g8
((lp1461
tp1462
Rp1463
sL486L
g8
((lp1464
tp1465
Rp1466
sL487L
g8
((lp1467
tp1468
Rp1469
sL488L
g8
((lp1470
tp1471
Rp1472
sL489L
g8
((lp1473
tp1474
Rp1475
sL490L
g8
((lp1476
tp1477
Rp1478
sL491L
g8
((lp1479
tp1480
Rp1481
sL492L
g8
((lp1482
tp1483
Rp1484
sL493L
g8
((lp1485
tp1486
Rp1487
sL494L
g8
((lp1488
tp1489
Rp1490
sL495L
g8
((lp1491
tp1492
Rp1493
sL496L
g8
((lp1494
tp1495
Rp1496
sL497L
g8
((lp1497
tp1498
Rp1499
sL498L
g8
((lp1500
tp1501
Rp1502
sL499L
g8
((lp1503
tp1504
Rp1505
sL500L
g8
((lp1506
tp1507
Rp1508
sL501L
g8
((lp1509
tp1510
Rp1511
sL502L
g8
((lp1512
tp1513
Rp1514
sL503L
g8
((lp1515
tp1516
Rp1517
sL504L
g8
((lp1518
tp1519
Rp1520
sL505L
g8
((lp1521
tp1522
Rp1523
sL506L
g8
((lp1524
tp1525
Rp1526
sL507L
g8
((lp1527
tp1528
Rp1529
sL508L
g8
((lp1530
tp1531
Rp1532
sL509L
g8
((lp1533
tp1534
Rp1535
sL510L
g8
((lp1536
tp1537
Rp1538
sL511L
g8
((lp1539
tp1540
Rp1541
sL512L
g8
((lp1542
tp1543
Rp1544
sL513L
g8
((lp1545
tp1546
Rp1547
sL514L
g8
((lp1548
tp1549
Rp1550
sL515L
g8
((lp1551
tp1552
Rp1553
sL516L
g8
((lp1554
tp1555
Rp1556
sL517L
g8
((lp1557
tp1558
Rp1559
sL518L
g8
((lp1560
tp1561
Rp1562
sL519L
g8
((lp1563
tp1564
Rp1565
sL520L
g8
((lp1566
tp1567
Rp1568
sL521L
g8
((lp1569
tp1570
Rp1571
sL522L
g8
((lp1572
tp1573
Rp1574
sL523L
g8
((lp1575
L2011L
atp1576
Rp1577
sL524L
g8
((lp1578
tp1579
Rp1580
sL525L
g8
((lp1581
tp1582
Rp1583
sL526L
g8
((lp1584
tp1585
Rp1586
sL527L
g8
((lp1587
tp1588
Rp1589
sL528L
g8
((lp1590
tp1591
Rp1592
sL529L
g8
((lp1593
tp1594
Rp1595
sL530L
g8
((lp1596
tp1597
Rp1598
sL531L
g8
((lp1599
tp1600
Rp1601
sL532L
g8
((lp1602
tp1603
Rp1604
sL533L
g8
((lp1605
tp1606
Rp1607
sL534L
g8
((lp1608
tp1609
Rp1610
sL535L
g8
((lp1611
tp1612
Rp1613
sL536L
g8
((lp1614
tp1615
Rp1616
sL537L
g8
((lp1617
tp1618
Rp1619
sL538L
g8
((lp1620
tp1621
Rp1622
sL539L
g8
((lp1623
tp1624
Rp1625
sL540L
g8
((lp1626
tp1627
Rp1628
sL541L
g8
((lp1629
tp1630
Rp1631
sL542L
g8
((lp1632
tp1633
Rp1634
sL543L
g8
((lp1635
tp1636
Rp1637
sL544L
g8
((lp1638
tp1639
Rp1640
sL545L
g8
((lp1641
tp1642
Rp1643
sL546L
g8
((lp1644
tp1645
Rp1646
sL547L
g8
((lp1647
tp1648
Rp1649
sL548L
g8
((lp1650
tp1651
Rp1652
sL550L
g8
((lp1653
tp1654
Rp1655
sL551L
g8
((lp1656
tp1657
Rp1658
sL552L
g8
((lp1659
tp1660
Rp1661
sL553L
g8
((lp1662
tp1663
Rp1664
sL554L
g8
((lp1665
tp1666
Rp1667
sL555L
g8
((lp1668
tp1669
Rp1670
sL556L
g8
((lp1671
tp1672
Rp1673
sL557L
g8
((lp1674
tp1675
Rp1676
sL558L
g8
((lp1677
tp1678
Rp1679
sL559L
g8
((lp1680
tp1681
Rp1682
sL560L
g8
((lp1683
tp1684
Rp1685
sL561L
g8
((lp1686
L936L
aL1745L
atp1687
Rp1688
sL562L
g8
((lp1689
tp1690
Rp1691
sL563L
g8
((lp1692
tp1693
Rp1694
sL564L
g8
((lp1695
tp1696
Rp1697
sL565L
g8
((lp1698
tp1699
Rp1700
sL566L
g8
((lp1701
tp1702
Rp1703
sL567L
g8
((lp1704
tp1705
Rp1706
sL568L
g8
((lp1707
tp1708
Rp1709
sL569L
g8
((lp1710
tp1711
Rp1712
sL570L
g8
((lp1713
tp1714
Rp1715
sL571L
g8
((lp1716
tp1717
Rp1718
sL572L
g8
((lp1719
L1922L
aL2278L
aL1836L
aL2063L
aL2064L
aL2065L
aL1950L
atp1720
Rp1721
sL573L
g8
((lp1722
tp1723
Rp1724
sL574L
g8
((lp1725
tp1726
Rp1727
sL575L
g8
((lp1728
tp1729
Rp1730
sL576L
g8
((lp1731
tp1732
Rp1733
sL577L
g8
((lp1734
tp1735
Rp1736
sL578L
g8
((lp1737
tp1738
Rp1739
sL579L
g8
((lp1740
tp1741
Rp1742
sL580L
g8
((lp1743
tp1744
Rp1745
sL581L
g8
((lp1746
tp1747
Rp1748
sL582L
g8
((lp1749
tp1750
Rp1751
sL583L
g8
((lp1752
tp1753
Rp1754
sL584L
g8
((lp1755
tp1756
Rp1757
sL585L
g8
((lp1758
tp1759
Rp1760
sL586L
g8
((lp1761
tp1762
Rp1763
sL587L
g8
((lp1764
L1800L
aL771L
aL1102L
atp1765
Rp1766
sL588L
g8
((lp1767
tp1768
Rp1769
sL589L
g8
((lp1770
tp1771
Rp1772
sL590L
g8
((lp1773
tp1774
Rp1775
sL591L
g8
((lp1776
tp1777
Rp1778
sL592L
g8
((lp1779
tp1780
Rp1781
sL593L
g8
((lp1782
tp1783
Rp1784
sL594L
g8
((lp1785
tp1786
Rp1787
sL595L
g8
((lp1788
tp1789
Rp1790
sL596L
g8
((lp1791
tp1792
Rp1793
sL597L
g8
((lp1794
tp1795
Rp1796
sL598L
g8
((lp1797
tp1798
Rp1799
sL599L
g8
((lp1800
tp1801
Rp1802
sL600L
g8
((lp1803
tp1804
Rp1805
sL601L
g8
((lp1806
tp1807
Rp1808
sL602L
g8
((lp1809
tp1810
Rp1811
sL603L
g8
((lp1812
tp1813
Rp1814
sL604L
g8
((lp1815
tp1816
Rp1817
sL605L
g8
((lp1818
tp1819
Rp1820
sL606L
g8
((lp1821
tp1822
Rp1823
sL607L
g8
((lp1824
tp1825
Rp1826
sL608L
g8
((lp1827
tp1828
Rp1829
sL609L
g8
((lp1830
tp1831
Rp1832
sL610L
g8
((lp1833
tp1834
Rp1835
sL611L
g8
((lp1836
tp1837
Rp1838
sL612L
g8
((lp1839
tp1840
Rp1841
sL613L
g8
((lp1842
tp1843
Rp1844
sL614L
g8
((lp1845
tp1846
Rp1847
sL615L
g8
((lp1848
tp1849
Rp1850
sL616L
g8
((lp1851
tp1852
Rp1853
sL617L
g8
((lp1854
tp1855
Rp1856
sL618L
g8
((lp1857
tp1858
Rp1859
sL619L
g8
((lp1860
tp1861
Rp1862
sL620L
g8
((lp1863
tp1864
Rp1865
sL621L
g8
((lp1866
tp1867
Rp1868
sL622L
g8
((lp1869
tp1870
Rp1871
sL623L
g8
((lp1872
tp1873
Rp1874
sL624L
g8
((lp1875
tp1876
Rp1877
sL625L
g8
((lp1878
tp1879
Rp1880
sL626L
g8
((lp1881
tp1882
Rp1883
sL627L
g8
((lp1884
tp1885
Rp1886
sL628L
g8
((lp1887
tp1888
Rp1889
sL629L
g8
((lp1890
tp1891
Rp1892
sL630L
g8
((lp1893
tp1894
Rp1895
sL631L
g8
((lp1896
tp1897
Rp1898
sL632L
g8
((lp1899
tp1900
Rp1901
sL633L
g8
((lp1902
tp1903
Rp1904
sL634L
g8
((lp1905
tp1906
Rp1907
sL635L
g8
((lp1908
L2269L
aL2270L
aL2271L
atp1909
Rp1910
sL636L
g8
((lp1911
tp1912
Rp1913
sL637L
g8
((lp1914
tp1915
Rp1916
sL638L
g8
((lp1917
tp1918
Rp1919
sL639L
g8
((lp1920
tp1921
Rp1922
sL640L
g8
((lp1923
tp1924
Rp1925
sL641L
g8
((lp1926
tp1927
Rp1928
sL642L
g8
((lp1929
tp1930
Rp1931
sL643L
g8
((lp1932
tp1933
Rp1934
sL644L
g8
((lp1935
tp1936
Rp1937
sL645L
g8
((lp1938
tp1939
Rp1940
sL646L
g8
((lp1941
tp1942
Rp1943
sL647L
g8
((lp1944
tp1945
Rp1946
sL648L
g8
((lp1947
tp1948
Rp1949
sL649L
g8
((lp1950
tp1951
Rp1952
sL650L
g8
((lp1953
tp1954
Rp1955
sL651L
g8
((lp1956
tp1957
Rp1958
sL652L
g8
((lp1959
tp1960
Rp1961
sL653L
g8
((lp1962
tp1963
Rp1964
sL654L
g8
((lp1965
tp1966
Rp1967
sL655L
g8
((lp1968
tp1969
Rp1970
sL656L
g8
((lp1971
tp1972
Rp1973
sL657L
g8
((lp1974
tp1975
Rp1976
sL658L
g8
((lp1977
tp1978
Rp1979
sL659L
g8
((lp1980
tp1981
Rp1982
sL660L
g8
((lp1983
tp1984
Rp1985
sL661L
g8
((lp1986
tp1987
Rp1988
sL662L
g8
((lp1989
tp1990
Rp1991
sL663L
g8
((lp1992
tp1993
Rp1994
sL664L
g8
((lp1995
tp1996
Rp1997
sL665L
g8
((lp1998
tp1999
Rp2000
sL666L
g8
((lp2001
tp2002
Rp2003
sL667L
g8
((lp2004
tp2005
Rp2006
sL668L
g8
((lp2007
tp2008
Rp2009
sL669L
g8
((lp2010
tp2011
Rp2012
sL670L
g8
((lp2013
tp2014
Rp2015
sL671L
g8
((lp2016
tp2017
Rp2018
sL672L
g8
((lp2019
tp2020
Rp2021
sL673L
g8
((lp2022
L2000L
atp2023
Rp2024
sL674L
g8
((lp2025
tp2026
Rp2027
sL675L
g8
((lp2028
L2056L
aL822L
atp2029
Rp2030
sL676L
g8
((lp2031
tp2032
Rp2033
sL677L
g8
((lp2034
tp2035
Rp2036
sL678L
g8
((lp2037
tp2038
Rp2039
sL679L
g8
((lp2040
tp2041
Rp2042
sL680L
g8
((lp2043
tp2044
Rp2045
sL681L
g8
((lp2046
tp2047
Rp2048
sL682L
g8
((lp2049
tp2050
Rp2051
sL683L
g8
((lp2052
tp2053
Rp2054
sL684L
g8
((lp2055
tp2056
Rp2057
sL685L
g8
((lp2058
L1033L
aL2291L
aL2292L
aL2293L
atp2059
Rp2060
sL686L
g8
((lp2061
tp2062
Rp2063
sL687L
g8
((lp2064
tp2065
Rp2066
sL688L
g8
((lp2067
tp2068
Rp2069
sL689L
g8
((lp2070
tp2071
Rp2072
sL690L
g8
((lp2073
tp2074
Rp2075
sL692L
g8
((lp2076
tp2077
Rp2078
sL693L
g8
((lp2079
L2056L
aL2057L
aL2058L
aL822L
atp2080
Rp2081
sL694L
g8
((lp2082
tp2083
Rp2084
sL695L
g8
((lp2085
tp2086
Rp2087
sL696L
g8
((lp2088
tp2089
Rp2090
sL697L
g8
((lp2091
tp2092
Rp2093
sL698L
g8
((lp2094
tp2095
Rp2096
sL699L
g8
((lp2097
tp2098
Rp2099
sL700L
g8
((lp2100
tp2101
Rp2102
sL701L
g8
((lp2103
tp2104
Rp2105
sL702L
g8
((lp2106
tp2107
Rp2108
sL703L
g8
((lp2109
tp2110
Rp2111
sL704L
g8
((lp2112
tp2113
Rp2114
sL705L
g8
((lp2115
L2280L
aL2279L
atp2116
Rp2117
sL706L
g8
((lp2118
tp2119
Rp2120
sL707L
g8
((lp2121
tp2122
Rp2123
sL708L
g8
((lp2124
tp2125
Rp2126
sL709L
g8
((lp2127
tp2128
Rp2129
sL710L
g8
((lp2130
tp2131
Rp2132
sL711L
g8
((lp2133
tp2134
Rp2135
sL712L
g8
((lp2136
tp2137
Rp2138
sL713L
g8
((lp2139
tp2140
Rp2141
sL714L
g8
((lp2142
tp2143
Rp2144
sL715L
g8
((lp2145
tp2146
Rp2147
sL716L
g8
((lp2148
tp2149
Rp2150
sL717L
g8
((lp2151
tp2152
Rp2153
sL718L
g8
((lp2154
tp2155
Rp2156
sL719L
g8
((lp2157
tp2158
Rp2159
sL720L
g8
((lp2160
tp2161
Rp2162
sL721L
g8
((lp2163
tp2164
Rp2165
sL722L
g8
((lp2166
tp2167
Rp2168
sL723L
g8
((lp2169
tp2170
Rp2171
sL724L
g8
((lp2172
tp2173
Rp2174
sL725L
g8
((lp2175
tp2176
Rp2177
sL726L
g8
((lp2178
tp2179
Rp2180
sL727L
g8
((lp2181
tp2182
Rp2183
sL728L
g8
((lp2184
tp2185
Rp2186
sL730L
g8
((lp2187
tp2188
Rp2189
sL731L
g8
((lp2190
tp2191
Rp2192
sL732L
g8
((lp2193
tp2194
Rp2195
sL733L
g8
((lp2196
tp2197
Rp2198
sL734L
g8
((lp2199
tp2200
Rp2201
sL735L
g8
((lp2202
tp2203
Rp2204
sL736L
g8
((lp2205
tp2206
Rp2207
sL737L
g8
((lp2208
tp2209
Rp2210
sL739L
g8
((lp2211
tp2212
Rp2213
sL740L
g8
((lp2214
tp2215
Rp2216
sL741L
g8
((lp2217
tp2218
Rp2219
sL742L
g8
((lp2220
tp2221
Rp2222
sL743L
g8
((lp2223
tp2224
Rp2225
sL744L
g8
((lp2226
tp2227
Rp2228
sL745L
g8
((lp2229
tp2230
Rp2231
sL746L
g8
((lp2232
L1835L
atp2233
Rp2234
sL747L
g8
((lp2235
tp2236
Rp2237
sL748L
g8
((lp2238
tp2239
Rp2240
sL749L
g8
((lp2241
tp2242
Rp2243
sL750L
g8
((lp2244
tp2245
Rp2246
sL751L
g8
((lp2247
tp2248
Rp2249
sL752L
g8
((lp2250
tp2251
Rp2252
sL753L
g8
((lp2253
tp2254
Rp2255
sL754L
g8
((lp2256
L1408L
aL1062L
aL1646L
atp2257
Rp2258
sL755L
g8
((lp2259
tp2260
Rp2261
sL756L
g8
((lp2262
tp2263
Rp2264
sL757L
g8
((lp2265
tp2266
Rp2267
sL758L
g8
((lp2268
tp2269
Rp2270
sL761L
g8
((lp2271
tp2272
Rp2273
sL762L
g8
((lp2274
tp2275
Rp2276
sL763L
g8
((lp2277
tp2278
Rp2279
sL764L
g8
((lp2280
L2016L
aL2017L
aL2015L
atp2281
Rp2282
sL765L
g8
((lp2283
tp2284
Rp2285
sL766L
g8
((lp2286
tp2287
Rp2288
sL767L
g8
((lp2289
tp2290
Rp2291
sL768L
g8
((lp2292
tp2293
Rp2294
sL769L
g8
((lp2295
L145L
atp2296
Rp2297
sL770L
g8
((lp2298
tp2299
Rp2300
sL771L
g8
((lp2301
L2212L
aL1800L
aL587L
aL1102L
aL2211L
atp2302
Rp2303
sL772L
g8
((lp2304
tp2305
Rp2306
sL773L
g8
((lp2307
tp2308
Rp2309
sL774L
g8
((lp2310
tp2311
Rp2312
sL775L
g8
((lp2313
tp2314
Rp2315
sL776L
g8
((lp2316
tp2317
Rp2318
sL777L
g8
((lp2319
tp2320
Rp2321
sL778L
g8
((lp2322
tp2323
Rp2324
sL779L
g8
((lp2325
tp2326
Rp2327
sL780L
g8
((lp2328
tp2329
Rp2330
sL781L
g8
((lp2331
tp2332
Rp2333
sL782L
g8
((lp2334
tp2335
Rp2336
sL783L
g8
((lp2337
tp2338
Rp2339
sL784L
g8
((lp2340
tp2341
Rp2342
sL785L
g8
((lp2343
tp2344
Rp2345
sL786L
g8
((lp2346
tp2347
Rp2348
sL787L
g8
((lp2349
tp2350
Rp2351
sL789L
g8
((lp2352
tp2353
Rp2354
sL790L
g8
((lp2355
tp2356
Rp2357
sL791L
g8
((lp2358
tp2359
Rp2360
sL792L
g8
((lp2361
tp2362
Rp2363
sL793L
g8
((lp2364
tp2365
Rp2366
sL794L
g8
((lp2367
tp2368
Rp2369
sL795L
g8
((lp2370
tp2371
Rp2372
sL796L
g8
((lp2373
tp2374
Rp2375
sL797L
g8
((lp2376
tp2377
Rp2378
sL798L
g8
((lp2379
tp2380
Rp2381
sL799L
g8
((lp2382
tp2383
Rp2384
sL800L
g8
((lp2385
tp2386
Rp2387
sL801L
g8
((lp2388
tp2389
Rp2390
sL802L
g8
((lp2391
tp2392
Rp2393
sL803L
g8
((lp2394
tp2395
Rp2396
sL804L
g8
((lp2397
tp2398
Rp2399
sL805L
g8
((lp2400
tp2401
Rp2402
sL806L
g8
((lp2403
tp2404
Rp2405
sL807L
g8
((lp2406
tp2407
Rp2408
sL808L
g8
((lp2409
tp2410
Rp2411
sL809L
g8
((lp2412
tp2413
Rp2414
sL810L
g8
((lp2415
tp2416
Rp2417
sL811L
g8
((lp2418
tp2419
Rp2420
sL812L
g8
((lp2421
tp2422
Rp2423
sL813L
g8
((lp2424
tp2425
Rp2426
sL814L
g8
((lp2427
tp2428
Rp2429
sL815L
g8
((lp2430
tp2431
Rp2432
sL816L
g8
((lp2433
tp2434
Rp2435
sL817L
g8
((lp2436
tp2437
Rp2438
sL818L
g8
((lp2439
tp2440
Rp2441
sL819L
g8
((lp2442
tp2443
Rp2444
sL820L
g8
((lp2445
tp2446
Rp2447
sL821L
g8
((lp2448
tp2449
Rp2450
sL822L
g8
((lp2451
L675L
aL2056L
aL2057L
aL2058L
aL111L
aL2003L
aL693L
aL1755L
aL1756L
aL1757L
atp2452
Rp2453
sL823L
g8
((lp2454
tp2455
Rp2456
sL824L
g8
((lp2457
tp2458
Rp2459
sL825L
g8
((lp2460
tp2461
Rp2462
sL826L
g8
((lp2463
tp2464
Rp2465
sL827L
g8
((lp2466
tp2467
Rp2468
sL828L
g8
((lp2469
tp2470
Rp2471
sL829L
g8
((lp2472
tp2473
Rp2474
sL830L
g8
((lp2475
tp2476
Rp2477
sL831L
g8
((lp2478
tp2479
Rp2480
sL832L
g8
((lp2481
tp2482
Rp2483
sL833L
g8
((lp2484
tp2485
Rp2486
sL834L
g8
((lp2487
tp2488
Rp2489
sL835L
g8
((lp2490
tp2491
Rp2492
sL836L
g8
((lp2493
tp2494
Rp2495
sL837L
g8
((lp2496
tp2497
Rp2498
sL838L
g8
((lp2499
tp2500
Rp2501
sL839L
g8
((lp2502
L2370L
aL2371L
aL2372L
atp2503
Rp2504
sL840L
g8
((lp2505
tp2506
Rp2507
sL841L
g8
((lp2508
tp2509
Rp2510
sL842L
g8
((lp2511
tp2512
Rp2513
sL843L
g8
((lp2514
tp2515
Rp2516
sL844L
g8
((lp2517
tp2518
Rp2519
sL845L
g8
((lp2520
tp2521
Rp2522
sL846L
g8
((lp2523
tp2524
Rp2525
sL847L
g8
((lp2526
tp2527
Rp2528
sL848L
g8
((lp2529
tp2530
Rp2531
sL849L
g8
((lp2532
tp2533
Rp2534
sL850L
g8
((lp2535
tp2536
Rp2537
sL851L
g8
((lp2538
tp2539
Rp2540
sL852L
g8
((lp2541
tp2542
Rp2543
sL853L
g8
((lp2544
tp2545
Rp2546
sL854L
g8
((lp2547
tp2548
Rp2549
sL855L
g8
((lp2550
tp2551
Rp2552
sL856L
g8
((lp2553
tp2554
Rp2555
sL857L
g8
((lp2556
tp2557
Rp2558
sL858L
g8
((lp2559
tp2560
Rp2561
sL859L
g8
((lp2562
tp2563
Rp2564
sL860L
g8
((lp2565
tp2566
Rp2567
sL861L
g8
((lp2568
tp2569
Rp2570
sL862L
g8
((lp2571
tp2572
Rp2573
sL863L
g8
((lp2574
tp2575
Rp2576
sL864L
g8
((lp2577
tp2578
Rp2579
sL865L
g8
((lp2580
tp2581
Rp2582
sL866L
g8
((lp2583
tp2584
Rp2585
sL867L
g8
((lp2586
tp2587
Rp2588
sL868L
g8
((lp2589
tp2590
Rp2591
sL869L
g8
((lp2592
tp2593
Rp2594
sL870L
g8
((lp2595
tp2596
Rp2597
sL871L
g8
((lp2598
L2358L
atp2599
Rp2600
sL872L
g8
((lp2601
tp2602
Rp2603
sL873L
g8
((lp2604
tp2605
Rp2606
sL874L
g8
((lp2607
tp2608
Rp2609
sL875L
g8
((lp2610
tp2611
Rp2612
sL876L
g8
((lp2613
tp2614
Rp2615
sL877L
g8
((lp2616
tp2617
Rp2618
sL878L
g8
((lp2619
tp2620
Rp2621
sL879L
g8
((lp2622
tp2623
Rp2624
sL880L
g8
((lp2625
tp2626
Rp2627
sL881L
g8
((lp2628
tp2629
Rp2630
sL882L
g8
((lp2631
tp2632
Rp2633
sL883L
g8
((lp2634
tp2635
Rp2636
sL884L
g8
((lp2637
tp2638
Rp2639
sL885L
g8
((lp2640
tp2641
Rp2642
sL886L
g8
((lp2643
tp2644
Rp2645
sL887L
g8
((lp2646
tp2647
Rp2648
sL888L
g8
((lp2649
tp2650
Rp2651
sL889L
g8
((lp2652
tp2653
Rp2654
sL890L
g8
((lp2655
tp2656
Rp2657
sL891L
g8
((lp2658
tp2659
Rp2660
sL892L
g8
((lp2661
tp2662
Rp2663
sL893L
g8
((lp2664
tp2665
Rp2666
sL894L
g8
((lp2667
tp2668
Rp2669
sL895L
g8
((lp2670
tp2671
Rp2672
sL896L
g8
((lp2673
tp2674
Rp2675
sL897L
g8
((lp2676
tp2677
Rp2678
sL898L
g8
((lp2679
tp2680
Rp2681
sL899L
g8
((lp2682
tp2683
Rp2684
sL900L
g8
((lp2685
tp2686
Rp2687
sL901L
g8
((lp2688
tp2689
Rp2690
sL902L
g8
((lp2691
tp2692
Rp2693
sL903L
g8
((lp2694
tp2695
Rp2696
sL905L
g8
((lp2697
tp2698
Rp2699
sL906L
g8
((lp2700
tp2701
Rp2702
sL907L
g8
((lp2703
tp2704
Rp2705
sL908L
g8
((lp2706
tp2707
Rp2708
sL909L
g8
((lp2709
tp2710
Rp2711
sL910L
g8
((lp2712
tp2713
Rp2714
sL911L
g8
((lp2715
tp2716
Rp2717
sL912L
g8
((lp2718
tp2719
Rp2720
sL913L
g8
((lp2721
tp2722
Rp2723
sL914L
g8
((lp2724
L2073L
aL227L
atp2725
Rp2726
sL915L
g8
((lp2727
tp2728
Rp2729
sL916L
g8
((lp2730
tp2731
Rp2732
sL917L
g8
((lp2733
tp2734
Rp2735
sL918L
g8
((lp2736
tp2737
Rp2738
sL919L
g8
((lp2739
tp2740
Rp2741
sL920L
g8
((lp2742
tp2743
Rp2744
sL921L
g8
((lp2745
tp2746
Rp2747
sL922L
g8
((lp2748
tp2749
Rp2750
sL923L
g8
((lp2751
tp2752
Rp2753
sL924L
g8
((lp2754
tp2755
Rp2756
sL925L
g8
((lp2757
tp2758
Rp2759
sL926L
g8
((lp2760
tp2761
Rp2762
sL927L
g8
((lp2763
tp2764
Rp2765
sL928L
g8
((lp2766
tp2767
Rp2768
sL929L
g8
((lp2769
tp2770
Rp2771
sL930L
g8
((lp2772
tp2773
Rp2774
sL931L
g8
((lp2775
tp2776
Rp2777
sL932L
g8
((lp2778
tp2779
Rp2780
sL933L
g8
((lp2781
tp2782
Rp2783
sL934L
g8
((lp2784
tp2785
Rp2786
sL935L
g8
((lp2787
tp2788
Rp2789
sL936L
g8
((lp2790
L1745L
aL561L
atp2791
Rp2792
sL937L
g8
((lp2793
tp2794
Rp2795
sL938L
g8
((lp2796
tp2797
Rp2798
sL939L
g8
((lp2799
tp2800
Rp2801
sL940L
g8
((lp2802
tp2803
Rp2804
sL941L
g8
((lp2805
tp2806
Rp2807
sL942L
g8
((lp2808
tp2809
Rp2810
sL943L
g8
((lp2811
tp2812
Rp2813
sL944L
g8
((lp2814
tp2815
Rp2816
sL945L
g8
((lp2817
tp2818
Rp2819
sL946L
g8
((lp2820
tp2821
Rp2822
sL947L
g8
((lp2823
tp2824
Rp2825
sL948L
g8
((lp2826
tp2827
Rp2828
sL949L
g8
((lp2829
tp2830
Rp2831
sL950L
g8
((lp2832
tp2833
Rp2834
sL951L
g8
((lp2835
tp2836
Rp2837
sL952L
g8
((lp2838
tp2839
Rp2840
sL953L
g8
((lp2841
tp2842
Rp2843
sL954L
g8
((lp2844
tp2845
Rp2846
sL955L
g8
((lp2847
L107L
aL1900L
aL1967L
atp2848
Rp2849
sL956L
g8
((lp2850
tp2851
Rp2852
sL957L
g8
((lp2853
tp2854
Rp2855
sL958L
g8
((lp2856
tp2857
Rp2858
sL959L
g8
((lp2859
tp2860
Rp2861
sL960L
g8
((lp2862
tp2863
Rp2864
sL961L
g8
((lp2865
tp2866
Rp2867
sL962L
g8
((lp2868
tp2869
Rp2870
sL963L
g8
((lp2871
tp2872
Rp2873
sL964L
g8
((lp2874
tp2875
Rp2876
sL965L
g8
((lp2877
tp2878
Rp2879
sL966L
g8
((lp2880
tp2881
Rp2882
sL967L
g8
((lp2883
L358L
aL2194L
aL2105L
aL2106L
aL2107L
atp2884
Rp2885
sL968L
g8
((lp2886
tp2887
Rp2888
sL969L
g8
((lp2889
tp2890
Rp2891
sL970L
g8
((lp2892
L8L
aL61L
atp2893
Rp2894
sL972L
g8
((lp2895
tp2896
Rp2897
sL973L
g8
((lp2898
tp2899
Rp2900
sL974L
g8
((lp2901
tp2902
Rp2903
sL975L
g8
((lp2904
tp2905
Rp2906
sL976L
g8
((lp2907
tp2908
Rp2909
sL977L
g8
((lp2910
tp2911
Rp2912
sL978L
g8
((lp2913
tp2914
Rp2915
sL979L
g8
((lp2916
tp2917
Rp2918
sL980L
g8
((lp2919
tp2920
Rp2921
sL981L
g8
((lp2922
tp2923
Rp2924
sL982L
g8
((lp2925
tp2926
Rp2927
sL983L
g8
((lp2928
tp2929
Rp2930
sL984L
g8
((lp2931
tp2932
Rp2933
sL985L
g8
((lp2934
tp2935
Rp2936
sL986L
g8
((lp2937
tp2938
Rp2939
sL987L
g8
((lp2940
tp2941
Rp2942
sL988L
g8
((lp2943
tp2944
Rp2945
sL989L
g8
((lp2946
tp2947
Rp2948
sL990L
g8
((lp2949
tp2950
Rp2951
sL991L
g8
((lp2952
tp2953
Rp2954
sL992L
g8
((lp2955
tp2956
Rp2957
sL993L
g8
((lp2958
tp2959
Rp2960
sL994L
g8
((lp2961
tp2962
Rp2963
sL995L
g8
((lp2964
tp2965
Rp2966
sL996L
g8
((lp2967
tp2968
Rp2969
sL997L
g8
((lp2970
tp2971
Rp2972
sL998L
g8
((lp2973
tp2974
Rp2975
sL999L
g8
((lp2976
tp2977
Rp2978
sL1000L
g8
((lp2979
tp2980
Rp2981
sL1001L
g8
((lp2982
tp2983
Rp2984
sL1002L
g8
((lp2985
tp2986
Rp2987
sL1003L
g8
((lp2988
tp2989
Rp2990
sL1004L
g8
((lp2991
tp2992
Rp2993
sL1005L
g8
((lp2994
L2225L
atp2995
Rp2996
sL1006L
g8
((lp2997
tp2998
Rp2999
sL1007L
g8
((lp3000
tp3001
Rp3002
sL1008L
g8
((lp3003
tp3004
Rp3005
sL1009L
g8
((lp3006
tp3007
Rp3008
sL1010L
g8
((lp3009
tp3010
Rp3011
sL1011L
g8
((lp3012
tp3013
Rp3014
sL1012L
g8
((lp3015
tp3016
Rp3017
sL1013L
g8
((lp3018
L2028L
aL310L
atp3019
Rp3020
sL1014L
g8
((lp3021
L309L
aL310L
atp3022
Rp3023
sL1015L
g8
((lp3024
tp3025
Rp3026
sL1016L
g8
((lp3027
tp3028
Rp3029
sL1017L
g8
((lp3030
tp3031
Rp3032
sL1018L
g8
((lp3033
tp3034
Rp3035
sL1019L
g8
((lp3036
tp3037
Rp3038
sL1020L
g8
((lp3039
tp3040
Rp3041
sL1021L
g8
((lp3042
tp3043
Rp3044
sL1022L
g8
((lp3045
tp3046
Rp3047
sL1023L
g8
((lp3048
tp3049
Rp3050
sL1024L
g8
((lp3051
tp3052
Rp3053
sL1025L
g8
((lp3054
tp3055
Rp3056
sL1026L
g8
((lp3057
tp3058
Rp3059
sL1027L
g8
((lp3060
tp3061
Rp3062
sL1028L
g8
((lp3063
tp3064
Rp3065
sL1029L
g8
((lp3066
tp3067
Rp3068
sL1030L
g8
((lp3069
tp3070
Rp3071
sL1031L
g8
((lp3072
tp3073
Rp3074
sL1032L
g8
((lp3075
tp3076
Rp3077
sL1033L
g8
((lp3078
L2291L
aL2292L
aL685L
aL2293L
atp3079
Rp3080
sL1034L
g8
((lp3081
tp3082
Rp3083
sL1035L
g8
((lp3084
tp3085
Rp3086
sL1036L
g8
((lp3087
tp3088
Rp3089
sL1037L
g8
((lp3090
tp3091
Rp3092
sL1038L
g8
((lp3093
tp3094
Rp3095
sL1039L
g8
((lp3096
tp3097
Rp3098
sL1040L
g8
((lp3099
tp3100
Rp3101
sL1041L
g8
((lp3102
tp3103
Rp3104
sL1042L
g8
((lp3105
tp3106
Rp3107
sL1043L
g8
((lp3108
tp3109
Rp3110
sL1044L
g8
((lp3111
tp3112
Rp3113
sL1045L
g8
((lp3114
tp3115
Rp3116
sL1046L
g8
((lp3117
tp3118
Rp3119
sL1047L
g8
((lp3120
tp3121
Rp3122
sL1048L
g8
((lp3123
tp3124
Rp3125
sL1049L
g8
((lp3126
L160L
aL1589L
aL159L
atp3127
Rp3128
sL1050L
g8
((lp3129
tp3130
Rp3131
sL1051L
g8
((lp3132
tp3133
Rp3134
sL1052L
g8
((lp3135
tp3136
Rp3137
sL1053L
g8
((lp3138
tp3139
Rp3140
sL1054L
g8
((lp3141
tp3142
Rp3143
sL1055L
g8
((lp3144
tp3145
Rp3146
sL1056L
g8
((lp3147
tp3148
Rp3149
sL1057L
g8
((lp3150
tp3151
Rp3152
sL1058L
g8
((lp3153
tp3154
Rp3155
sL1059L
g8
((lp3156
tp3157
Rp3158
sL1060L
g8
((lp3159
tp3160
Rp3161
sL1061L
g8
((lp3162
tp3163
Rp3164
sL1062L
g8
((lp3165
L1408L
aL754L
aL1646L
atp3166
Rp3167
sL1063L
g8
((lp3168
tp3169
Rp3170
sL1064L
g8
((lp3171
tp3172
Rp3173
sL1065L
g8
((lp3174
tp3175
Rp3176
sL1066L
g8
((lp3177
tp3178
Rp3179
sL1067L
g8
((lp3180
tp3181
Rp3182
sL1068L
g8
((lp3183
tp3184
Rp3185
sL1069L
g8
((lp3186
tp3187
Rp3188
sL1070L
g8
((lp3189
tp3190
Rp3191
sL1071L
g8
((lp3192
tp3193
Rp3194
sL1072L
g8
((lp3195
tp3196
Rp3197
sL1073L
g8
((lp3198
tp3199
Rp3200
sL1074L
g8
((lp3201
tp3202
Rp3203
sL1075L
g8
((lp3204
tp3205
Rp3206
sL1076L
g8
((lp3207
tp3208
Rp3209
sL1077L
g8
((lp3210
tp3211
Rp3212
sL1078L
g8
((lp3213
tp3214
Rp3215
sL1079L
g8
((lp3216
tp3217
Rp3218
sL1080L
g8
((lp3219
tp3220
Rp3221
sL1081L
g8
((lp3222
tp3223
Rp3224
sL1082L
g8
((lp3225
tp3226
Rp3227
sL1083L
g8
((lp3228
tp3229
Rp3230
sL1084L
g8
((lp3231
tp3232
Rp3233
sL1085L
g8
((lp3234
tp3235
Rp3236
sL1086L
g8
((lp3237
tp3238
Rp3239
sL1087L
g8
((lp3240
tp3241
Rp3242
sL1088L
g8
((lp3243
tp3244
Rp3245
sL1089L
g8
((lp3246
tp3247
Rp3248
sL1090L
g8
((lp3249
tp3250
Rp3251
sL1091L
g8
((lp3252
L2154L
aL1486L
atp3253
Rp3254
sL1092L
g8
((lp3255
tp3256
Rp3257
sL1093L
g8
((lp3258
tp3259
Rp3260
sL1094L
g8
((lp3261
tp3262
Rp3263
sL1095L
g8
((lp3264
tp3265
Rp3266
sL1096L
g8
((lp3267
tp3268
Rp3269
sL1097L
g8
((lp3270
tp3271
Rp3272
sL1098L
g8
((lp3273
tp3274
Rp3275
sL1099L
g8
((lp3276
tp3277
Rp3278
sL1100L
g8
((lp3279
tp3280
Rp3281
sL1101L
g8
((lp3282
tp3283
Rp3284
sL1102L
g8
((lp3285
L771L
aL2212L
aL1800L
aL587L
aL2211L
atp3286
Rp3287
sL1103L
g8
((lp3288
tp3289
Rp3290
sL1104L
g8
((lp3291
tp3292
Rp3293
sL1105L
g8
((lp3294
tp3295
Rp3296
sL1106L
g8
((lp3297
tp3298
Rp3299
sL1107L
g8
((lp3300
tp3301
Rp3302
sL1108L
g8
((lp3303
L2346L
aL2347L
atp3304
Rp3305
sL1109L
g8
((lp3306
tp3307
Rp3308
sL1110L
g8
((lp3309
tp3310
Rp3311
sL1111L
g8
((lp3312
tp3313
Rp3314
sL1112L
g8
((lp3315
tp3316
Rp3317
sL1113L
g8
((lp3318
tp3319
Rp3320
sL1114L
g8
((lp3321
tp3322
Rp3323
sL1115L
g8
((lp3324
tp3325
Rp3326
sL1116L
g8
((lp3327
tp3328
Rp3329
sL1117L
g8
((lp3330
tp3331
Rp3332
sL1118L
g8
((lp3333
tp3334
Rp3335
sL1119L
g8
((lp3336
tp3337
Rp3338
sL1120L
g8
((lp3339
tp3340
Rp3341
sL1121L
g8
((lp3342
tp3343
Rp3344
sL1122L
g8
((lp3345
tp3346
Rp3347
sL1123L
g8
((lp3348
tp3349
Rp3350
sL1124L
g8
((lp3351
tp3352
Rp3353
sL1125L
g8
((lp3354
tp3355
Rp3356
sL1126L
g8
((lp3357
tp3358
Rp3359
sL1127L
g8
((lp3360
tp3361
Rp3362
sL1128L
g8
((lp3363
L2184L
aL2345L
atp3364
Rp3365
sL1129L
g8
((lp3366
tp3367
Rp3368
sL1130L
g8
((lp3369
tp3370
Rp3371
sL1131L
g8
((lp3372
tp3373
Rp3374
sL1132L
g8
((lp3375
tp3376
Rp3377
sL1133L
g8
((lp3378
tp3379
Rp3380
sL1134L
g8
((lp3381
tp3382
Rp3383
sL1135L
g8
((lp3384
tp3385
Rp3386
sL1136L
g8
((lp3387
tp3388
Rp3389
sL1137L
g8
((lp3390
tp3391
Rp3392
sL1138L
g8
((lp3393
tp3394
Rp3395
sL1139L
g8
((lp3396
tp3397
Rp3398
sL1140L
g8
((lp3399
tp3400
Rp3401
sL1141L
g8
((lp3402
tp3403
Rp3404
sL1142L
g8
((lp3405
tp3406
Rp3407
sL1143L
g8
((lp3408
tp3409
Rp3410
sL1144L
g8
((lp3411
tp3412
Rp3413
sL1145L
g8
((lp3414
tp3415
Rp3416
sL1146L
g8
((lp3417
tp3418
Rp3419
sL1147L
g8
((lp3420
tp3421
Rp3422
sL1148L
g8
((lp3423
tp3424
Rp3425
sL1149L
g8
((lp3426
tp3427
Rp3428
sL1150L
g8
((lp3429
tp3430
Rp3431
sL1151L
g8
((lp3432
tp3433
Rp3434
sL1152L
g8
((lp3435
tp3436
Rp3437
sL1153L
g8
((lp3438
tp3439
Rp3440
sL1154L
g8
((lp3441
tp3442
Rp3443
sL1155L
g8
((lp3444
tp3445
Rp3446
sL1156L
g8
((lp3447
L2130L
aL2134L
atp3448
Rp3449
sL1157L
g8
((lp3450
L2260L
atp3451
Rp3452
sL1158L
g8
((lp3453
tp3454
Rp3455
sL1159L
g8
((lp3456
tp3457
Rp3458
sL1160L
g8
((lp3459
L2049L
aL2050L
atp3460
Rp3461
sL1161L
g8
((lp3462
tp3463
Rp3464
sL1162L
g8
((lp3465
tp3466
Rp3467
sL1163L
g8
((lp3468
L2113L
aL1165L
atp3469
Rp3470
sL1164L
g8
((lp3471
tp3472
Rp3473
sL1165L
g8
((lp3474
L2113L
aL1163L
atp3475
Rp3476
sL1166L
g8
((lp3477
tp3478
Rp3479
sL1167L
g8
((lp3480
tp3481
Rp3482
sL1168L
g8
((lp3483
tp3484
Rp3485
sL1169L
g8
((lp3486
tp3487
Rp3488
sL1170L
g8
((lp3489
tp3490
Rp3491
sL1171L
g8
((lp3492
tp3493
Rp3494
sL1172L
g8
((lp3495
tp3496
Rp3497
sL1173L
g8
((lp3498
tp3499
Rp3500
sL1174L
g8
((lp3501
tp3502
Rp3503
sL1175L
g8
((lp3504
tp3505
Rp3506
sL1176L
g8
((lp3507
tp3508
Rp3509
sL1177L
g8
((lp3510
tp3511
Rp3512
sL1178L
g8
((lp3513
tp3514
Rp3515
sL1179L
g8
((lp3516
tp3517
Rp3518
sL1180L
g8
((lp3519
tp3520
Rp3521
sL1181L
g8
((lp3522
tp3523
Rp3524
sL1182L
g8
((lp3525
tp3526
Rp3527
sL1183L
g8
((lp3528
tp3529
Rp3530
sL1184L
g8
((lp3531
tp3532
Rp3533
sL1185L
g8
((lp3534
tp3535
Rp3536
sL1186L
g8
((lp3537
tp3538
Rp3539
sL1187L
g8
((lp3540
tp3541
Rp3542
sL1188L
g8
((lp3543
tp3544
Rp3545
sL1189L
g8
((lp3546
tp3547
Rp3548
sL1190L
g8
((lp3549
L2343L
atp3550
Rp3551
sL1191L
g8
((lp3552
tp3553
Rp3554
sL1192L
g8
((lp3555
tp3556
Rp3557
sL1193L
g8
((lp3558
tp3559
Rp3560
sL1194L
g8
((lp3561
tp3562
Rp3563
sL1195L
g8
((lp3564
tp3565
Rp3566
sL1196L
g8
((lp3567
tp3568
Rp3569
sL1197L
g8
((lp3570
tp3571
Rp3572
sL1198L
g8
((lp3573
tp3574
Rp3575
sL1199L
g8
((lp3576
tp3577
Rp3578
sL1200L
g8
((lp3579
tp3580
Rp3581
sL1201L
g8
((lp3582
tp3583
Rp3584
sL1202L
g8
((lp3585
tp3586
Rp3587
sL1203L
g8
((lp3588
tp3589
Rp3590
sL1204L
g8
((lp3591
tp3592
Rp3593
sL1205L
g8
((lp3594
tp3595
Rp3596
sL1206L
g8
((lp3597
L2024L
aL49L
atp3598
Rp3599
sL1207L
g8
((lp3600
tp3601
Rp3602
sL1208L
g8
((lp3603
tp3604
Rp3605
sL1209L
g8
((lp3606
tp3607
Rp3608
sL1210L
g8
((lp3609
tp3610
Rp3611
sL1211L
g8
((lp3612
tp3613
Rp3614
sL1212L
g8
((lp3615
tp3616
Rp3617
sL1213L
g8
((lp3618
tp3619
Rp3620
sL1214L
g8
((lp3621
tp3622
Rp3623
sL1215L
g8
((lp3624
tp3625
Rp3626
sL1216L
g8
((lp3627
tp3628
Rp3629
sL1217L
g8
((lp3630
tp3631
Rp3632
sL1218L
g8
((lp3633
tp3634
Rp3635
sL1219L
g8
((lp3636
tp3637
Rp3638
sL1220L
g8
((lp3639
tp3640
Rp3641
sL1221L
g8
((lp3642
tp3643
Rp3644
sL1222L
g8
((lp3645
tp3646
Rp3647
sL1223L
g8
((lp3648
tp3649
Rp3650
sL1224L
g8
((lp3651
tp3652
Rp3653
sL1225L
g8
((lp3654
tp3655
Rp3656
sL1226L
g8
((lp3657
tp3658
Rp3659
sL1227L
g8
((lp3660
tp3661
Rp3662
sL1228L
g8
((lp3663
tp3664
Rp3665
sL1229L
g8
((lp3666
tp3667
Rp3668
sL1230L
g8
((lp3669
tp3670
Rp3671
sL1231L
g8
((lp3672
tp3673
Rp3674
sL1232L
g8
((lp3675
tp3676
Rp3677
sL1233L
g8
((lp3678
tp3679
Rp3680
sL1234L
g8
((lp3681
tp3682
Rp3683
sL1235L
g8
((lp3684
tp3685
Rp3686
sL1236L
g8
((lp3687
tp3688
Rp3689
sL1237L
g8
((lp3690
tp3691
Rp3692
sL1238L
g8
((lp3693
tp3694
Rp3695
sL1239L
g8
((lp3696
tp3697
Rp3698
sL1240L
g8
((lp3699
tp3700
Rp3701
sL1241L
g8
((lp3702
tp3703
Rp3704
sL1242L
g8
((lp3705
tp3706
Rp3707
sL1243L
g8
((lp3708
tp3709
Rp3710
sL1244L
g8
((lp3711
tp3712
Rp3713
sL1245L
g8
((lp3714
tp3715
Rp3716
sL1246L
g8
((lp3717
tp3718
Rp3719
sL1247L
g8
((lp3720
tp3721
Rp3722
sL1248L
g8
((lp3723
tp3724
Rp3725
sL1249L
g8
((lp3726
L1408L
aL2021L
aL1646L
atp3727
Rp3728
sL1250L
g8
((lp3729
tp3730
Rp3731
sL1251L
g8
((lp3732
tp3733
Rp3734
sL1252L
g8
((lp3735
tp3736
Rp3737
sL1253L
g8
((lp3738
L1254L
aL1255L
aL2250L
aL2251L
aL2252L
aL1839L
atp3739
Rp3740
sL1254L
g8
((lp3741
L1253L
aL1255L
aL2250L
aL2251L
aL2252L
aL1839L
atp3742
Rp3743
sL1255L
g8
((lp3744
L1253L
aL1254L
aL2250L
aL2251L
aL2252L
aL1839L
atp3745
Rp3746
sL1256L
g8
((lp3747
tp3748
Rp3749
sL1257L
g8
((lp3750
tp3751
Rp3752
sL1258L
g8
((lp3753
tp3754
Rp3755
sL1259L
g8
((lp3756
tp3757
Rp3758
sL1260L
g8
((lp3759
tp3760
Rp3761
sL1261L
g8
((lp3762
L2352L
aL2353L
aL1421L
atp3763
Rp3764
sL1262L
g8
((lp3765
tp3766
Rp3767
sL1263L
g8
((lp3768
tp3769
Rp3770
sL1264L
g8
((lp3771
tp3772
Rp3773
sL1265L
g8
((lp3774
tp3775
Rp3776
sL1266L
g8
((lp3777
tp3778
Rp3779
sL1267L
g8
((lp3780
tp3781
Rp3782
sL1268L
g8
((lp3783
tp3784
Rp3785
sL1269L
g8
((lp3786
tp3787
Rp3788
sL1270L
g8
((lp3789
tp3790
Rp3791
sL1271L
g8
((lp3792
tp3793
Rp3794
sL1272L
g8
((lp3795
tp3796
Rp3797
sL1273L
g8
((lp3798
tp3799
Rp3800
sL1275L
g8
((lp3801
tp3802
Rp3803
sL1276L
g8
((lp3804
tp3805
Rp3806
sL1277L
g8
((lp3807
tp3808
Rp3809
sL1278L
g8
((lp3810
tp3811
Rp3812
sL1279L
g8
((lp3813
tp3814
Rp3815
sL1280L
g8
((lp3816
tp3817
Rp3818
sL1281L
g8
((lp3819
tp3820
Rp3821
sL1282L
g8
((lp3822
tp3823
Rp3824
sL1283L
g8
((lp3825
tp3826
Rp3827
sL1284L
g8
((lp3828
tp3829
Rp3830
sL1285L
g8
((lp3831
tp3832
Rp3833
sL1286L
g8
((lp3834
tp3835
Rp3836
sL1287L
g8
((lp3837
tp3838
Rp3839
sL1288L
g8
((lp3840
tp3841
Rp3842
sL1289L
g8
((lp3843
tp3844
Rp3845
sL1290L
g8
((lp3846
tp3847
Rp3848
sL1291L
g8
((lp3849
tp3850
Rp3851
sL1292L
g8
((lp3852
tp3853
Rp3854
sL1293L
g8
((lp3855
tp3856
Rp3857
sL1294L
g8
((lp3858
tp3859
Rp3860
sL1295L
g8
((lp3861
tp3862
Rp3863
sL1296L
g8
((lp3864
tp3865
Rp3866
sL1297L
g8
((lp3867
tp3868
Rp3869
sL1298L
g8
((lp3870
tp3871
Rp3872
sL1299L
g8
((lp3873
tp3874
Rp3875
sL1300L
g8
((lp3876
tp3877
Rp3878
sL1301L
g8
((lp3879
tp3880
Rp3881
sL1302L
g8
((lp3882
tp3883
Rp3884
sL1303L
g8
((lp3885
tp3886
Rp3887
sL1304L
g8
((lp3888
tp3889
Rp3890
sL1305L
g8
((lp3891
tp3892
Rp3893
sL1306L
g8
((lp3894
tp3895
Rp3896
sL1307L
g8
((lp3897
tp3898
Rp3899
sL1308L
g8
((lp3900
tp3901
Rp3902
sL1309L
g8
((lp3903
tp3904
Rp3905
sL1310L
g8
((lp3906
tp3907
Rp3908
sL1311L
g8
((lp3909
tp3910
Rp3911
sL1312L
g8
((lp3912
tp3913
Rp3914
sL1313L
g8
((lp3915
tp3916
Rp3917
sL1314L
g8
((lp3918
tp3919
Rp3920
sL1315L
g8
((lp3921
tp3922
Rp3923
sL1316L
g8
((lp3924
tp3925
Rp3926
sL1317L
g8
((lp3927
tp3928
Rp3929
sL1318L
g8
((lp3930
tp3931
Rp3932
sL1319L
g8
((lp3933
tp3934
Rp3935
sL1320L
g8
((lp3936
tp3937
Rp3938
sL1321L
g8
((lp3939
tp3940
Rp3941
sL1322L
g8
((lp3942
tp3943
Rp3944
sL1323L
g8
((lp3945
tp3946
Rp3947
sL1324L
g8
((lp3948
tp3949
Rp3950
sL1325L
g8
((lp3951
tp3952
Rp3953
sL1326L
g8
((lp3954
tp3955
Rp3956
sL1327L
g8
((lp3957
tp3958
Rp3959
sL1328L
g8
((lp3960
tp3961
Rp3962
sL1329L
g8
((lp3963
tp3964
Rp3965
sL1330L
g8
((lp3966
tp3967
Rp3968
sL1331L
g8
((lp3969
tp3970
Rp3971
sL1332L
g8
((lp3972
tp3973
Rp3974
sL1333L
g8
((lp3975
tp3976
Rp3977
sL1334L
g8
((lp3978
tp3979
Rp3980
sL1335L
g8
((lp3981
tp3982
Rp3983
sL1336L
g8
((lp3984
tp3985
Rp3986
sL1337L
g8
((lp3987
tp3988
Rp3989
sL1338L
g8
((lp3990
tp3991
Rp3992
sL1339L
g8
((lp3993
tp3994
Rp3995
sL1340L
g8
((lp3996
tp3997
Rp3998
sL1341L
g8
((lp3999
tp4000
Rp4001
sL1342L
g8
((lp4002
tp4003
Rp4004
sL1343L
g8
((lp4005
tp4006
Rp4007
sL1344L
g8
((lp4008
tp4009
Rp4010
sL1345L
g8
((lp4011
tp4012
Rp4013
sL1346L
g8
((lp4014
tp4015
Rp4016
sL1347L
g8
((lp4017
tp4018
Rp4019
sL1348L
g8
((lp4020
tp4021
Rp4022
sL1349L
g8
((lp4023
tp4024
Rp4025
sL1350L
g8
((lp4026
tp4027
Rp4028
sL1351L
g8
((lp4029
tp4030
Rp4031
sL1352L
g8
((lp4032
tp4033
Rp4034
sL1353L
g8
((lp4035
tp4036
Rp4037
sL1354L
g8
((lp4038
tp4039
Rp4040
sL1355L
g8
((lp4041
tp4042
Rp4043
sL1356L
g8
((lp4044
tp4045
Rp4046
sL1357L
g8
((lp4047
tp4048
Rp4049
sL1358L
g8
((lp4050
tp4051
Rp4052
sL1359L
g8
((lp4053
tp4054
Rp4055
sL1360L
g8
((lp4056
tp4057
Rp4058
sL1361L
g8
((lp4059
tp4060
Rp4061
sL1362L
g8
((lp4062
tp4063
Rp4064
sL1363L
g8
((lp4065
tp4066
Rp4067
sL1364L
g8
((lp4068
tp4069
Rp4070
sL1365L
g8
((lp4071
tp4072
Rp4073
sL1366L
g8
((lp4074
tp4075
Rp4076
sL1367L
g8
((lp4077
tp4078
Rp4079
sL1368L
g8
((lp4080
tp4081
Rp4082
sL1369L
g8
((lp4083
tp4084
Rp4085
sL1370L
g8
((lp4086
tp4087
Rp4088
sL1371L
g8
((lp4089
tp4090
Rp4091
sL1372L
g8
((lp4092
tp4093
Rp4094
sL1373L
g8
((lp4095
tp4096
Rp4097
sL1374L
g8
((lp4098
tp4099
Rp4100
sL1375L
g8
((lp4101
tp4102
Rp4103
sL1376L
g8
((lp4104
tp4105
Rp4106
sL1377L
g8
((lp4107
L70L
aL1697L
atp4108
Rp4109
sL1378L
g8
((lp4110
tp4111
Rp4112
sL1379L
g8
((lp4113
tp4114
Rp4115
sL1380L
g8
((lp4116
tp4117
Rp4118
sL1381L
g8
((lp4119
tp4120
Rp4121
sL1382L
g8
((lp4122
tp4123
Rp4124
sL1383L
g8
((lp4125
tp4126
Rp4127
sL1384L
g8
((lp4128
tp4129
Rp4130
sL1385L
g8
((lp4131
tp4132
Rp4133
sL1386L
g8
((lp4134
tp4135
Rp4136
sL1387L
g8
((lp4137
tp4138
Rp4139
sL1388L
g8
((lp4140
tp4141
Rp4142
sL1389L
g8
((lp4143
tp4144
Rp4145
sL1390L
g8
((lp4146
tp4147
Rp4148
sL1391L
g8
((lp4149
tp4150
Rp4151
sL1392L
g8
((lp4152
tp4153
Rp4154
sL1393L
g8
((lp4155
tp4156
Rp4157
sL1394L
g8
((lp4158
tp4159
Rp4160
sL1395L
g8
((lp4161
tp4162
Rp4163
sL1396L
g8
((lp4164
L2082L
atp4165
Rp4166
sL1397L
g8
((lp4167
tp4168
Rp4169
sL1398L
g8
((lp4170
tp4171
Rp4172
sL1399L
g8
((lp4173
tp4174
Rp4175
sL1400L
g8
((lp4176
L2001L
atp4177
Rp4178
sL1401L
g8
((lp4179
tp4180
Rp4181
sL1402L
g8
((lp4182
tp4183
Rp4184
sL1403L
g8
((lp4185
L2118L
atp4186
Rp4187
sL1404L
g8
((lp4188
tp4189
Rp4190
sL1405L
g8
((lp4191
tp4192
Rp4193
sL1406L
g8
((lp4194
tp4195
Rp4196
sL1407L
g8
((lp4197
tp4198
Rp4199
sL1408L
g8
((lp4200
L1249L
aL2021L
aL1062L
aL1646L
aL754L
atp4201
Rp4202
sL1409L
g8
((lp4203
tp4204
Rp4205
sL1410L
g8
((lp4206
tp4207
Rp4208
sL1411L
g8
((lp4209
tp4210
Rp4211
sL1412L
g8
((lp4212
L2305L
aL2306L
aL2307L
aL1413L
atp4213
Rp4214
sL1413L
g8
((lp4215
L2305L
aL2306L
aL2307L
aL1412L
atp4216
Rp4217
sL1414L
g8
((lp4218
tp4219
Rp4220
sL1415L
g8
((lp4221
tp4222
Rp4223
sL1416L
g8
((lp4224
tp4225
Rp4226
sL1417L
g8
((lp4227
tp4228
Rp4229
sL1418L
g8
((lp4230
tp4231
Rp4232
sL1419L
g8
((lp4233
tp4234
Rp4235
sL1420L
g8
((lp4236
tp4237
Rp4238
sL1421L
g8
((lp4239
L2352L
aL2353L
aL1261L
atp4240
Rp4241
sL1422L
g8
((lp4242
tp4243
Rp4244
sL1423L
g8
((lp4245
tp4246
Rp4247
sL1424L
g8
((lp4248
tp4249
Rp4250
sL1425L
g8
((lp4251
tp4252
Rp4253
sL1426L
g8
((lp4254
L2022L
aL2023L
aL1427L
aL1881L
aL2202L
atp4255
Rp4256
sL1427L
g8
((lp4257
L2022L
aL2023L
aL1426L
aL1881L
aL2202L
atp4258
Rp4259
sL1428L
g8
((lp4260
tp4261
Rp4262
sL1429L
g8
((lp4263
tp4264
Rp4265
sL1430L
g8
((lp4266
tp4267
Rp4268
sL1431L
g8
((lp4269
L1849L
aL2226L
aL1851L
aL1852L
atp4270
Rp4271
sL1432L
g8
((lp4272
L1981L
atp4273
Rp4274
sL1433L
g8
((lp4275
tp4276
Rp4277
sL1434L
g8
((lp4278
tp4279
Rp4280
sL1435L
g8
((lp4281
tp4282
Rp4283
sL1436L
g8
((lp4284
tp4285
Rp4286
sL1437L
g8
((lp4287
tp4288
Rp4289
sL1438L
g8
((lp4290
tp4291
Rp4292
sL1439L
g8
((lp4293
tp4294
Rp4295
sL1440L
g8
((lp4296
L2209L
aL2210L
atp4297
Rp4298
sL1441L
g8
((lp4299
tp4300
Rp4301
sL1442L
g8
((lp4302
tp4303
Rp4304
sL1443L
g8
((lp4305
tp4306
Rp4307
sL1444L
g8
((lp4308
tp4309
Rp4310
sL1445L
g8
((lp4311
tp4312
Rp4313
sL1446L
g8
((lp4314
tp4315
Rp4316
sL1447L
g8
((lp4317
tp4318
Rp4319
sL1448L
g8
((lp4320
tp4321
Rp4322
sL1449L
g8
((lp4323
tp4324
Rp4325
sL1450L
g8
((lp4326
tp4327
Rp4328
sL1451L
g8
((lp4329
tp4330
Rp4331
sL1452L
g8
((lp4332
L2368L
aL2220L
atp4333
Rp4334
sL1453L
g8
((lp4335
L2080L
aL2275L
atp4336
Rp4337
sL1454L
g8
((lp4338
tp4339
Rp4340
sL1455L
g8
((lp4341
tp4342
Rp4343
sL1456L
g8
((lp4344
tp4345
Rp4346
sL1457L
g8
((lp4347
tp4348
Rp4349
sL1458L
g8
((lp4350
tp4351
Rp4352
sL1459L
g8
((lp4353
tp4354
Rp4355
sL1460L
g8
((lp4356
tp4357
Rp4358
sL1461L
g8
((lp4359
tp4360
Rp4361
sL1462L
g8
((lp4362
tp4363
Rp4364
sL1463L
g8
((lp4365
tp4366
Rp4367
sL1464L
g8
((lp4368
tp4369
Rp4370
sL1465L
g8
((lp4371
tp4372
Rp4373
sL1466L
g8
((lp4374
tp4375
Rp4376
sL1467L
g8
((lp4377
tp4378
Rp4379
sL1468L
g8
((lp4380
tp4381
Rp4382
sL1469L
g8
((lp4383
tp4384
Rp4385
sL1470L
g8
((lp4386
L145L
atp4387
Rp4388
sL1471L
g8
((lp4389
tp4390
Rp4391
sL1472L
g8
((lp4392
tp4393
Rp4394
sL1473L
g8
((lp4395
tp4396
Rp4397
sL1474L
g8
((lp4398
tp4399
Rp4400
sL1475L
g8
((lp4401
tp4402
Rp4403
sL1477L
g8
((lp4404
tp4405
Rp4406
sL1478L
g8
((lp4407
tp4408
Rp4409
sL1479L
g8
((lp4410
tp4411
Rp4412
sL1480L
g8
((lp4413
tp4414
Rp4415
sL1481L
g8
((lp4416
tp4417
Rp4418
sL1482L
g8
((lp4419
tp4420
Rp4421
sL1483L
g8
((lp4422
L23L
atp4423
Rp4424
sL1484L
g8
((lp4425
tp4426
Rp4427
sL1485L
g8
((lp4428
tp4429
Rp4430
sL1486L
g8
((lp4431
L2154L
aL1091L
atp4432
Rp4433
sL1487L
g8
((lp4434
tp4435
Rp4436
sL1488L
g8
((lp4437
tp4438
Rp4439
sL1489L
g8
((lp4440
tp4441
Rp4442
sL1490L
g8
((lp4443
tp4444
Rp4445
sL1491L
g8
((lp4446
L2357L
atp4447
Rp4448
sL1492L
g8
((lp4449
tp4450
Rp4451
sL1493L
g8
((lp4452
tp4453
Rp4454
sL1494L
g8
((lp4455
tp4456
Rp4457
sL1495L
g8
((lp4458
tp4459
Rp4460
sL1496L
g8
((lp4461
L1674L
aL1675L
aL1676L
atp4462
Rp4463
sL1497L
g8
((lp4464
tp4465
Rp4466
sL1498L
g8
((lp4467
tp4468
Rp4469
sL1499L
g8
((lp4470
tp4471
Rp4472
sL1500L
g8
((lp4473
tp4474
Rp4475
sL1501L
g8
((lp4476
tp4477
Rp4478
sL1502L
g8
((lp4479
tp4480
Rp4481
sL1503L
g8
((lp4482
tp4483
Rp4484
sL1504L
g8
((lp4485
tp4486
Rp4487
sL1505L
g8
((lp4488
tp4489
Rp4490
sL1506L
g8
((lp4491
L2122L
atp4492
Rp4493
sL1507L
g8
((lp4494
tp4495
Rp4496
sL1508L
g8
((lp4497
tp4498
Rp4499
sL1509L
g8
((lp4500
tp4501
Rp4502
sL1510L
g8
((lp4503
tp4504
Rp4505
sL1511L
g8
((lp4506
L304L
aL145L
aL2094L
atp4507
Rp4508
sL1512L
g8
((lp4509
tp4510
Rp4511
sL1513L
g8
((lp4512
tp4513
Rp4514
sL1514L
g8
((lp4515
tp4516
Rp4517
sL1515L
g8
((lp4518
tp4519
Rp4520
sL1516L
g8
((lp4521
tp4522
Rp4523
sL1517L
g8
((lp4524
tp4525
Rp4526
sL1518L
g8
((lp4527
tp4528
Rp4529
sL1519L
g8
((lp4530
tp4531
Rp4532
sL1520L
g8
((lp4533
tp4534
Rp4535
sL1521L
g8
((lp4536
tp4537
Rp4538
sL1522L
g8
((lp4539
tp4540
Rp4541
sL1523L
g8
((lp4542
tp4543
Rp4544
sL1524L
g8
((lp4545
tp4546
Rp4547
sL1525L
g8
((lp4548
tp4549
Rp4550
sL1526L
g8
((lp4551
tp4552
Rp4553
sL1527L
g8
((lp4554
tp4555
Rp4556
sL1528L
g8
((lp4557
tp4558
Rp4559
sL1529L
g8
((lp4560
tp4561
Rp4562
sL1530L
g8
((lp4563
tp4564
Rp4565
sL1531L
g8
((lp4566
tp4567
Rp4568
sL1532L
g8
((lp4569
tp4570
Rp4571
sL1533L
g8
((lp4572
tp4573
Rp4574
sL1534L
g8
((lp4575
tp4576
Rp4577
sL1535L
g8
((lp4578
tp4579
Rp4580
sL1536L
g8
((lp4581
tp4582
Rp4583
sL1537L
g8
((lp4584
tp4585
Rp4586
sL1538L
g8
((lp4587
tp4588
Rp4589
sL1539L
g8
((lp4590
tp4591
Rp4592
sL1540L
g8
((lp4593
tp4594
Rp4595
sL1541L
g8
((lp4596
tp4597
Rp4598
sL1542L
g8
((lp4599
L2004L
aL2005L
aL2006L
aL2007L
aL2008L
aL2009L
aL2201L
aL61L
aL85L
atp4600
Rp4601
sL1543L
g8
((lp4602
tp4603
Rp4604
sL1544L
g8
((lp4605
tp4606
Rp4607
sL1545L
g8
((lp4608
tp4609
Rp4610
sL1546L
g8
((lp4611
tp4612
Rp4613
sL1547L
g8
((lp4614
tp4615
Rp4616
sL1548L
g8
((lp4617
tp4618
Rp4619
sL1549L
g8
((lp4620
tp4621
Rp4622
sL1550L
g8
((lp4623
tp4624
Rp4625
sL1551L
g8
((lp4626
tp4627
Rp4628
sL1552L
g8
((lp4629
tp4630
Rp4631
sL1553L
g8
((lp4632
tp4633
Rp4634
sL1554L
g8
((lp4635
tp4636
Rp4637
sL1555L
g8
((lp4638
L2161L
aL2186L
aL2135L
atp4639
Rp4640
sL1556L
g8
((lp4641
tp4642
Rp4643
sL1557L
g8
((lp4644
tp4645
Rp4646
sL1558L
g8
((lp4647
tp4648
Rp4649
sL1559L
g8
((lp4650
L61L
atp4651
Rp4652
sL1560L
g8
((lp4653
tp4654
Rp4655
sL1561L
g8
((lp4656
tp4657
Rp4658
sL1562L
g8
((lp4659
tp4660
Rp4661
sL1563L
g8
((lp4662
L2112L
atp4663
Rp4664
sL1564L
g8
((lp4665
tp4666
Rp4667
sL1565L
g8
((lp4668
tp4669
Rp4670
sL1566L
g8
((lp4671
tp4672
Rp4673
sL1567L
g8
((lp4674
tp4675
Rp4676
sL1568L
g8
((lp4677
tp4678
Rp4679
sL1569L
g8
((lp4680
tp4681
Rp4682
sL1570L
g8
((lp4683
tp4684
Rp4685
sL1571L
g8
((lp4686
tp4687
Rp4688
sL1572L
g8
((lp4689
tp4690
Rp4691
sL1573L
g8
((lp4692
tp4693
Rp4694
sL1574L
g8
((lp4695
tp4696
Rp4697
sL1575L
g8
((lp4698
L2355L
aL2356L
atp4699
Rp4700
sL1576L
g8
((lp4701
tp4702
Rp4703
sL1577L
g8
((lp4704
tp4705
Rp4706
sL1578L
g8
((lp4707
L2041L
aL2042L
aL2043L
aL2044L
atp4708
Rp4709
sL1579L
g8
((lp4710
tp4711
Rp4712
sL1580L
g8
((lp4713
tp4714
Rp4715
sL1581L
g8
((lp4716
tp4717
Rp4718
sL1582L
g8
((lp4719
tp4720
Rp4721
sL1583L
g8
((lp4722
tp4723
Rp4724
sL1584L
g8
((lp4725
tp4726
Rp4727
sL1585L
g8
((lp4728
tp4729
Rp4730
sL1586L
g8
((lp4731
tp4732
Rp4733
sL1587L
g8
((lp4734
tp4735
Rp4736
sL1588L
g8
((lp4737
L2369L
atp4738
Rp4739
sL1589L
g8
((lp4740
L160L
aL1049L
aL159L
atp4741
Rp4742
sL1590L
g8
((lp4743
tp4744
Rp4745
sL1591L
g8
((lp4746
tp4747
Rp4748
sL1592L
g8
((lp4749
tp4750
Rp4751
sL1593L
g8
((lp4752
tp4753
Rp4754
sL1594L
g8
((lp4755
tp4756
Rp4757
sL1595L
g8
((lp4758
tp4759
Rp4760
sL1596L
g8
((lp4761
tp4762
Rp4763
sL1597L
g8
((lp4764
tp4765
Rp4766
sL1598L
g8
((lp4767
tp4768
Rp4769
sL1599L
g8
((lp4770
tp4771
Rp4772
sL1600L
g8
((lp4773
tp4774
Rp4775
sL1601L
g8
((lp4776
tp4777
Rp4778
sL1602L
g8
((lp4779
tp4780
Rp4781
sL1603L
g8
((lp4782
tp4783
Rp4784
sL1604L
g8
((lp4785
tp4786
Rp4787
sL1605L
g8
((lp4788
tp4789
Rp4790
sL1606L
g8
((lp4791
tp4792
Rp4793
sL1607L
g8
((lp4794
tp4795
Rp4796
sL1608L
g8
((lp4797
L2114L
aL2118L
atp4798
Rp4799
sL1609L
g8
((lp4800
tp4801
Rp4802
sL1610L
g8
((lp4803
tp4804
Rp4805
sL1611L
g8
((lp4806
tp4807
Rp4808
sL1612L
g8
((lp4809
tp4810
Rp4811
sL1613L
g8
((lp4812
tp4813
Rp4814
sL1614L
g8
((lp4815
tp4816
Rp4817
sL1615L
g8
((lp4818
tp4819
Rp4820
sL1616L
g8
((lp4821
tp4822
Rp4823
sL1617L
g8
((lp4824
tp4825
Rp4826
sL1618L
g8
((lp4827
tp4828
Rp4829
sL1619L
g8
((lp4830
tp4831
Rp4832
sL1620L
g8
((lp4833
tp4834
Rp4835
sL1621L
g8
((lp4836
tp4837
Rp4838
sL1622L
g8
((lp4839
tp4840
Rp4841
sL1623L
g8
((lp4842
tp4843
Rp4844
sL1624L
g8
((lp4845
tp4846
Rp4847
sL1625L
g8
((lp4848
L340L
aL2012L
atp4849
Rp4850
sL1626L
g8
((lp4851
tp4852
Rp4853
sL1627L
g8
((lp4854
tp4855
Rp4856
sL1629L
g8
((lp4857
tp4858
Rp4859
sL1630L
g8
((lp4860
tp4861
Rp4862
sL1631L
g8
((lp4863
tp4864
Rp4865
sL1632L
g8
((lp4866
tp4867
Rp4868
sL1633L
g8
((lp4869
tp4870
Rp4871
sL1634L
g8
((lp4872
tp4873
Rp4874
sL1635L
g8
((lp4875
tp4876
Rp4877
sL1636L
g8
((lp4878
tp4879
Rp4880
sL1637L
g8
((lp4881
tp4882
Rp4883
sL1638L
g8
((lp4884
L2093L
atp4885
Rp4886
sL1639L
g8
((lp4887
tp4888
Rp4889
sL1640L
g8
((lp4890
tp4891
Rp4892
sL1641L
g8
((lp4893
tp4894
Rp4895
sL1642L
g8
((lp4896
tp4897
Rp4898
sL1643L
g8
((lp4899
tp4900
Rp4901
sL1644L
g8
((lp4902
tp4903
Rp4904
sL1645L
g8
((lp4905
tp4906
Rp4907
sL1646L
g8
((lp4908
L1408L
aL1249L
aL2021L
aL1062L
aL754L
atp4909
Rp4910
sL1647L
g8
((lp4911
tp4912
Rp4913
sL1648L
g8
((lp4914
tp4915
Rp4916
sL1649L
g8
((lp4917
tp4918
Rp4919
sL1650L
g8
((lp4920
tp4921
Rp4922
sL1651L
g8
((lp4923
tp4924
Rp4925
sL1652L
g8
((lp4926
tp4927
Rp4928
sL1653L
g8
((lp4929
tp4930
Rp4931
sL1654L
g8
((lp4932
tp4933
Rp4934
sL1655L
g8
((lp4935
tp4936
Rp4937
sL1656L
g8
((lp4938
tp4939
Rp4940
sL1657L
g8
((lp4941
tp4942
Rp4943
sL1658L
g8
((lp4944
tp4945
Rp4946
sL1659L
g8
((lp4947
tp4948
Rp4949
sL1660L
g8
((lp4950
tp4951
Rp4952
sL1661L
g8
((lp4953
tp4954
Rp4955
sL1662L
g8
((lp4956
L298L
aL43L
atp4957
Rp4958
sL1663L
g8
((lp4959
tp4960
Rp4961
sL1664L
g8
((lp4962
tp4963
Rp4964
sL1665L
g8
((lp4965
tp4966
Rp4967
sL1666L
g8
((lp4968
tp4969
Rp4970
sL1667L
g8
((lp4971
tp4972
Rp4973
sL1668L
g8
((lp4974
tp4975
Rp4976
sL1669L
g8
((lp4977
tp4978
Rp4979
sL1670L
g8
((lp4980
tp4981
Rp4982
sL1671L
g8
((lp4983
tp4984
Rp4985
sL1672L
g8
((lp4986
tp4987
Rp4988
sL1673L
g8
((lp4989
tp4990
Rp4991
sL1674L
g8
((lp4992
L1496L
aL1675L
aL1676L
aL2045L
atp4993
Rp4994
sL1675L
g8
((lp4995
L1496L
aL1674L
aL1676L
atp4996
Rp4997
sL1676L
g8
((lp4998
L1496L
aL1674L
aL1675L
atp4999
Rp5000
sL1677L
g8
((lp5001
tp5002
Rp5003
sL1678L
g8
((lp5004
tp5005
Rp5006
sL1679L
g8
((lp5007
tp5008
Rp5009
sL1680L
g8
((lp5010
tp5011
Rp5012
sL1681L
g8
((lp5013
tp5014
Rp5015
sL1682L
g8
((lp5016
tp5017
Rp5018
sL1683L
g8
((lp5019
tp5020
Rp5021
sL1684L
g8
((lp5022
tp5023
Rp5024
sL1685L
g8
((lp5025
L70L
atp5026
Rp5027
sL1686L
g8
((lp5028
tp5029
Rp5030
sL1687L
g8
((lp5031
tp5032
Rp5033
sL1688L
g8
((lp5034
tp5035
Rp5036
sL1689L
g8
((lp5037
tp5038
Rp5039
sL1690L
g8
((lp5040
tp5041
Rp5042
sL1691L
g8
((lp5043
tp5044
Rp5045
sL1692L
g8
((lp5046
L1715L
atp5047
Rp5048
sL1693L
g8
((lp5049
tp5050
Rp5051
sL1694L
g8
((lp5052
tp5053
Rp5054
sL1695L
g8
((lp5055
tp5056
Rp5057
sL1696L
g8
((lp5058
tp5059
Rp5060
sL1697L
g8
((lp5061
L1377L
aL70L
atp5062
Rp5063
sL1698L
g8
((lp5064
tp5065
Rp5066
sL1699L
g8
((lp5067
tp5068
Rp5069
sL1700L
g8
((lp5070
tp5071
Rp5072
sL1701L
g8
((lp5073
L2099L
aL1702L
atp5074
Rp5075
sL1702L
g8
((lp5076
L2099L
aL1701L
atp5077
Rp5078
sL1703L
g8
((lp5079
tp5080
Rp5081
sL1704L
g8
((lp5082
tp5083
Rp5084
sL1705L
g8
((lp5085
tp5086
Rp5087
sL1706L
g8
((lp5088
tp5089
Rp5090
sL1707L
g8
((lp5091
tp5092
Rp5093
sL1708L
g8
((lp5094
tp5095
Rp5096
sL1709L
g8
((lp5097
tp5098
Rp5099
sL1710L
g8
((lp5100
tp5101
Rp5102
sL1711L
g8
((lp5103
tp5104
Rp5105
sL1712L
g8
((lp5106
tp5107
Rp5108
sL1713L
g8
((lp5109
tp5110
Rp5111
sL1714L
g8
((lp5112
L2115L
aL2114L
atp5113
Rp5114
sL1715L
g8
((lp5115
L1692L
aL2055L
atp5116
Rp5117
sL1716L
g8
((lp5118
tp5119
Rp5120
sL1717L
g8
((lp5121
L5L
atp5122
Rp5123
sL1718L
g8
((lp5124
tp5125
Rp5126
sL1719L
g8
((lp5127
tp5128
Rp5129
sL1720L
g8
((lp5130
tp5131
Rp5132
sL1721L
g8
((lp5133
tp5134
Rp5135
sL1722L
g8
((lp5136
tp5137
Rp5138
sL1723L
g8
((lp5139
tp5140
Rp5141
sL1724L
g8
((lp5142
tp5143
Rp5144
sL1725L
g8
((lp5145
tp5146
Rp5147
sL1726L
g8
((lp5148
tp5149
Rp5150
sL1727L
g8
((lp5151
tp5152
Rp5153
sL1728L
g8
((lp5154
tp5155
Rp5156
sL1729L
g8
((lp5157
tp5158
Rp5159
sL1730L
g8
((lp5160
tp5161
Rp5162
sL1731L
g8
((lp5163
tp5164
Rp5165
sL1732L
g8
((lp5166
tp5167
Rp5168
sL1733L
g8
((lp5169
tp5170
Rp5171
sL1734L
g8
((lp5172
tp5173
Rp5174
sL1735L
g8
((lp5175
tp5176
Rp5177
sL1736L
g8
((lp5178
tp5179
Rp5180
sL1737L
g8
((lp5181
tp5182
Rp5183
sL1738L
g8
((lp5184
tp5185
Rp5186
sL1739L
g8
((lp5187
tp5188
Rp5189
sL1740L
g8
((lp5190
tp5191
Rp5192
sL1741L
g8
((lp5193
tp5194
Rp5195
sL1742L
g8
((lp5196
tp5197
Rp5198
sL1743L
g8
((lp5199
tp5200
Rp5201
sL1744L
g8
((lp5202
tp5203
Rp5204
sL1745L
g8
((lp5205
L936L
aL561L
atp5206
Rp5207
sL1746L
g8
((lp5208
tp5209
Rp5210
sL1747L
g8
((lp5211
tp5212
Rp5213
sL1748L
g8
((lp5214
tp5215
Rp5216
sL1749L
g8
((lp5217
tp5218
Rp5219
sL1750L
g8
((lp5220
tp5221
Rp5222
sL1751L
g8
((lp5223
tp5224
Rp5225
sL1752L
g8
((lp5226
tp5227
Rp5228
sL1753L
g8
((lp5229
tp5230
Rp5231
sL1754L
g8
((lp5232
tp5233
Rp5234
sL1755L
g8
((lp5235
L1756L
aL1757L
aL822L
atp5236
Rp5237
sL1756L
g8
((lp5238
L1755L
aL1757L
aL822L
atp5239
Rp5240
sL1757L
g8
((lp5241
L1755L
aL1756L
aL822L
atp5242
Rp5243
sL1758L
g8
((lp5244
tp5245
Rp5246
sL1759L
g8
((lp5247
tp5248
Rp5249
sL1760L
g8
((lp5250
tp5251
Rp5252
sL1761L
g8
((lp5253
tp5254
Rp5255
sL1762L
g8
((lp5256
tp5257
Rp5258
sL1763L
g8
((lp5259
tp5260
Rp5261
sL1764L
g8
((lp5262
tp5263
Rp5264
sL1765L
g8
((lp5265
tp5266
Rp5267
sL1766L
g8
((lp5268
tp5269
Rp5270
sL1767L
g8
((lp5271
tp5272
Rp5273
sL1768L
g8
((lp5274
tp5275
Rp5276
sL1769L
g8
((lp5277
tp5278
Rp5279
sL1770L
g8
((lp5280
tp5281
Rp5282
sL1771L
g8
((lp5283
tp5284
Rp5285
sL1772L
g8
((lp5286
tp5287
Rp5288
sL1773L
g8
((lp5289
tp5290
Rp5291
sL1774L
g8
((lp5292
tp5293
Rp5294
sL1775L
g8
((lp5295
tp5296
Rp5297
sL1776L
g8
((lp5298
tp5299
Rp5300
sL1777L
g8
((lp5301
tp5302
Rp5303
sL1778L
g8
((lp5304
L1904L
aL185L
atp5305
Rp5306
sL1779L
g8
((lp5307
tp5308
Rp5309
sL1780L
g8
((lp5310
tp5311
Rp5312
sL1781L
g8
((lp5313
tp5314
Rp5315
sL1782L
g8
((lp5316
tp5317
Rp5318
sL1783L
g8
((lp5319
tp5320
Rp5321
sL1784L
g8
((lp5322
tp5323
Rp5324
sL1785L
g8
((lp5325
tp5326
Rp5327
sL1786L
g8
((lp5328
tp5329
Rp5330
sL1787L
g8
((lp5331
tp5332
Rp5333
sL1788L
g8
((lp5334
tp5335
Rp5336
sL1789L
g8
((lp5337
tp5338
Rp5339
sL1790L
g8
((lp5340
tp5341
Rp5342
sL1791L
g8
((lp5343
tp5344
Rp5345
sL1792L
g8
((lp5346
tp5347
Rp5348
sL1793L
g8
((lp5349
tp5350
Rp5351
sL1794L
g8
((lp5352
tp5353
Rp5354
sL1795L
g8
((lp5355
tp5356
Rp5357
sL1796L
g8
((lp5358
tp5359
Rp5360
sL1797L
g8
((lp5361
tp5362
Rp5363
sL1798L
g8
((lp5364
tp5365
Rp5366
sL1799L
g8
((lp5367
tp5368
Rp5369
sL1800L
g8
((lp5370
L771L
aL587L
aL1102L
atp5371
Rp5372
sL1801L
g8
((lp5373
tp5374
Rp5375
sL1802L
g8
((lp5376
tp5377
Rp5378
sL1803L
g8
((lp5379
tp5380
Rp5381
sL1804L
g8
((lp5382
tp5383
Rp5384
sL1805L
g8
((lp5385
tp5386
Rp5387
sL1806L
g8
((lp5388
tp5389
Rp5390
sL1807L
g8
((lp5391
tp5392
Rp5393
sL1808L
g8
((lp5394
tp5395
Rp5396
sL1809L
g8
((lp5397
tp5398
Rp5399
sL1810L
g8
((lp5400
tp5401
Rp5402
sL1811L
g8
((lp5403
tp5404
Rp5405
sL1812L
g8
((lp5406
tp5407
Rp5408
sL1813L
g8
((lp5409
tp5410
Rp5411
sL1814L
g8
((lp5412
tp5413
Rp5414
sL1815L
g8
((lp5415
tp5416
Rp5417
sL1816L
g8
((lp5418
tp5419
Rp5420
sL1817L
g8
((lp5421
tp5422
Rp5423
sL1818L
g8
((lp5424
L185L
aL2002L
aL193L
atp5425
Rp5426
sL1819L
g8
((lp5427
tp5428
Rp5429
sL1820L
g8
((lp5430
tp5431
Rp5432
sL1821L
g8
((lp5433
tp5434
Rp5435
sL1822L
g8
((lp5436
tp5437
Rp5438
sL1823L
g8
((lp5439
tp5440
Rp5441
sL1824L
g8
((lp5442
tp5443
Rp5444
sL1825L
g8
((lp5445
tp5446
Rp5447
sL1826L
g8
((lp5448
tp5449
Rp5450
sL1827L
g8
((lp5451
tp5452
Rp5453
sL1828L
g8
((lp5454
tp5455
Rp5456
sL1829L
g8
((lp5457
tp5458
Rp5459
sL1830L
g8
((lp5460
tp5461
Rp5462
sL1831L
g8
((lp5463
tp5464
Rp5465
sL1832L
g8
((lp5466
tp5467
Rp5468
sL1833L
g8
((lp5469
tp5470
Rp5471
sL1834L
g8
((lp5472
tp5473
Rp5474
sL1835L
g8
((lp5475
L746L
atp5476
Rp5477
sL1836L
g8
((lp5478
L572L
atp5479
Rp5480
sL1837L
g8
((lp5481
tp5482
Rp5483
sL1838L
g8
((lp5484
tp5485
Rp5486
sL1839L
g8
((lp5487
L1255L
aL1253L
aL1254L
atp5488
Rp5489
sL1840L
g8
((lp5490
tp5491
Rp5492
sL1841L
g8
((lp5493
tp5494
Rp5495
sL1842L
g8
((lp5496
tp5497
Rp5498
sL1843L
g8
((lp5499
tp5500
Rp5501
sL1844L
g8
((lp5502
tp5503
Rp5504
sL1845L
g8
((lp5505
L2195L
aL2196L
atp5506
Rp5507
sL1846L
g8
((lp5508
tp5509
Rp5510
sL1847L
g8
((lp5511
L162L
aL1988L
atp5512
Rp5513
sL1848L
g8
((lp5514
tp5515
Rp5516
sL1849L
g8
((lp5517
L2226L
aL1851L
aL1852L
aL1431L
atp5518
Rp5519
sL1850L
g8
((lp5520
tp5521
Rp5522
sL1851L
g8
((lp5523
L1849L
aL2226L
aL1852L
aL1431L
atp5524
Rp5525
sL1852L
g8
((lp5526
L1849L
aL2226L
aL1851L
aL1431L
atp5527
Rp5528
sL1853L
g8
((lp5529
tp5530
Rp5531
sL1854L
g8
((lp5532
L2185L
aL295L
atp5533
Rp5534
sL1855L
g8
((lp5535
tp5536
Rp5537
sL1856L
g8
((lp5538
L1857L
aL2077L
aL2078L
atp5539
Rp5540
sL1857L
g8
((lp5541
L1856L
aL2077L
aL2078L
atp5542
Rp5543
sL1858L
g8
((lp5544
tp5545
Rp5546
sL1859L
g8
((lp5547
tp5548
Rp5549
sL1860L
g8
((lp5550
tp5551
Rp5552
sL1861L
g8
((lp5553
tp5554
Rp5555
sL1862L
g8
((lp5556
tp5557
Rp5558
sL1863L
g8
((lp5559
tp5560
Rp5561
sL1864L
g8
((lp5562
tp5563
Rp5564
sL1865L
g8
((lp5565
tp5566
Rp5567
sL1866L
g8
((lp5568
tp5569
Rp5570
sL1867L
g8
((lp5571
tp5572
Rp5573
sL1868L
g8
((lp5574
tp5575
Rp5576
sL1869L
g8
((lp5577
tp5578
Rp5579
sL1870L
g8
((lp5580
tp5581
Rp5582
sL1871L
g8
((lp5583
tp5584
Rp5585
sL1872L
g8
((lp5586
tp5587
Rp5588
sL1873L
g8
((lp5589
tp5590
Rp5591
sL1874L
g8
((lp5592
L2336L
aL2337L
atp5593
Rp5594
sL1875L
g8
((lp5595
tp5596
Rp5597
sL1876L
g8
((lp5598
tp5599
Rp5600
sL1877L
g8
((lp5601
tp5602
Rp5603
sL1878L
g8
((lp5604
tp5605
Rp5606
sL1879L
g8
((lp5607
tp5608
Rp5609
sL1880L
g8
((lp5610
tp5611
Rp5612
sL1881L
g8
((lp5613
L1426L
aL1427L
aL2022L
aL2023L
atp5614
Rp5615
sL1882L
g8
((lp5616
tp5617
Rp5618
sL1883L
g8
((lp5619
tp5620
Rp5621
sL1884L
g8
((lp5622
tp5623
Rp5624
sL1885L
g8
((lp5625
L1886L
atp5626
Rp5627
sL1886L
g8
((lp5628
L1885L
atp5629
Rp5630
sL1887L
g8
((lp5631
tp5632
Rp5633
sL1888L
g8
((lp5634
tp5635
Rp5636
sL1889L
g8
((lp5637
L1890L
aL1892L
aL2090L
aL2089L
atp5638
Rp5639
sL1890L
g8
((lp5640
L1889L
aL1892L
aL2090L
aL2089L
atp5641
Rp5642
sL1891L
g8
((lp5643
tp5644
Rp5645
sL1892L
g8
((lp5646
L1889L
aL1890L
aL2090L
aL2089L
atp5647
Rp5648
sL1893L
g8
((lp5649
tp5650
Rp5651
sL1894L
g8
((lp5652
tp5653
Rp5654
sL1895L
g8
((lp5655
tp5656
Rp5657
sL1896L
g8
((lp5658
tp5659
Rp5660
sL1897L
g8
((lp5661
tp5662
Rp5663
sL1898L
g8
((lp5664
tp5665
Rp5666
sL1899L
g8
((lp5667
tp5668
Rp5669
sL1900L
g8
((lp5670
L107L
aL955L
aL1967L
atp5671
Rp5672
sL1901L
g8
((lp5673
tp5674
Rp5675
sL1902L
g8
((lp5676
tp5677
Rp5678
sL1903L
g8
((lp5679
tp5680
Rp5681
sL1904L
g8
((lp5682
L2026L
aL2027L
aL1778L
aL2070L
aL185L
aL254L
atp5683
Rp5684
sL1905L
g8
((lp5685
tp5686
Rp5687
sL1906L
g8
((lp5688
L2020L
atp5689
Rp5690
sL1907L
g8
((lp5691
tp5692
Rp5693
sL1908L
g8
((lp5694
tp5695
Rp5696
sL1909L
g8
((lp5697
tp5698
Rp5699
sL1910L
g8
((lp5700
tp5701
Rp5702
sL1911L
g8
((lp5703
tp5704
Rp5705
sL1912L
g8
((lp5706
tp5707
Rp5708
sL1913L
g8
((lp5709
tp5710
Rp5711
sL1914L
g8
((lp5712
tp5713
Rp5714
sL1915L
g8
((lp5715
tp5716
Rp5717
sL1916L
g8
((lp5718
tp5719
Rp5720
sL1917L
g8
((lp5721
tp5722
Rp5723
sL1918L
g8
((lp5724
tp5725
Rp5726
sL1919L
g8
((lp5727
tp5728
Rp5729
sL1920L
g8
((lp5730
tp5731
Rp5732
sL1921L
g8
((lp5733
tp5734
Rp5735
sL1922L
g8
((lp5736
L572L
aL2278L
atp5737
Rp5738
sL1923L
g8
((lp5739
tp5740
Rp5741
sL1924L
g8
((lp5742
tp5743
Rp5744
sL1925L
g8
((lp5745
tp5746
Rp5747
sL1926L
g8
((lp5748
L185L
aL2354L
aL1927L
atp5749
Rp5750
sL1927L
g8
((lp5751
L185L
aL2354L
aL1926L
atp5752
Rp5753
sL1928L
g8
((lp5754
tp5755
Rp5756
sL1929L
g8
((lp5757
tp5758
Rp5759
sL1930L
g8
((lp5760
tp5761
Rp5762
sL1931L
g8
((lp5763
tp5764
Rp5765
sL1932L
g8
((lp5766
tp5767
Rp5768
sL1933L
g8
((lp5769
tp5770
Rp5771
sL1934L
g8
((lp5772
tp5773
Rp5774
sL1935L
g8
((lp5775
tp5776
Rp5777
sL1936L
g8
((lp5778
tp5779
Rp5780
sL1937L
g8
((lp5781
tp5782
Rp5783
sL1938L
g8
((lp5784
tp5785
Rp5786
sL1939L
g8
((lp5787
tp5788
Rp5789
sL1940L
g8
((lp5790
L2204L
aL2203L
atp5791
Rp5792
sL1941L
g8
((lp5793
tp5794
Rp5795
sL1942L
g8
((lp5796
tp5797
Rp5798
sL1943L
g8
((lp5799
tp5800
Rp5801
sL1944L
g8
((lp5802
tp5803
Rp5804
sL1945L
g8
((lp5805
tp5806
Rp5807
sL1946L
g8
((lp5808
tp5809
Rp5810
sL1947L
g8
((lp5811
tp5812
Rp5813
sL1948L
g8
((lp5814
tp5815
Rp5816
sL1949L
g8
((lp5817
tp5818
Rp5819
sL1950L
g8
((lp5820
L572L
aL2063L
atp5821
Rp5822
sL1951L
g8
((lp5823
tp5824
Rp5825
sL1952L
g8
((lp5826
tp5827
Rp5828
sL1953L
g8
((lp5829
tp5830
Rp5831
sL1954L
g8
((lp5832
tp5833
Rp5834
sL1955L
g8
((lp5835
tp5836
Rp5837
sL1956L
g8
((lp5838
tp5839
Rp5840
sL1957L
g8
((lp5841
L48L
aL136L
atp5842
Rp5843
sL1958L
g8
((lp5844
tp5845
Rp5846
sL1959L
g8
((lp5847
tp5848
Rp5849
sL1960L
g8
((lp5850
tp5851
Rp5852
sL1961L
g8
((lp5853
tp5854
Rp5855
sL1962L
g8
((lp5856
tp5857
Rp5858
sL1963L
g8
((lp5859
L2276L
aL2277L
atp5860
Rp5861
sL1964L
g8
((lp5862
tp5863
Rp5864
sL1965L
g8
((lp5865
tp5866
Rp5867
sL1966L
g8
((lp5868
tp5869
Rp5870
sL1967L
g8
((lp5871
L107L
aL1900L
aL955L
atp5872
Rp5873
sL1968L
g8
((lp5874
tp5875
Rp5876
sL1969L
g8
((lp5877
tp5878
Rp5879
sL1970L
g8
((lp5880
tp5881
Rp5882
sL1971L
g8
((lp5883
tp5884
Rp5885
sL1972L
g8
((lp5886
tp5887
Rp5888
sL1973L
g8
((lp5889
L107L
aL319L
atp5890
Rp5891
sL1974L
g8
((lp5892
tp5893
Rp5894
sL1975L
g8
((lp5895
tp5896
Rp5897
sL1976L
g8
((lp5898
tp5899
Rp5900
sL1977L
g8
((lp5901
tp5902
Rp5903
sL1978L
g8
((lp5904
tp5905
Rp5906
sL1979L
g8
((lp5907
L136L
aL2091L
atp5908
Rp5909
sL1980L
g8
((lp5910
tp5911
Rp5912
sL1981L
g8
((lp5913
L1432L
atp5914
Rp5915
sL1982L
g8
((lp5916
tp5917
Rp5918
sL1983L
g8
((lp5919
tp5920
Rp5921
sL1984L
g8
((lp5922
tp5923
Rp5924
sL1985L
g8
((lp5925
tp5926
Rp5927
sL1986L
g8
((lp5928
tp5929
Rp5930
sL1987L
g8
((lp5931
tp5932
Rp5933
sL1988L
g8
((lp5934
L162L
aL1847L
atp5935
Rp5936
sL1989L
g8
((lp5937
tp5938
Rp5939
sL1990L
g8
((lp5940
tp5941
Rp5942
sL1991L
g8
((lp5943
tp5944
Rp5945
sL1992L
g8
((lp5946
tp5947
Rp5948
sL1993L
g8
((lp5949
tp5950
Rp5951
sL1994L
g8
((lp5952
tp5953
Rp5954
sL1995L
g8
((lp5955
tp5956
Rp5957
sL1996L
g8
((lp5958
tp5959
Rp5960
sL1997L
g8
((lp5961
tp5962
Rp5963
sL1998L
g8
((lp5964
tp5965
Rp5966
sL1999L
g8
((lp5967
tp5968
Rp5969
sL2000L
g8
((lp5970
L673L
atp5971
Rp5972
sL2001L
g8
((lp5973
L1400L
atp5974
Rp5975
sL2002L
g8
((lp5976
L185L
aL1818L
aL193L
atp5977
Rp5978
sL2003L
g8
((lp5979
L822L
aL111L
atp5980
Rp5981
sL2004L
g8
((lp5982
L1542L
aL2005L
aL2006L
aL2007L
aL2008L
aL2009L
aL61L
atp5983
Rp5984
sL2005L
g8
((lp5985
L1542L
aL2004L
aL2006L
aL2007L
aL2008L
aL2009L
aL61L
atp5986
Rp5987
sL2006L
g8
((lp5988
L1542L
aL2004L
aL2005L
aL2007L
aL2008L
aL2009L
aL61L
atp5989
Rp5990
sL2007L
g8
((lp5991
L1542L
aL2004L
aL2005L
aL2006L
aL2008L
aL2009L
aL61L
atp5992
Rp5993
sL2008L
g8
((lp5994
L1542L
aL2004L
aL2005L
aL2006L
aL2007L
aL2009L
aL61L
atp5995
Rp5996
sL2009L
g8
((lp5997
L1542L
aL2004L
aL2005L
aL2006L
aL2007L
aL2008L
aL61L
atp5998
Rp5999
sL2010L
g8
((lp6000
L5L
atp6001
Rp6002
sL2011L
g8
((lp6003
L523L
atp6004
Rp6005
sL2012L
g8
((lp6006
L1625L
aL340L
atp6007
Rp6008
sL2013L
g8
((lp6009
L12L
aL2014L
atp6010
Rp6011
sL2014L
g8
((lp6012
L12L
aL2013L
atp6013
Rp6014
sL2015L
g8
((lp6015
L2016L
aL2017L
aL764L
atp6016
Rp6017
sL2016L
g8
((lp6018
L2017L
aL764L
aL2015L
atp6019
Rp6020
sL2017L
g8
((lp6021
L2016L
aL764L
aL2015L
atp6022
Rp6023
sL2018L
g8
((lp6024
L2019L
atp6025
Rp6026
sL2019L
g8
((lp6027
L2018L
atp6028
Rp6029
sL2020L
g8
((lp6030
L1906L
atp6031
Rp6032
sL2021L
g8
((lp6033
L1408L
aL1249L
aL1646L
atp6034
Rp6035
sL2022L
g8
((lp6036
L1881L
aL1426L
aL1427L
aL2023L
atp6037
Rp6038
sL2023L
g8
((lp6039
L1881L
aL1426L
aL1427L
aL2022L
atp6040
Rp6041
sL2024L
g8
((lp6042
L49L
aL1206L
atp6043
Rp6044
sL2025L
g8
((lp6045
L61L
atp6046
Rp6047
sL2026L
g8
((lp6048
L1904L
aL2027L
atp6049
Rp6050
sL2027L
g8
((lp6051
L1904L
aL2026L
atp6052
Rp6053
sL2028L
g8
((lp6054
L1013L
aL310L
atp6055
Rp6056
sL2029L
g8
((lp6057
L43L
aL2030L
aL2031L
atp6058
Rp6059
sL2030L
g8
((lp6060
L43L
aL2029L
aL2031L
aL2291L
aL2300L
atp6061
Rp6062
sL2031L
g8
((lp6063
L43L
aL2029L
aL2030L
atp6064
Rp6065
sL2032L
g8
((lp6066
L2033L
aL2034L
atp6067
Rp6068
sL2033L
g8
((lp6069
L2032L
aL2034L
atp6070
Rp6071
sL2034L
g8
((lp6072
L2032L
aL2033L
atp6073
Rp6074
sL2035L
g8
((lp6075
tp6076
Rp6077
sL2036L
g8
((lp6078
L2037L
aL2038L
atp6079
Rp6080
sL2037L
g8
((lp6081
L2036L
aL2038L
atp6082
Rp6083
sL2038L
g8
((lp6084
L2036L
aL2037L
atp6085
Rp6086
sL2039L
g8
((lp6087
L2040L
atp6088
Rp6089
sL2040L
g8
((lp6090
L2039L
atp6091
Rp6092
sL2041L
g8
((lp6093
L2042L
aL2043L
aL2044L
aL1578L
atp6094
Rp6095
sL2042L
g8
((lp6096
L2041L
aL2043L
aL2044L
aL1578L
atp6097
Rp6098
sL2043L
g8
((lp6099
L2041L
aL2042L
aL2044L
aL1578L
atp6100
Rp6101
sL2044L
g8
((lp6102
L1578L
aL2164L
aL2041L
aL2042L
aL2043L
atp6103
Rp6104
sL2045L
g8
((lp6105
L1674L
atp6106
Rp6107
sL2046L
g8
((lp6108
L2048L
aL2047L
atp6109
Rp6110
sL2047L
g8
((lp6111
L2048L
aL2046L
atp6112
Rp6113
sL2048L
g8
((lp6114
L2046L
aL2047L
atp6115
Rp6116
sL2049L
g8
((lp6117
L1160L
aL2050L
atp6118
Rp6119
sL2050L
g8
((lp6120
L1160L
aL2049L
atp6121
Rp6122
sL2051L
g8
((lp6123
L2052L
aL2053L
aL2054L
atp6124
Rp6125
sL2052L
g8
((lp6126
L2051L
aL2053L
aL2054L
atp6127
Rp6128
sL2053L
g8
((lp6129
L2051L
aL2052L
aL2054L
atp6130
Rp6131
sL2054L
g8
((lp6132
L2051L
aL2052L
aL2053L
atp6133
Rp6134
sL2055L
g8
((lp6135
L1715L
atp6136
Rp6137
sL2056L
g8
((lp6138
L675L
aL2057L
aL2058L
aL693L
aL822L
atp6139
Rp6140
sL2057L
g8
((lp6141
L2056L
aL2058L
aL693L
aL822L
atp6142
Rp6143
sL2058L
g8
((lp6144
L2056L
aL2057L
aL693L
aL822L
atp6145
Rp6146
sL2059L
g8
((lp6147
L2273L
aL2274L
aL2060L
aL2061L
aL2062L
atp6148
Rp6149
sL2060L
g8
((lp6150
L2059L
aL2061L
aL2062L
atp6151
Rp6152
sL2061L
g8
((lp6153
L2059L
aL2060L
aL2062L
atp6154
Rp6155
sL2062L
g8
((lp6156
L2059L
aL2060L
aL2061L
atp6157
Rp6158
sL2063L
g8
((lp6159
L2064L
aL2065L
aL572L
aL1950L
atp6160
Rp6161
sL2064L
g8
((lp6162
L2065L
aL572L
aL2063L
atp6163
Rp6164
sL2065L
g8
((lp6165
L2064L
aL572L
aL2063L
atp6166
Rp6167
sL2066L
g8
((lp6168
L2067L
aL2068L
aL2069L
atp6169
Rp6170
sL2067L
g8
((lp6171
L2066L
aL2068L
aL2069L
atp6172
Rp6173
sL2068L
g8
((lp6174
L2066L
aL2067L
aL2069L
atp6175
Rp6176
sL2069L
g8
((lp6177
L2066L
aL2067L
aL2068L
atp6178
Rp6179
sL2070L
g8
((lp6180
L1904L
atp6181
Rp6182
sL2071L
g8
((lp6183
L2072L
aL145L
atp6184
Rp6185
sL2072L
g8
((lp6186
L145L
aL2071L
atp6187
Rp6188
sL2073L
g8
((lp6189
L914L
aL227L
atp6190
Rp6191
sL2074L
g8
((lp6192
L2224L
aL2075L
aL2076L
atp6193
Rp6194
sL2075L
g8
((lp6195
L2074L
aL2076L
atp6196
Rp6197
sL2076L
g8
((lp6198
L2240L
aL2074L
aL2075L
aL2238L
aL2239L
atp6199
Rp6200
sL2077L
g8
((lp6201
L1856L
aL1857L
aL2078L
atp6202
Rp6203
sL2078L
g8
((lp6204
L1856L
aL1857L
aL2077L
atp6205
Rp6206
sL2079L
g8
((lp6207
L145L
aL300L
atp6208
Rp6209
sL2080L
g8
((lp6210
L1453L
atp6211
Rp6212
sL2081L
g8
((lp6213
L456L
aL12L
aL60L
atp6214
Rp6215
sL2082L
g8
((lp6216
L1396L
atp6217
Rp6218
sL2083L
g8
((lp6219
L193L
atp6220
Rp6221
sL2084L
g8
((lp6222
L2085L
atp6223
Rp6224
sL2085L
g8
((lp6225
L2084L
atp6226
Rp6227
sL2086L
g8
((lp6228
L2088L
aL2087L
atp6229
Rp6230
sL2087L
g8
((lp6231
L2088L
aL2086L
atp6232
Rp6233
sL2088L
g8
((lp6234
L2086L
aL2087L
atp6235
Rp6236
sL2089L
g8
((lp6237
L1889L
aL1890L
aL1892L
aL2090L
atp6238
Rp6239
sL2090L
g8
((lp6240
L1889L
aL1890L
aL1892L
aL2089L
atp6241
Rp6242
sL2091L
g8
((lp6243
L136L
aL1979L
atp6244
Rp6245
sL2092L
g8
((lp6246
L191L
atp6247
Rp6248
sL2093L
g8
((lp6249
L1638L
atp6250
Rp6251
sL2094L
g8
((lp6252
L304L
aL145L
aL1511L
atp6253
Rp6254
sL2095L
g8
((lp6255
L2096L
atp6256
Rp6257
sL2096L
g8
((lp6258
L2095L
atp6259
Rp6260
sL2097L
g8
((lp6261
L2098L
atp6262
Rp6263
sL2098L
g8
((lp6264
L2097L
atp6265
Rp6266
sL2099L
g8
((lp6267
L1701L
aL1702L
atp6268
Rp6269
sL2100L
g8
((lp6270
L2101L
aL2102L
atp6271
Rp6272
sL2101L
g8
((lp6273
L2100L
aL2102L
atp6274
Rp6275
sL2102L
g8
((lp6276
L2100L
aL2101L
atp6277
Rp6278
sL2103L
g8
((lp6279
L2104L
atp6280
Rp6281
sL2104L
g8
((lp6282
L2103L
atp6283
Rp6284
sL2105L
g8
((lp6285
L2106L
aL2107L
aL967L
atp6286
Rp6287
sL2106L
g8
((lp6288
L2105L
aL2107L
aL967L
atp6289
Rp6290
sL2107L
g8
((lp6291
L358L
aL967L
aL2194L
aL2105L
aL2106L
atp6292
Rp6293
sL2108L
g8
((lp6294
L2109L
atp6295
Rp6296
sL2109L
g8
((lp6297
L2108L
atp6298
Rp6299
sL2110L
g8
((lp6300
L2111L
atp6301
Rp6302
sL2111L
g8
((lp6303
L2110L
atp6304
Rp6305
sL2112L
g8
((lp6306
L1563L
atp6307
Rp6308
sL2113L
g8
((lp6309
L1163L
aL1165L
atp6310
Rp6311
sL2114L
g8
((lp6312
L1608L
aL1714L
aL2115L
atp6313
Rp6314
sL2115L
g8
((lp6315
L1714L
aL2114L
atp6316
Rp6317
sL2116L
g8
((lp6318
L227L
aL2117L
atp6319
Rp6320
sL2117L
g8
((lp6321
L227L
aL2116L
atp6322
Rp6323
sL2118L
g8
((lp6324
L1608L
aL1403L
atp6325
Rp6326
sL2119L
g8
((lp6327
L2120L
aL2121L
atp6328
Rp6329
sL2120L
g8
((lp6330
L2121L
aL2119L
atp6331
Rp6332
sL2121L
g8
((lp6333
L2120L
aL2119L
atp6334
Rp6335
sL2122L
g8
((lp6336
L1506L
atp6337
Rp6338
sL2123L
g8
((lp6339
tp6340
Rp6341
sL2124L
g8
((lp6342
L2125L
atp6343
Rp6344
sL2125L
g8
((lp6345
L2124L
atp6346
Rp6347
sL2126L
g8
((lp6348
tp6349
Rp6350
sL2127L
g8
((lp6351
L204L
atp6352
Rp6353
sL2128L
g8
((lp6354
L2129L
atp6355
Rp6356
sL2129L
g8
((lp6357
L2128L
atp6358
Rp6359
sL2130L
g8
((lp6360
L1156L
aL2134L
atp6361
Rp6362
sL2131L
g8
((lp6363
tp6364
Rp6365
sL2132L
g8
((lp6366
L2133L
atp6367
Rp6368
sL2133L
g8
((lp6369
L2132L
atp6370
Rp6371
sL2134L
g8
((lp6372
L2130L
aL1156L
atp6373
Rp6374
sL2135L
g8
((lp6375
L1555L
atp6376
Rp6377
sL2136L
g8
((lp6378
L2137L
atp6379
Rp6380
sL2137L
g8
((lp6381
L2136L
atp6382
Rp6383
sL2138L
g8
((lp6384
L2139L
atp6385
Rp6386
sL2139L
g8
((lp6387
L2138L
aL2190L
atp6388
Rp6389
sL2140L
g8
((lp6390
L2144L
aL2141L
aL2142L
aL2143L
atp6391
Rp6392
sL2141L
g8
((lp6393
L2144L
aL2140L
aL2142L
aL2143L
atp6394
Rp6395
sL2142L
g8
((lp6396
L2144L
aL2140L
aL2141L
aL2143L
atp6397
Rp6398
sL2143L
g8
((lp6399
L2144L
aL2140L
aL2141L
aL2142L
atp6400
Rp6401
sL2144L
g8
((lp6402
L2140L
aL2141L
aL2142L
aL2143L
atp6403
Rp6404
sL2145L
g8
((lp6405
tp6406
Rp6407
sL2146L
g8
((lp6408
L2147L
aL2148L
atp6409
Rp6410
sL2147L
g8
((lp6411
L2146L
aL2148L
atp6412
Rp6413
sL2148L
g8
((lp6414
L2146L
aL2147L
atp6415
Rp6416
sL2149L
g8
((lp6417
L2160L
aL2150L
aL2159L
atp6418
Rp6419
sL2150L
g8
((lp6420
L2149L
atp6421
Rp6422
sL2151L
g8
((lp6423
L2152L
aL2153L
atp6424
Rp6425
sL2152L
g8
((lp6426
L2153L
aL2151L
atp6427
Rp6428
sL2153L
g8
((lp6429
L2152L
aL2151L
atp6430
Rp6431
sL2154L
g8
((lp6432
L1091L
aL1486L
atp6433
Rp6434
sL2155L
g8
((lp6435
L2156L
aL2157L
aL2158L
atp6436
Rp6437
sL2156L
g8
((lp6438
L2155L
aL2157L
aL2158L
atp6439
Rp6440
sL2157L
g8
((lp6441
L2155L
aL2156L
aL2158L
atp6442
Rp6443
sL2158L
g8
((lp6444
L2155L
aL2156L
aL2157L
atp6445
Rp6446
sL2159L
g8
((lp6447
L2160L
aL2149L
atp6448
Rp6449
sL2160L
g8
((lp6450
L2149L
aL2159L
atp6451
Rp6452
sL2161L
g8
((lp6453
L2186L
aL1555L
aL2162L
aL2163L
aL2168L
atp6454
Rp6455
sL2162L
g8
((lp6456
L2161L
aL2163L
atp6457
Rp6458
sL2163L
g8
((lp6459
L2168L
aL2161L
aL2162L
atp6460
Rp6461
sL2164L
g8
((lp6462
L2044L
atp6463
Rp6464
sL2165L
g8
((lp6465
L2227L
atp6466
Rp6467
sL2166L
g8
((lp6468
L2167L
atp6469
Rp6470
sL2167L
g8
((lp6471
L2166L
atp6472
Rp6473
sL2168L
g8
((lp6474
L2161L
aL2163L
atp6475
Rp6476
sL2169L
g8
((lp6477
L2170L
atp6478
Rp6479
sL2170L
g8
((lp6480
L2169L
atp6481
Rp6482
sL2171L
g8
((lp6483
L2172L
atp6484
Rp6485
sL2172L
g8
((lp6486
L2171L
atp6487
Rp6488
sL2173L
g8
((lp6489
L2174L
atp6490
Rp6491
sL2174L
g8
((lp6492
L2173L
atp6493
Rp6494
sL2175L
g8
((lp6495
L2176L
atp6496
Rp6497
sL2176L
g8
((lp6498
L2187L
aL2175L
atp6499
Rp6500
sL2177L
g8
((lp6501
L2178L
aL2179L
atp6502
Rp6503
sL2178L
g8
((lp6504
L2177L
aL2179L
atp6505
Rp6506
sL2179L
g8
((lp6507
L2177L
aL2178L
atp6508
Rp6509
sL2180L
g8
((lp6510
L2181L
aL2182L
atp6511
Rp6512
sL2181L
g8
((lp6513
L2180L
aL2182L
atp6514
Rp6515
sL2182L
g8
((lp6516
L2180L
aL2181L
atp6517
Rp6518
sL2183L
g8
((lp6519
L2184L
atp6520
Rp6521
sL2184L
g8
((lp6522
L2345L
aL1128L
aL2183L
atp6523
Rp6524
sL2185L
g8
((lp6525
L1854L
aL295L
atp6526
Rp6527
sL2186L
g8
((lp6528
L2161L
aL1555L
atp6529
Rp6530
sL2187L
g8
((lp6531
L2176L
atp6532
Rp6533
sL2188L
g8
((lp6534
tp6535
Rp6536
sL2189L
g8
((lp6537
L204L
atp6538
Rp6539
sL2190L
g8
((lp6540
L2139L
atp6541
Rp6542
sL2191L
g8
((lp6543
L2192L
aL2193L
atp6544
Rp6545
sL2192L
g8
((lp6546
L2193L
aL2191L
atp6547
Rp6548
sL2193L
g8
((lp6549
L2192L
aL2191L
atp6550
Rp6551
sL2194L
g8
((lp6552
L2107L
aL358L
aL967L
atp6553
Rp6554
sL2195L
g8
((lp6555
L2196L
aL1845L
atp6556
Rp6557
sL2196L
g8
((lp6558
L2195L
aL1845L
atp6559
Rp6560
sL2197L
g8
((lp6561
L2198L
atp6562
Rp6563
sL2198L
g8
((lp6564
L2197L
atp6565
Rp6566
sL2199L
g8
((lp6567
L2200L
atp6568
Rp6569
sL2200L
g8
((lp6570
L2199L
atp6571
Rp6572
sL2201L
g8
((lp6573
L85L
aL1542L
atp6574
Rp6575
sL2202L
g8
((lp6576
L1426L
aL1427L
atp6577
Rp6578
sL2203L
g8
((lp6579
L2204L
aL1940L
atp6580
Rp6581
sL2204L
g8
((lp6582
L2203L
aL1940L
atp6583
Rp6584
sL2205L
g8
((lp6585
L292L
aL2206L
atp6586
Rp6587
sL2206L
g8
((lp6588
L292L
aL2205L
atp6589
Rp6590
sL2207L
g8
((lp6591
L2208L
atp6592
Rp6593
sL2208L
g8
((lp6594
L2207L
atp6595
Rp6596
sL2209L
g8
((lp6597
L1440L
aL2210L
atp6598
Rp6599
sL2210L
g8
((lp6600
L1440L
aL2209L
atp6601
Rp6602
sL2211L
g8
((lp6603
L771L
aL1102L
atp6604
Rp6605
sL2212L
g8
((lp6606
L771L
aL1102L
atp6607
Rp6608
sL2213L
g8
((lp6609
L2310L
aL2308L
aL2309L
aL2214L
aL2215L
aL2216L
atp6610
Rp6611
sL2214L
g8
((lp6612
L2216L
aL2213L
aL2215L
atp6613
Rp6614
sL2215L
g8
((lp6615
L2216L
aL2213L
aL2214L
atp6616
Rp6617
sL2216L
g8
((lp6618
L2213L
aL2214L
aL2215L
atp6619
Rp6620
sL2217L
g8
((lp6621
L2218L
atp6622
Rp6623
sL2218L
g8
((lp6624
L2217L
atp6625
Rp6626
sL2219L
g8
((lp6627
L2220L
atp6628
Rp6629
sL2220L
g8
((lp6630
L2368L
aL1452L
aL2219L
atp6631
Rp6632
sL2221L
g8
((lp6633
L2222L
aL2223L
atp6634
Rp6635
sL2222L
g8
((lp6636
L2221L
aL2223L
atp6637
Rp6638
sL2223L
g8
((lp6639
L2221L
aL2222L
atp6640
Rp6641
sL2224L
g8
((lp6642
L2074L
atp6643
Rp6644
sL2225L
g8
((lp6645
L1005L
atp6646
Rp6647
sL2226L
g8
((lp6648
L1849L
aL1851L
aL1852L
aL1431L
atp6649
Rp6650
sL2227L
g8
((lp6651
L2165L
atp6652
Rp6653
sL2228L
g8
((lp6654
L2232L
aL2229L
aL2230L
aL2231L
atp6655
Rp6656
sL2229L
g8
((lp6657
L2232L
aL2228L
aL2230L
aL2231L
atp6658
Rp6659
sL2230L
g8
((lp6660
L2232L
aL2228L
aL2229L
aL2231L
atp6661
Rp6662
sL2231L
g8
((lp6663
L2232L
aL2228L
aL2229L
aL2230L
atp6664
Rp6665
sL2232L
g8
((lp6666
L2228L
aL2229L
aL2230L
aL2231L
atp6667
Rp6668
sL2233L
g8
((lp6669
L2234L
atp6670
Rp6671
sL2234L
g8
((lp6672
L2233L
atp6673
Rp6674
sL2235L
g8
((lp6675
L2236L
aL2237L
atp6676
Rp6677
sL2236L
g8
((lp6678
L2235L
aL2237L
atp6679
Rp6680
sL2237L
g8
((lp6681
L2235L
aL2236L
atp6682
Rp6683
sL2238L
g8
((lp6684
L2240L
aL2076L
aL2239L
atp6685
Rp6686
sL2239L
g8
((lp6687
L2240L
aL2076L
aL2238L
atp6688
Rp6689
sL2240L
g8
((lp6690
L2076L
aL2238L
aL2239L
atp6691
Rp6692
sL2241L
g8
((lp6693
L2242L
aL2243L
atp6694
Rp6695
sL2242L
g8
((lp6696
L2241L
aL2243L
atp6697
Rp6698
sL2243L
g8
((lp6699
L2241L
aL2242L
atp6700
Rp6701
sL2244L
g8
((lp6702
L2245L
aL2246L
atp6703
Rp6704
sL2245L
g8
((lp6705
L2244L
aL2246L
atp6706
Rp6707
sL2246L
g8
((lp6708
L2244L
aL2245L
atp6709
Rp6710
sL2247L
g8
((lp6711
L2248L
aL2249L
atp6712
Rp6713
sL2248L
g8
((lp6714
L2249L
aL2247L
atp6715
Rp6716
sL2249L
g8
((lp6717
L2248L
aL2247L
atp6718
Rp6719
sL2250L
g8
((lp6720
L1253L
aL1254L
aL1255L
aL2251L
aL2252L
atp6721
Rp6722
sL2251L
g8
((lp6723
L1253L
aL1254L
aL1255L
aL2250L
aL2252L
atp6724
Rp6725
sL2252L
g8
((lp6726
L1253L
aL1254L
aL1255L
aL2250L
aL2251L
atp6727
Rp6728
sL2253L
g8
((lp6729
L2254L
aL2255L
atp6730
Rp6731
sL2254L
g8
((lp6732
L2253L
aL2255L
atp6733
Rp6734
sL2255L
g8
((lp6735
L2253L
aL2254L
atp6736
Rp6737
sL2256L
g8
((lp6738
L2257L
aL2258L
aL2259L
atp6739
Rp6740
sL2257L
g8
((lp6741
L2256L
aL2258L
aL2259L
atp6742
Rp6743
sL2258L
g8
((lp6744
L2256L
aL2257L
aL2259L
atp6745
Rp6746
sL2259L
g8
((lp6747
L2256L
aL2257L
aL2258L
atp6748
Rp6749
sL2260L
g8
((lp6750
L1157L
atp6751
Rp6752
sL2261L
g8
((lp6753
L2262L
atp6754
Rp6755
sL2262L
g8
((lp6756
L2261L
atp6757
Rp6758
sL2263L
g8
((lp6759
L208L
atp6760
Rp6761
sL2264L
g8
((lp6762
L2265L
atp6763
Rp6764
sL2265L
g8
((lp6765
L2264L
atp6766
Rp6767
sL2266L
g8
((lp6768
L2267L
atp6769
Rp6770
sL2267L
g8
((lp6771
L2266L
atp6772
Rp6773
sL2268L
g8
((lp6774
L176L
aL353L
aL160L
aL159L
atp6775
Rp6776
sL2269L
g8
((lp6777
L635L
aL2270L
aL2271L
atp6778
Rp6779
sL2270L
g8
((lp6780
L635L
aL2269L
aL2271L
atp6781
Rp6782
sL2271L
g8
((lp6783
L635L
aL2269L
aL2270L
atp6784
Rp6785
sL2272L
g8
((lp6786
L2273L
aL2274L
atp6787
Rp6788
sL2273L
g8
((lp6789
L2272L
aL2274L
aL2059L
atp6790
Rp6791
sL2274L
g8
((lp6792
L2272L
aL2273L
aL2059L
atp6793
Rp6794
sL2275L
g8
((lp6795
L1453L
atp6796
Rp6797
sL2276L
g8
((lp6798
L1963L
aL2277L
atp6799
Rp6800
sL2277L
g8
((lp6801
L1963L
aL2276L
atp6802
Rp6803
sL2278L
g8
((lp6804
L1922L
aL572L
atp6805
Rp6806
sL2279L
g8
((lp6807
L2280L
aL705L
atp6808
Rp6809
sL2280L
g8
((lp6810
L705L
aL2279L
atp6811
Rp6812
sL2281L
g8
((lp6813
L345L
atp6814
Rp6815
sL2282L
g8
((lp6816
L2283L
aL2284L
aL2285L
atp6817
Rp6818
sL2283L
g8
((lp6819
L2282L
aL2284L
aL2285L
atp6820
Rp6821
sL2284L
g8
((lp6822
L2282L
aL2283L
aL2285L
atp6823
Rp6824
sL2285L
g8
((lp6825
L2282L
aL2283L
aL2284L
atp6826
Rp6827
sL2286L
g8
((lp6828
L2287L
atp6829
Rp6830
sL2287L
g8
((lp6831
L2286L
atp6832
Rp6833
sL2288L
g8
((lp6834
L2289L
aL2290L
atp6835
Rp6836
sL2289L
g8
((lp6837
L2288L
aL2290L
atp6838
Rp6839
sL2290L
g8
((lp6840
L2288L
aL2289L
atp6841
Rp6842
sL2291L
g8
((lp6843
L1033L
aL43L
aL685L
aL2030L
aL2292L
aL2293L
aL2300L
atp6844
Rp6845
sL2292L
g8
((lp6846
L1033L
aL2291L
aL685L
aL2293L
atp6847
Rp6848
sL2293L
g8
((lp6849
L1033L
aL2291L
aL2292L
aL685L
atp6850
Rp6851
sL2294L
g8
((lp6852
L2296L
aL2295L
atp6853
Rp6854
sL2295L
g8
((lp6855
L2296L
aL2294L
atp6856
Rp6857
sL2296L
g8
((lp6858
L2294L
aL2295L
atp6859
Rp6860
sL2297L
g8
((lp6861
L2298L
atp6862
Rp6863
sL2298L
g8
((lp6864
L2297L
atp6865
Rp6866
sL2299L
g8
((lp6867
L160L
aL159L
atp6868
Rp6869
sL2300L
g8
((lp6870
L43L
aL2030L
aL2291L
aL2301L
aL223L
atp6871
Rp6872
sL2301L
g8
((lp6873
L43L
aL2300L
aL223L
atp6874
Rp6875
sL2302L
g8
((lp6876
L2303L
atp6877
Rp6878
sL2303L
g8
((lp6879
L2304L
aL2302L
atp6880
Rp6881
sL2304L
g8
((lp6882
L2303L
atp6883
Rp6884
sL2305L
g8
((lp6885
L2306L
aL2307L
aL1412L
aL1413L
atp6886
Rp6887
sL2306L
g8
((lp6888
L2305L
aL2307L
aL1412L
aL1413L
atp6889
Rp6890
sL2307L
g8
((lp6891
L2305L
aL2306L
aL1412L
aL1413L
atp6892
Rp6893
sL2308L
g8
((lp6894
L2213L
aL2310L
aL2309L
atp6895
Rp6896
sL2309L
g8
((lp6897
L2308L
aL2213L
aL2310L
atp6898
Rp6899
sL2310L
g8
((lp6900
L2308L
aL2213L
aL2309L
atp6901
Rp6902
sL2311L
g8
((lp6903
L2312L
aL2313L
atp6904
Rp6905
sL2312L
g8
((lp6906
L2313L
aL2311L
atp6907
Rp6908
sL2313L
g8
((lp6909
L2312L
aL2311L
atp6910
Rp6911
sL2314L
g8
((lp6912
L145L
atp6913
Rp6914
sL2315L
g8
((lp6915
L70L
atp6916
Rp6917
sL2316L
g8
((lp6918
L2317L
atp6919
Rp6920
sL2317L
g8
((lp6921
L2321L
aL2322L
aL2323L
aL2316L
atp6922
Rp6923
sL2318L
g8
((lp6924
tp6925
Rp6926
sL2319L
g8
((lp6927
L2320L
atp6928
Rp6929
sL2320L
g8
((lp6930
L2342L
aL2319L
atp6931
Rp6932
sL2321L
g8
((lp6933
L2322L
aL2323L
aL2317L
atp6934
Rp6935
sL2322L
g8
((lp6936
L2321L
aL2323L
aL2317L
atp6937
Rp6938
sL2323L
g8
((lp6939
L2321L
aL2322L
aL2317L
atp6940
Rp6941
sL2324L
g8
((lp6942
L2325L
aL2326L
atp6943
Rp6944
sL2325L
g8
((lp6945
L2324L
aL2326L
atp6946
Rp6947
sL2326L
g8
((lp6948
L2324L
aL2325L
atp6949
Rp6950
sL2327L
g8
((lp6951
L2328L
atp6952
Rp6953
sL2328L
g8
((lp6954
L2327L
atp6955
Rp6956
sL2329L
g8
((lp6957
L2330L
atp6958
Rp6959
sL2330L
g8
((lp6960
L2329L
atp6961
Rp6962
sL2331L
g8
((lp6963
L136L
atp6964
Rp6965
sL2332L
g8
((lp6966
L227L
aL2333L
aL2334L
aL2335L
atp6967
Rp6968
sL2333L
g8
((lp6969
L227L
aL2332L
aL2334L
aL2335L
atp6970
Rp6971
sL2334L
g8
((lp6972
L227L
aL2332L
aL2333L
aL2335L
atp6973
Rp6974
sL2335L
g8
((lp6975
L227L
aL2332L
aL2333L
aL2334L
atp6976
Rp6977
sL2336L
g8
((lp6978
L2337L
aL1874L
atp6979
Rp6980
sL2337L
g8
((lp6981
L2336L
aL1874L
atp6982
Rp6983
sL2338L
g8
((lp6984
L2339L
atp6985
Rp6986
sL2339L
g8
((lp6987
L2338L
atp6988
Rp6989
sL2340L
g8
((lp6990
tp6991
Rp6992
sL2341L
g8
((lp6993
L92L
atp6994
Rp6995
sL2342L
g8
((lp6996
L2320L
atp6997
Rp6998
sL2343L
g8
((lp6999
L1190L
atp7000
Rp7001
sL2344L
g8
((lp7002
L292L
atp7003
Rp7004
sL2345L
g8
((lp7005
L2184L
aL1128L
atp7006
Rp7007
sL2346L
g8
((lp7008
L2347L
aL1108L
atp7009
Rp7010
sL2347L
g8
((lp7011
L2346L
aL1108L
atp7012
Rp7013
sL2348L
g8
((lp7014
L2349L
aL2350L
aL2351L
atp7015
Rp7016
sL2349L
g8
((lp7017
L2348L
aL2350L
aL2351L
atp7018
Rp7019
sL2350L
g8
((lp7020
L2348L
aL2349L
aL2351L
atp7021
Rp7022
sL2351L
g8
((lp7023
L2348L
aL2349L
aL2350L
atp7024
Rp7025
sL2352L
g8
((lp7026
L2353L
aL1421L
aL1261L
atp7027
Rp7028
sL2353L
g8
((lp7029
L2352L
aL1421L
aL1261L
atp7030
Rp7031
sL2354L
g8
((lp7032
L185L
aL1926L
aL1927L
atp7033
Rp7034
sL2355L
g8
((lp7035
L1575L
atp7036
Rp7037
sL2356L
g8
((lp7038
L1575L
atp7039
Rp7040
sL2357L
g8
((lp7041
L1491L
atp7042
Rp7043
sL2358L
g8
((lp7044
L871L
atp7045
Rp7046
sL2359L
g8
((lp7047
L2360L
aL2361L
atp7048
Rp7049
sL2360L
g8
((lp7050
L2361L
aL2359L
atp7051
Rp7052
sL2361L
g8
((lp7053
L2360L
aL2359L
atp7054
Rp7055
sL2362L
g8
((lp7056
L2363L
aL2364L
aL2365L
aL2366L
aL2367L
atp7057
Rp7058
sL2363L
g8
((lp7059
L2362L
aL2364L
aL2365L
aL2366L
aL2367L
atp7060
Rp7061
sL2364L
g8
((lp7062
L2362L
aL2363L
aL2365L
aL2366L
aL2367L
atp7063
Rp7064
sL2365L
g8
((lp7065
L2362L
aL2363L
aL2364L
aL2366L
aL2367L
atp7066
Rp7067
sL2366L
g8
((lp7068
L2362L
aL2363L
aL2364L
aL2365L
aL2367L
atp7069
Rp7070
sL2367L
g8
((lp7071
L2362L
aL2363L
aL2364L
aL2365L
aL2366L
atp7072
Rp7073
sL2368L
g8
((lp7074
L1452L
aL2220L
atp7075
Rp7076
sL2369L
g8
((lp7077
L1588L
atp7078
Rp7079
sL2370L
g8
((lp7080
L2371L
aL2372L
aL839L
atp7081
Rp7082
sL2371L
g8
((lp7083
L2370L
aL2372L
aL839L
atp7084
Rp7085
sL2372L
g8
((lp7086
L2370L
aL2371L
aL839L
atp7087
Rp7088
ssS'names'
p7089
(dp7090
L1L
S'Shintaro Yamasaki'
p7091
sL2L
S'Atsushi Kawamoto'
p7092
sL3L
S'Akira Saito'
p7093
sL4L
S'Masakatsu Kuroishi'
p7094
sL5L
S'Kikuo Fujita'
p7095
sL6L
S'David Guirguis'
p7096
sL7L
S'Mohamed Aly'
p7097
sL8L
S'Karim Hamza'
p7098
sL9L
S'Hesham Hegazi'
p7099
sL10L
S'Mohammed Tauhiduzzaman'
p7100
sL11L
S'Mouhab Meshreki'
p7101
sL12L
S'Ashraf O. Nassef'
p7102
sL13L
S'Stephen Veldhuis'
p7103
sL14L
S'Helmi Attia'
p7104
sL15L
S'Sean T. Ricks'
p7105
sL16L
S'John R. Lewandowski'
p7106
sL17L
S'Emmanuel G. Lim'
p7107
sL18L
S'Dawn M. Wendell'
p7108
sL19L
S'Amos G. Winter, V'
p7109
sL20L
S'Sree Shankar Satheesh Babu'
p7110
sL21L
S'Prakhar Jaiswal'
p7111
sL22L
S'Ehsan T. Esfahani'
p7112
sL23L
S'Rahul Rai'
p7113
sL24L
S'Ashish Khetan'
p7114
sL25L
S'James T. Allison'
p7115
sL26L
S'Corinna Konigseder'
p7116
sL27L
S'Kristina Shea'
p7117
sL28L
S'Axel Nordin'
p7118
sL29L
S'Thomas Stone'
p7119
sL30L
S'Seung-Kyum Choi'
p7120
sL31L
S'Jeremy Murphy'
p7121
sL32L
S'Katherine Fu'
p7122
sL33L
S'Kevin Otto'
p7123
sL34L
S'Maria Yang'
p7124
sL35L
S'Dan Jensen'
p7125
sL36L
S'Kristin Wood'
p7126
sL37L
S'Jungmok Ma'
p7127
sL38L
S'Harrison M. Kim'
p7128
sL39L
S'Alex Burnap'
p7129
sL40L
S'Yi Ren'
p7130
sL41L
S'Honglak Lee'
p7131
sL42L
S'Richard Gonzalez'
p7132
sL43L
S'Panos Y. Papalambros'
p7133
sL44L
S'Kayla A. Von Hagel'
p7134
sL45L
S'Scott M. Ferguson'
p7135
sL46L
S'Brian Sylcott'
p7136
sL47L
S'Seth Orsborn'
p7137
sL48L
S'Jonathan Cagan'
p7138
sL49L
S'Simon Li'
p7139
sL50L
S'Ningrong Lei'
p7140
sL51L
S'Seung Ki Moon'
p7141
sL52L
S'Weiyang Tong'
p7142
sL53L
S'Souma Chowdhury'
p7143
sL54L
S'Achille Messac'
p7144
sL55L
S'Felipe A. C. Viana'
p7145
sL56L
S'Tzu-Chieh Hung'
p7146
sL57L
S'Kuei-Yuan Chan'
p7147
sL58L
S'Khalid M. Abd El-Aziz'
p7148
sL59L
S'Mohamed El Morsi'
p7149
sL60L
S'Sayed M. Metwalli'
p7150
sL61L
S'Kazuhiro Saitou'
p7151
sL62L
S'Jihun Kim'
p7152
sL63L
S'Mohamed El-Morsi'
p7153
sL64L
S'Sayed Metwalli'
p7154
sL65L
S'Jie Zhang'
p7155
sL66L
S'Anthony Florita'
p7156
sL67L
S'Bri-Mathias Hodge'
p7157
sL68L
S'Jeffrey Freedman'
p7158
sL69L
S'Philip Odonkor'
p7159
sL70L
S'Kemper Lewis'
p7160
sL71L
S'Jin Wen'
p7161
sL72L
S'Teresa Wu'
p7162
sL73L
S'Bo Yang Yu'
p7163
sL74L
S'Tomonori Honda'
p7164
sL75L
S'Syed Zubair'
p7165
sL76L
S'Mostafa H. Sharqawy'
p7166
sL77L
S'Maria C. Yang'
p7167
sL78L
S'Amy Bilton'
p7168
sL79L
S'Steven Dubowsky'
p7169
sL80L
S'Natasha C. Wright'
p7170
sL81L
S'Daniel Stratton'
p7171
sL82L
S'Daniel Martino'
p7172
sL83L
S'John Hall'
p7173
sL84L
S'Steven Hoffenson'
p7174
sL85L
S'Rikard Soderberg'
p7175
sL86L
S'Minhua Long'
p7176
sL87L
S'W. Ross Morrow'
p7177
sL88L
S'Mark Christian E. Manuel'
p7178
sL89L
S'Jaime P. Honra'
p7179
sL90L
S'Manuel C. Belino'
p7180
sL91L
S'Zhichao Wang'
p7181
sL92L
S'Shapour Azarm'
p7182
sL93L
S'P. K. Kannan'
p7183
sL94L
S'Kenneth P. Laberteaux'
p7184
sL95L
S'Regina R. Clewlow'
p7185
sL96L
S'V. N. Murthy Arelekatti'
p7186
sL97L
S'Douglas H. Bjorkdal'
p7187
sL98L
S'Carmen W. Graves'
p7188
sL99L
S'Anthony Wong'
p7189
sL100L
S'Armen Mkrtchyan'
p7190
sL101L
S'Namwoo Kang'
p7191
sL102L
S'Fred M. Feinberg'
p7192
sL103L
S'Garrett Foster'
p7193
sL104L
S'Scott Ferguson'
p7194
sL105L
S'Dorin Drignei'
p7195
sL106L
S'Igor Baseski'
p7196
sL107L
S'Zissimos P. Mourelatos'
p7197
sL108L
S'Vijitashwa Pandey'
p7198
sL109L
S'Pingfeng Wang'
p7199
sL110L
S'Zequn Wang'
p7200
sL111L
S'Byeng D. Youn'
p7201
sL112L
S'Soobum Lee'
p7202
sL113L
S'Adebayo O. Adewunmi'
p7203
sL114L
S'Seyedmohsen Hosseini'
p7204
sL115L
S'Nita Yodo'
p7205
sL116L
S'Guangxing Bai'
p7206
sL117L
S'Po Ting Lin'
p7207
sL118L
S'Kuan-Ting Chen'
p7208
sL119L
S'Kyung Min Park'
p7209
sL120L
S'Joung Taek Yoon'
p7210
sL121L
S'Hee Soo Kim'
p7211
sL122L
S'Beom Chan Jang'
p7212
sL123L
S'Junxuan Li'
p7213
sL124L
S'Zhimin Xi'
p7214
sL125L
S'Jordan F. Pease'
p7215
sL126L
S'Jered H. Dean'
p7216
sL127L
S'Douglas L. Van Bossuyt'
p7217
sL128L
S'Nordica MacCarty'
p7218
sL129L
S'Kenneth (Mark) Bryden'
p7219
sL130L
S'Amy E. Wood'
p7220
sL131L
S'Christopher A. Mattson'
p7221
sL132L
S'Nathan G. Johnson'
p7222
sL133L
S'Michael Granato'
p7223
sL134L
S'Pablo S. Santaeufemia'
p7224
sL135L
S'Christopher McComb'
p7225
sL136L
S'Kenji Shimada'
p7226
sL137L
S'Varun Gopinath'
p7227
sL138L
S'Mehdi Tarkian'
p7228
sL139L
S'Johan Olvander'
p7229
sL140L
S'William Gaziza'
p7230
sL141L
S'Brandon M. Haley'
p7231
sL142L
S'Andy Dong'
p7232
sL143L
S'Irem Y. Tumer'
p7233
sL144L
S'Simon W. Miller'
p7234
sL145L
S'Timothy W. Simpson'
p7235
sL146L
S'Michael A. Yukish'
p7236
sL147L
S'Gary Stump'
p7237
sL148L
S'Bryan L. Mesmer'
p7238
sL149L
S'Elliott B. Tibor'
p7239
sL150L
S'Christina L. Bloebaum'
p7240
sL151L
S'Eliot H. Winer'
p7241
sL152L
S'Pei Cao'
p7242
sL153L
S'Zhaoyan Fan'
p7243
sL154L
S'Robert Gao'
p7244
sL155L
S'Jiong Tang'
p7245
sL156L
S'Chung-Hyun Goh'
p7246
sL157L
S'Salman Ahmed'
p7247
sL158L
S'Adam P. Dachowicz'
p7248
sL159L
S'Janet K. Allen'
p7249
sL160L
S'Farrokh Mistree'
p7250
sL161L
S'Mohammad Fazelpour'
p7251
sL162L
S'Joshua D. Summers'
p7252
sL163L
S'Pramod Zagade'
p7253
sL164L
S'B. P. Gautham'
p7254
sL165L
S'Nagesh Kulkarni'
p7255
sL166L
S'Rahul Gupta'
p7256
sL167L
S'Danish Khan'
p7257
sL168L
S'Jitesh Panchal'
p7258
sL169L
S'Rishabh Shukla'
p7259
sL170L
S'Sharad Goyal'
p7260
sL171L
S'Amarendra K. Singh'
p7261
sL172L
S'Jitesh H. Panchal'
p7262
sL173L
S'Ravikiran Anapagaddi'
p7263
sL174L
S'Wei Huang'
p7264
sL175L
S'Yan Wang'
p7265
sL176L
S'David W. Rosen'
p7266
sL177L
S'Jordan Matthews'
p7267
sL178L
S'Timothy Klatt'
p7268
sL179L
S'Carolyn C. Seepersad'
p7269
sL180L
S'Michael Haberman'
p7270
sL181L
S'David Shahan'
p7271
sL182L
S'Hongyi Xu'
p7272
sL183L
S'Ruoqian Liu'
p7273
sL184L
S'Alok Choudhary'
p7274
sL185L
S'Wei Chen'
p7275
sL186L
S'Edgar Galvan'
p7276
sL187L
S'Richard J. Malak, Jr.'
p7277
sL188L
S'Sean Gibbons'
p7278
sL189L
S'Raymundo Arroyave'
p7279
sL190L
S'Mingming Wang'
p7280
sL191L
S'Xiaoping Qian'
p7281
sL192L
S'Wei Song'
p7282
sL193L
S'Hae Chang Gea'
p7283
sL194L
S'Bin Zheng'
p7284
sL195L
S'James K. Guest'
p7285
sL196L
S'Greg Burton'
p7286
sL197L
S'Erhan Batuhan Arisoy'
p7287
sL198L
S'Levent Burak Kara'
p7288
sL199L
S'Anthony Garland'
p7289
sL200L
S'Greg Mocko'
p7290
sL201L
S'Georges Fadel'
p7291
sL202L
S'Ting Zou'
p7292
sL203L
S'Mathew Shaker'
p7293
sL204L
S'Jorge Angeles'
p7294
sL205L
S'Alexei Morozov'
p7295
sL206L
S'Payam Haghighi'
p7296
sL207L
S'Prashant Mohan'
p7297
sL208L
S'Jami J. Shah'
p7298
sL209L
S'Joseph K. Davidson'
p7299
sL210L
S'Hyunwoong Ko'
p7300
sL211L
S'Sangwon Lee'
p7301
sL212L
S'Dongmin Shin'
p7302
sL213L
S'Charlotte de Vries'
p7303
sL214L
S'Matthew B. Parkinson'
p7304
sL215L
S'D. Reuben Haupt'
p7305
sL216L
S'Teng Long'
p7306
sL217L
S'Lv Wang'
p7307
sL218L
S'Di Wu'
p7308
sL219L
S'Xiaosong Guo'
p7309
sL220L
S'Li Liu'
p7310
sL221L
S'Bastien Talgorn'
p7311
sL222L
S'Sebastien Le Digabel'
p7312
sL223L
S'Michael Kokkolaras'
p7313
sL224L
S'Kaveh Amouzgar'
p7314
sL225L
S'Niclas Stromberg'
p7315
sL226L
S'Kambiz Haji Hajikolaei'
p7316
sL227L
S'G. Gary Wang'
p7317
sL228L
S'Ali Mehmani'
p7318
sL229L
S'Yu-Cheng Chou'
p7319
sL230L
S'Kuan Sung Hsu'
p7320
sL231L
S'Zhen Jiang'
p7321
sL232L
S'Wei Li'
p7322
sL233L
S'Daniel W. Apley'
p7323
sL234L
S'Gautam Marwaha'
p7324
sL235L
S'Ning Quan'
p7325
sL236L
S'Harrison Kim'
p7326
sL237L
S'Meng Xu'
p7327
sL238L
S'Margaret M. Wiecek'
p7328
sL239L
S'J. M. Hamel'
p7329
sL240L
S'George H. Cheng'
p7330
sL241L
S'Chao Qi'
p7331
sL242L
S'Mohammed Reza Kianifar'
p7332
sL243L
S'Felician Campean'
p7333
sL244L
S'Jeffrey D. Allen'
p7334
sL245L
S'Jason D. Watson'
p7335
sL246L
S'Sangjin Jung'
p7336
sL247L
S'Oyku Asikoglu'
p7337
sL248L
S'Jeffrey D. Arena'
p7338
sL249L
S'Zhila Pirmoradi'
p7339
sL250L
S'Matthew P. Castanier'
p7340
sL251L
S'Jing Wang'
p7341
sL252L
S'Mian Li'
p7342
sL253L
S'Zhen Hu'
p7343
sL254L
S'Xiaoping Du'
p7344
sL255L
S'Annette Skowronska'
p7345
sL256L
S'David Gorsich'
p7346
sL257L
S'Matthew Castanier'
p7347
sL258L
S'Zhonglai Wang'
p7348
sL259L
S'Xiaoqiang Zhang'
p7349
sL260L
S'Hong-Zhong Huang'
p7350
sL261L
S'Recep M. Gorguluarslan'
p7351
sL262L
S'Jongmin Lim'
p7352
sL263L
S'Byungchai Lee'
p7353
sL264L
S'Ikjin Lee'
p7354
sL265L
S'Hyunkyoo Cho'
p7355
sL266L
S'K. K. Choi'
p7356
sL267L
S'David Lamb'
p7357
sL268L
S'Monica Majcher'
p7358
sL269L
S'Xike Zhao'
p7359
sL270L
S'Limei Xu'
p7360
sL271L
S'Matthew G. McIntire'
p7361
sL272L
S'Veronika Vasylkivska'
p7362
sL273L
S'Christopher Hoyle'
p7363
sL274L
S'Nathan Gibson'
p7364
sL275L
S'Zhe Zhang'
p7365
sL276L
S'Chao Jiang'
p7366
sL277L
S'Xu Han'
p7367
sL278L
S'Zhansi Jiang'
p7368
sL279L
S'Jagadeep Thota'
p7369
sL280L
S'Mohamed Trabia'
p7370
sL281L
S"Brendan O'Toole"
p7371
sL282L
S'Chang-Hyun Lee'
p7372
sL283L
S'Hong-Lae Park'
p7373
sL284L
S'Man-Hoi Koo'
p7374
sL285L
S'Kyoung-Hoon Lee'
p7375
sL286L
S'Ho-bum Kim'
p7376
sL287L
S'Thomas Gmeiner'
p7377
sL288L
S'Joshua M. Williams'
p7378
sL289L
S'Mitch W. Pryor'
p7379
sL290L
S'Andreas Wunsch'
p7380
sL291L
S'Der-Min Tsay'
p7381
sL292L
S'Sandor Vajna'
p7382
sL293L
S'Michael Schabacker'
p7383
sL294L
S'Amir Hooshmand'
p7384
sL295L
S'Matthew I. Campbell'
p7385
sL296L
S'Guang Dong'
p7386
sL297L
S'John Cooper'
p7387
sL298L
S'Jeremy J. Michalek'
p7388
sL299L
S'Baris Canbaz'
p7389
sL300L
S'Bernard Yannou'
p7390
sL301L
S'Pierre-Alain Yvars'
p7391
sL302L
S'Lorri A. Bennett'
p7392
sL303L
S'Sara E. Lego'
p7393
sL304L
S'Gary M. Stump'
p7394
sL305L
S'Lourdes A. Medina'
p7395
sL306L
S'Marija Jankovic'
p7396
sL307L
S'Gul E. Okudan Kremer'
p7397
sL308L
S'Weijun Wang'
p7398
sL309L
S'Stephane Caro'
p7399
sL310L
S'Fouad Bennis'
p7400
sL311L
S'Bryony L. DuPont'
p7401
sL312L
S'Daniel R. Herber'
p7402
sL313L
S'Amirhossein Khosrojerdi'
p7403
sL314L
S'Minting Xiao'
p7404
sL315L
S'Piampoom Sarikprueck'
p7405
sL316L
S'Le Chen'
p7406
sL317L
S'Erin MacDonald'
p7407
sL318L
S'Michael K. Coughlin'
p7408
sL319L
S'Michael J. Scott'
p7409
sL320L
S'Mingxian Wang'
p7410
sL321L
S'Bart D. Frischknecht'
p7411
sL322L
S'Damien Motte'
p7412
sL323L
S'Robert Bjarnemo'
p7413
sL324L
S'Shabnam Rezapour'
p7414
sL325L
S'Theodore B. Trafalis'
p7415
sL326L
S'C. Grace Heckmann'
p7416
sL327L
S'Yimin Liu'
p7417
sL328L
S'Kilmo Kang'
p7418
sL329L
S'Changmook Kang'
p7419
sL330L
S'Yoo S. Hong'
p7420
sL331L
S'Chao Hu'
p7421
sL332L
S'Prasanna Tamilselvan'
p7422
sL333L
S'Tamotsu Murakami'
p7423
sL334L
S'Toshiyuki Ishii'
p7424
sL335L
S'Rong Jing'
p7425
sL336L
S'Kenneth M. Bryden'
p7426
sL337L
S'John W. Glassmire'
p7427
sL338L
S'Peter D. Lilienthal'
p7428
sL339L
S'Kaushik Sinha'
p7429
sL340L
S'Olivier L. de Weck'
p7430
sL341L
S'Paul F. Egan'
p7431
sL342L
S'Christian Schunn'
p7432
sL343L
S'Philip R. LeDuc'
p7433
sL344L
S'James Humann'
p7434
sL345L
S'Yan Jin'
p7435
sL346L
S'Abdulaziz T. Almaktoom'
p7436
sL347L
S'Hoda Mehrpouyan'
p7437
sL348L
S'Brandon Haley'
p7438
sL349L
S'Chris Hoyle'
p7439
sL350L
S'Yang Li'
p7440
sL351L
S'Catherine Brinson'
p7441
sL352L
S'Sungwoo Jang'
p7442
sL353L
S'Hae-Jin Choi'
p7443
sL354L
S'Prabhu Shankar'
p7444
sL355L
S'Hong Zhou'
p7445
sL356L
S'Shabaz Ahmed Mohammed'
p7446
sL357L
S'Kai Liu'
p7447
sL358L
S'Andres Tovar'
p7448
sL359L
S'Ren-Jye Yang'
p7449
sL360L
S'Ching-Hung Chuang'
p7450
sL361L
S'Kunal R. Khadke'
p7451
sL362L
S'Weigang An'
p7452
sL363L
S'N. Ashwin Bharadwaj'
p7453
sL364L
S'Randy H. Ewoldt'
p7454
sL365L
S'Adam Cutbill'
p7455
sL366L
S'Dave Van Horn'
p7456
sL367L
S'Richard Gerth'
p7457
sL368L
S'Clayton Scott'
p7458
sL369L
S'Mohammed Shalaby'
p7459
sL370L
S'Ata A. Eftekharian'
p7460
sL371L
S'Wentao Fu'
p7461
sL372L
S'Charlie Manion'
p7462
sL373L
S'Lupin Niranjan Jaishankar'
p7463
sL374L
S'Kristina Warmefjord'
p7464
sL375L
S'Lars Lindkvist'
p7465
sL376L
S'Xu Zhang'
p7466
sL377L
S'Chao Liang'
p7467
sL378L
S'Tiedong Si'
p7468
sL379L
S'Ding Ding'
p7469
sL380L
S'Anand P. Deshmukh'
p7470
sL381L
S'Adel A. Younis'
p7471
sL382L
S'Zuomin Dong'
p7472
sL383L
S'Adel Younis'
p7473
sL384L
S'Tim A. P. Gjernes'
p7474
sL385L
S'Hanbo Li'
p7475
sL386L
S'Kambiz H. Hajikolaei'
p7476
sL387L
S'Siamak Arzanpour'
p7477
sL388L
S'Matthew J. Woodruff'
p7478
sL389L
S'Patrick M. Reed'
p7479
sL390L
S'David W. Shahan'
p7480
sL391L
S'Peter B. Backlund'
p7481
sL392L
S'Yixiang Han'
p7482
sL393L
S'Conrad S. Tucker'
p7483
sL394L
S'Erik Davidson'
p7484
sL395L
S'Gopal Nadadur'
p7485
sL396L
S'Alborz Bekhradi'
p7486
sL397L
S'Romain Farel'
p7487
sL398L
S'Benjamin Zimmer'
p7488
sL399L
S'Zhipeng Lei'
p7489
sL400L
S'James Yang'
p7490
sL401L
S'Jared Gragg'
p7491
sL402L
S'Brad Howard'
p7492
sL403L
S'Guolai Yang'
p7493
sL404L
S'Feng Zhou'
p7494
sL405L
S'Jianxin (Roger) Jiao'
p7495
sL406L
S'Shramana Ghosh'
p7496
sL407L
S'Hyosang Moon'
p7497
sL408L
S'Nina P. Robson'
p7498
sL409L
S'Brandon Brown'
p7499
sL410L
S'Tarunraj Singh'
p7500
sL411L
S'Shuo Cheng'
p7501
sL412L
S'Jie Hu'
p7502
sL413L
S'Asim Rashid'
p7503
sL414L
S'C. Bakker'
p7504
sL415L
S'G. T. Parks'
p7505
sL416L
S'J. P. Jarrett'
p7506
sL417L
S'J. Schiffmann'
p7507
sL418L
S'Aftab Ahmad'
p7508
sL419L
S'Kjell Andersson'
p7509
sL420L
S'Ulf Sellgren'
p7510
sL421L
S'Daniel Shaefer'
p7511
sL422L
S'Sourobh Ghosh'
p7512
sL423L
S'Erich Devendorf'
p7513
sL424L
S'Katja Holtta-Otto'
p7514
sL425L
S'Roberto Raffaeli'
p7515
sL426L
S'Marco Malatesta'
p7516
sL427L
S'Eugenia Marilungo'
p7517
sL428L
S'Michele Germani'
p7518
sL429L
S'Victor Maldonado'
p7519
sL430L
S'Jason Denhart'
p7520
sL431L
S'Thomas Gemmer'
p7521
sL432L
S'Andre Mazzoleni'
p7522
sL433L
S'Minjung Kwak'
p7523
sL434L
S'Katherine Koritz'
p7524
sL435L
S'Ang Liu'
p7525
sL436L
S'Stephen C-Y. Lu'
p7526
sL437L
S'Hyung Sool Oh'
p7527
sL438L
S'Samyeon Kim'
p7528
sL439L
S'Cassandra Telenko'
p7529
sL440L
S'Carolyn Seepersad'
p7530
sL441L
S'Xiaoyun Zhang'
p7531
sL442L
S'Prateek Gupta'
p7532
sL443L
S'Nagesh H. Kulkarni'
p7533
sL444L
S'Jianhua Zhou'
p7534
sL445L
S'Jing Li'
p7535
sL446L
S'Amandeep Singh'
p7536
sL447L
S'Annette G. Skowronska'
p7537
sL448L
S'Jaekwan Shin'
p7538
sL449L
S'David Yoo'
p7539
sL450L
S'Bo Wang'
p7540
sL451L
S'Junqiang Bai'
p7541
sL452L
S'Joseph R. Piacenza'
p7542
sL453L
S'Mahmoud R. Saad'
p7543
sL454L
S'Mohamed F. Aly'
p7544
sL455L
S'Moataz A. M. Abd El Gawad'
p7545
sL456L
S'Hesham A. Hegazi'
p7546
sL457L
S'Joseph Holub'
p7547
sL458L
S'Jung Leng Foo'
p7548
sL459L
S'Eliot Winer'
p7549
sL460L
S'Pradeep Radhakrishnan'
p7550
sL461L
S'Christian Fritz'
p7551
sL462L
S'Michael G. Miller'
p7552
sL463L
S'James L. Mathieson'
p7553
sL464L
S'Gregory M. Mocko'
p7554
sL465L
S'Beshoy Morkos'
p7555
sL466L
S'Shraddha Joshi'
p7556
sL467L
S'Kazuya Oizumi'
p7557
sL468L
S'Kazuhiro Aoyama'
p7558
sL469L
S'Iman Ebrahimi'
p7559
sL470L
S'Farid Golnaraghi'
p7560
sL471L
S'Gary Wang'
p7561
sL472L
S'Ali Madani'
p7562
sL473L
S'David Yin'
p7563
sL474L
S'Jun Lu'
p7564
sL475L
S'Alexandrea Chor'
p7565
sL476L
S'Combiz Jelveh'
p7566
sL477L
S'Xin Wang'
p7567
sL478L
S'Yuanyuan Liu'
p7568
sL479L
S'Fang Liu'
p7569
sL480L
S'Chun-Yu Lin'
p7570
sL481L
S'Gul E. Okudan'
p7571
sL482L
S'Thomas M. Stone'
p7572
sL483L
S'Hemanth Amarchinta'
p7573
sL484L
S'Jacquelyn K. S. Nagel'
p7574
sL485L
S'Frank W. Liou'
p7575
sL486L
S'Hua Deng'
p7576
sL487L
S'Dmitriy Dikin'
p7577
sL488L
S'Wing Kam Liu'
p7578
sL489L
S'M. Steven Greene'
p7579
sL490L
S'Craig Burkhart'
p7580
sL491L
S'George Papakonstantopoulos'
p7581
sL492L
S'Mike Poldneff'
p7582
sL493L
S'Brian Literman'
p7583
sL494L
S'Phil Cormier'
p7584
sL495L
S'Dongping Deng'
p7585
sL496L
S'Yong Chen'
p7586
sL497L
S'Oscar Roberto Salinas Mejia'
p7587
sL498L
S'Patrick Moriarty'
p7588
sL499L
S'Bryant D. Hawthorne'
p7589
sL500L
S'Stella Oggianu'
p7590
sL501L
S'Ritesh Khire'
p7591
sL502L
S'Yibin Wang'
p7592
sL503L
S'Toufic Zaraket'
p7593
sL504L
S'Yann Leroy'
p7594
sL505L
S'Stephanie Minel'
p7595
sL506L
S'Emilie Chapotot'
p7596
sL507L
S'Nathan H. Putnam'
p7597
sL508L
S'Michael E. Webber'
p7598
sL509L
S'Wing Yin Kwong'
p7599
sL510L
S'Peter Y. Zhang'
p7600
sL511L
S'David Romero'
p7601
sL512L
S'Joaquin Moran'
p7602
sL513L
S'Michael Morgenroth'
p7603
sL514L
S'Cristina Amon'
p7604
sL515L
S'Masoud Pourali'
p7605
sL516L
S'Ali Mosleh'
p7606
sL517L
S'Heidi Q. Chen'
p7607
sL518L
S'Lin He'
p7608
sL519L
S'Erin F. MacDonald'
p7609
sL520L
S'Joshua Mineroff'
p7610
sL521L
S'Kate S. Whitefoot'
p7611
sL522L
S'Shaiful Arif'
p7612
sL523L
S'Zahed Siddique'
p7613
sL524L
S'Charles D. Wood'
p7614
sL525L
S'Patrick K. Lewis'
p7615
sL526L
S'Nicholas S. Wasley'
p7616
sL527L
S'Benjamin M. Sloan'
p7617
sL528L
S'Douglas S. McCorkle'
p7618
sL529L
S'Iyad T. Alzaharnah'
p7619
sL530L
S'Warren P. Seering'
p7620
sL531L
S'Peter Cormier'
p7621
sL532L
S'Aleksandr A. Kerzhner'
p7622
sL533L
S'Christiaan J. J. Paredis'
p7623
sL534L
S'Winston Chiang'
p7624
sL535L
S'Josue R. Crespo-Varela'
p7625
sL536L
S'Kalie Porterfield'
p7626
sL537L
S'Yung-Yuan Hsu'
p7627
sL538L
S'Chih-Hsiang Chang'
p7628
sL539L
S'You-Tern Tsai'
p7629
sL540L
S'Ye Li'
p7630
sL541L
S'Jian Zhang'
p7631
sL542L
S'Yuguang Wu'
p7632
sL543L
S'C. G. Li'
p7633
sL544L
S'Joel Johansson'
p7634
sL545L
S'Xiaodong Liu'
p7635
sL546L
S'Bradley Camburn'
p7636
sL547L
S'Richard Crawford'
p7637
sL548L
S'Bowen Yu'
p7638
sL550L
S'Jingzhou (James) Yang'
p7639
sL551L
S'Wenwu Xiu'
p7640
sL552L
S'Qi Lu'
p7641
sL553L
S'Ou Ma'
p7642
sL554L
S'Mahdiar Hariri'
p7643
sL555L
S'Jasbir Arora'
p7644
sL556L
S'Karim Abdel-Malek'
p7645
sL557L
S'Dustyn P. Roberts'
p7646
sL558L
S'Joo H. Kim'
p7647
sL559L
S'Justin Seipel'
p7648
sL560L
S'Manh Tien Nguyen'
p7649
sL561L
S'Georges M. Fadel'
p7650
sL562L
S'Paolo Guarneri'
p7651
sL563L
S'Ivan Mata'
p7652
sL564L
S'Paul D. Arendt'
p7653
sL565L
S'Julien Benabes'
p7654
sL566L
S'Benoit Guedas'
p7655
sL567L
S'Emilie Poirson'
p7656
sL568L
S'Ravi Teja Katragadda'
p7657
sL569L
S'Sreekanth Reddy Gondipalle'
p7658
sL570L
S'W. Hu'
p7659
sL571L
S'K. H. Saleh'
p7660
sL572L
S'S. Azarm'
p7661
sL573L
S'Richard Malak'
p7662
sL574L
S'Jingru Zhang'
p7663
sL575L
S'Yogesh Jaluria'
p7664
sL576L
S'Shane K. Curtis'
p7665
sL577L
S'Braden J. Hancock'
p7666
sL578L
S'Valery Y. Glizer'
p7667
sL579L
S'Vladimir Turetsky'
p7668
sL580L
S'Emil Bashkansky'
p7669
sL581L
S'Wenshan Wang'
p7670
sL582L
S'Vincent Blouin'
p7671
sL583L
S'Bhanoday Vemula'
p7672
sL584L
S'Xiaolong Feng'
p7673
sL585L
S'Takayuki Yamada'
p7674
sL586L
S'Toshiro Matsumoto'
p7675
sL587L
S'Shinji Nishiwaki'
p7676
sL588L
S'Anil K. Annepu'
p7677
sL589L
S'Christopher J. Brampton'
p7678
sL590L
S'Hyunsun A. Kim'
p7679
sL591L
S'James L. Cunningham'
p7680
sL592L
S'Christopher Czech'
p7681
sL593L
S'Saber DorMohammadi'
p7682
sL594L
S'Mohammad Rouhi'
p7683
sL595L
S'Masoud Rais-Rohani'
p7684
sL596L
S'Mu Zhu'
p7685
sL597L
S'Fredrik Borjesson'
p7686
sL598L
S'Sung Woo Kang'
p7687
sL599L
S'Anil Kumar Maddulapalli'
p7688
sL600L
S'Parameshwaran S. Iyer'
p7689
sL601L
S'N. R. Srinivasa Raghavan'
p7690
sL602L
S'Ken Nasu'
p7691
sL603L
S'Yuma Ito'
p7692
sL604L
S'Yutaka Nomaguchi'
p7693
sL605L
S'Chad Hume'
p7694
sL606L
S'Fumiya Akasaka'
p7695
sL607L
S'Kazuki Fujita'
p7696
sL608L
S'Yoshiki Shimomura'
p7697
sL609L
S'Wonmo Kim'
p7698
sL610L
S'Asa Ericson'
p7699
sL611L
S'Tobias C. Larsson'
p7700
sL612L
S'Ola Isaksson'
p7701
sL613L
S'Andreas Larsson'
p7702
sL614L
S'Yong Se Kim'
p7703
sL615L
S'Sang Won Lee'
p7704
sL616L
S'Jin Hui Kim'
p7705
sL617L
S'Heji Jeong'
p7706
sL618L
S'Ji Hwan Lee'
p7707
sL619L
S'Pin-Yi Lin'
p7708
sL620L
S'Yoojeong Noh'
p7709
sL621L
S'Frank Schonberg'
p7710
sL622L
S'Matthias Messer'
p7711
sL623L
S'Sara Behdad'
p7712
sL624L
S'Leif P. Berg'
p7713
sL625L
S'Deborah Thurston'
p7714
sL626L
S'Judy Vance'
p7715
sL627L
S'Dipanjan D. Ghosh'
p7716
sL628L
S'Andrew Olewnik'
p7717
sL629L
S'Byung C. Jung'
p7718
sL630L
S'Ji Sun Kim'
p7719
sL631L
S'Christopher S. Bily'
p7720
sL632L
S'Richard J. Malak'
p7721
sL633L
S'Hyeongjin Song'
p7722
sL634L
S'Liang Zhao'
p7723
sL635L
S'Yan Fu'
p7724
sL636L
S'Charles L. Penninger'
p7725
sL637L
S'Neal M. Patel'
p7726
sL638L
S'Pugazhendhi Kanakasabai'
p7727
sL639L
S'Anoop K. Dhingra'
p7728
sL640L
S'Punit Bandi'
p7729
sL641L
S'James P. Schmiedeler'
p7730
sL642L
S'Juan Camilo Medina'
p7731
sL643L
S'Shana Smith'
p7732
sL644L
S'Wei-Han Chen'
p7733
sL645L
S'Claudio Favi'
p7734
sL646L
S'Marco Mandolini'
p7735
sL647L
S'Marco Marconi'
p7736
sL648L
S'Mohamed H. Abbas'
p7737
sL649L
S'William R. Patterson, Jr.'
p7738
sL650L
S'Xiaobao Liu'
p7739
sL651L
S'Euihark Lee'
p7740
sL652L
S'Ping An Du'
p7741
sL653L
S'Niranjan Thyagaraja'
p7742
sL654L
S'Zebin Zhou'
p7743
sL655L
S'Guenter Conzelmann'
p7744
sL656L
S'Callaway Turner'
p7745
sL657L
S'Joseph Donndelinger'
p7746
sL658L
S'Eric Sullivan'
p7747
sL659L
S'Gang-Won Jang'
p7748
sL660L
S'Sang Jun Nam'
p7749
sL661L
S'Yoon Young Kim'
p7750
sL662L
S'Seonho Cho'
p7751
sL663L
S'Bon-yong Koo'
p7752
sL664L
S'Minho Yoon'
p7753
sL665L
S'Seung-Wook Lee'
p7754
sL666L
S'Youn Doh Ha'
p7755
sL667L
S'Hyun-Seok Kim'
p7756
sL668L
S'Hong-Lae Jang'
p7757
sL669L
S'Min-Geun Kim'
p7758
sL670L
S'Diane Villanueva'
p7759
sL671L
S'Rodolphe Le Riche'
p7760
sL672L
S'Gauthier Picard'
p7761
sL673L
S'Raphael T. Haftka'
p7762
sL674L
S'Bhavani V. Sankar'
p7763
sL675L
S'Nam Ho Kim'
p7764
sL676L
S'Jae Chang Kim'
p7765
sL677L
S'Joo-Ho Choi'
p7766
sL678L
S'Yeong K. Kim'
p7767
sL679L
S'Seungjae Oh'
p7768
sL680L
S'Semyung Wang'
p7769
sL681L
S'Minkyu Park'
p7770
sL682L
S'Joonha Kim'
p7771
sL683L
S'Maura Mengoni'
p7772
sL684L
S'Christopher Garneau'
p7773
sL685L
S'Matthew Parkinson'
p7774
sL686L
S'Haifeng Ji'
p7775
sL687L
S'Francois Cluzel'
p7776
sL688L
S'Dominique Millet'
p7777
sL689L
S'Vishwa Kalyanasundaram'
p7778
sL690L
S'Wuhsun Chung'
p7779
sL692L
S'Richard A. Wysk'
p7780
sL693L
S'Nickolas Vlahopoulos'
p7781
sL694L
S'Hong Yoon Kim'
p7782
sL695L
S'Kevin Maki'
p7783
sL696L
S'Ricardo Sbragio'
p7784
sL697L
S'Shashi K. Shahi'
p7785
sL698L
S'Liqiang An'
p7786
sL699L
S'Eric Bibeau'
p7787
sL700L
S'Travis McEvoy'
p7788
sL701L
S'Eric Dierks'
p7789
sL702L
S'Jason Weaver'
p7790
sL703L
S'Sumedh Inamdar'
p7791
sL704L
S'Krystian Zimowski'
p7792
sL705L
S'Kristin L. Wood'
p7793
sL706L
S'Richard H. Crawford'
p7794
sL707L
S'John W. Whitefoot'
p7795
sL708L
S'Abigail R. Mechtenberg'
p7796
sL709L
S'Diane L. Peters'
p7797
sL710L
S'Umesh Gandhi'
p7798
sL711L
S'Luciano Castillo'
p7799
sL712L
S'Z. Wang'
p7800
sL713L
S'Kate Whitefoot'
p7801
sL714L
S'L. Wang'
p7802
sL715L
S'B. D. Youn'
p7803
sL716L
S'Camilo B. Resende'
p7804
sL717L
S'Jacob S. Morrise'
p7805
sL718L
S'Spencer P. Magleby'
p7806
sL719L
S'Adam J. Andersen'
p7807
sL720L
S'Charles Kim'
p7808
sL721L
S'Robert D. Campbell'
p7809
sL722L
S'Ayan Sinha'
p7810
sL723L
S'Edin Crnkic'
p7811
sL724L
S'Lijuan He'
p7812
sL725L
S'Yu Liu'
p7813
sL726L
S'Dmitriy A. Dikin'
p7814
sL727L
S'Angel G. Perez'
p7815
sL728L
S'Julie S. Linsey'
p7816
sL730L
S'Mi Xiao'
p7817
sL731L
S'Liang Gao'
p7818
sL732L
S'Xinyu Shao'
p7819
sL733L
S'Haobo Qiu'
p7820
sL734L
S'Li Nie'
p7821
sL735L
S'Sigurjon N. Kjaernested'
p7822
sL736L
S'Magnus Th. Jonsson'
p7823
sL737L
S'Halldor Palsson'
p7824
sL739L
S'Yannick Ravaut'
p7825
sL740L
S'Hirofumi Amaya'
p7826
sL741L
S'Ryota Akai'
p7827
sL742L
S'Ian Tseng'
p7828
sL743L
S'Kenneth Kotovsky'
p7829
sL744L
S'Roger J. Jiao'
p7830
sL745L
S'Lei Shu'
p7831
sL746L
S'Michael Yu Wang'
p7832
sL747L
S'Zongde Fang'
p7833
sL748L
S'Zhengdong Ma'
p7834
sL749L
S'Weijuan Cao'
p7835
sL750L
S'Xiaoshen Chen'
p7836
sL751L
S'Shuming Gao'
p7837
sL752L
S'Sweta Dhaveji Ch.'
p7838
sL753L
S'Todd E. Sparks'
p7839
sL754L
S'Jianzhong Ruan'
p7840
sL755L
S'Mehmet Ersin Yumer'
p7841
sL756L
S'Horea T. Ilies'
p7842
sL757L
S'Johan Segeborn'
p7843
sL758L
S'Johan S. Carlson'
p7844
sL761L
S'Gunay Orbay'
p7845
sL762L
S'Sundar Murugappan'
p7846
sL763L
S'Vinayak'
p7847
sL764L
S'Karthik Ramani'
p7848
sL765L
S'Roxanne A. Moore'
p7849
sL766L
S'David A. Romero'
p7850
sL767L
S'Erin Roach'
p7851
sL768L
S'Robert R. Parker'
p7852
sL769L
S'Jay D. Martin'
p7853
sL770L
S'Junqiang Zhang'
p7854
sL771L
S'Masataka Yoshimura'
p7855
sL772L
S'Inna Turevsky'
p7856
sL773L
S'Krishnan Suresh'
p7857
sL774L
S'Daniel Wappling'
p7858
sL775L
S'Hans Andersson'
p7859
sL776L
S'Marcus Pettersson'
p7860
sL777L
S'Bjorn Lunden'
p7861
sL778L
S'Jakob Westrom'
p7862
sL779L
S'Xin Yan'
p7863
sL780L
S'Mu Qiao'
p7864
sL781L
S'Jia Li'
p7865
sL782L
S'Xiaolong Luke Zhang'
p7866
sL783L
S'Joaquim R. R. A. Martins'
p7867
sL784L
S'Jim He'
p7868
sL785L
S'Shari Hannapel'
p7869
sL786L
S'Trevor Richardson'
p7870
sL787L
S'Johan Persson'
p7871
sL789L
S'Zhi Han'
p7872
sL790L
S'Xiao-Ling Zhang'
p7873
sL791L
S'Andrea Vigliotti'
p7874
sL792L
S'Damiano Pasini'
p7875
sL793L
S'Sajad Arabnejad Khanoki'
p7876
sL794L
S'Ehsan Masoumi Khalil Abad'
p7877
sL795L
S'Jesse Schultz'
p7878
sL796L
S'David Griese'
p7879
sL797L
S'Jaehyung Ju'
p7880
sL798L
S'Lonny Thompson'
p7881
sL799L
S'Darren C. Knight'
p7882
sL800L
S'Pranay Kilaru'
p7883
sL801L
S'Ravi Vallepalli'
p7884
sL802L
S'Marcello Pellicciari'
p7885
sL803L
S'Giovanni Berselli'
p7886
sL804L
S'Francesco Leali'
p7887
sL805L
S'Alberto Vergnano'
p7888
sL806L
S'Bengt Lennartson'
p7889
sL807L
S'Dimitris M. Chatzigeorgiou'
p7890
sL808L
S'Kamal Youcef-Toumi'
p7891
sL809L
S'Atia E. Khalifa'
p7892
sL810L
S'Rached Ben-Mansour'
p7893
sL811L
S'Dane Freeman'
p7894
sL812L
S'Dongwook Lim'
p7895
sL813L
S'Elena Garcia'
p7896
sL814L
S'Dimitri Mavris'
p7897
sL815L
S'KyoungJong Park'
p7898
sL816L
S'Soon Chong Johnson Lim'
p7899
sL817L
S'Ying Liu'
p7900
sL818L
S'Wing Bun Lee'
p7901
sL819L
S'Efstratios Nikolaidis'
p7902
sL820L
S'Grzegorz Koscik'
p7903
sL821L
S'M. Hofwing'
p7904
sL822L
S'Kyung K. Choi'
p7905
sL823L
S'Harsheel Shah'
p7906
sL824L
S'Tolga Kurtoglu'
p7907
sL825L
S'Shen Lu'
p7908
sL826L
S'Jiantao Liu'
p7909
sL827L
S'Masoud Mojtahed'
p7910
sL828L
S'Qingtian Cai'
p7911
sL829L
S'Mostafa S. A. Elsayed'
p7912
sL830L
S'Corey Lynam'
p7913
sL831L
S'Abbas S. Milani'
p7914
sL832L
S'Hossein Rokni D. T.'
p7915
sL833L
S'Rudolf J. Seethaler'
p7916
sL834L
S'Jonathan Holzman'
p7917
sL835L
S'Luke Berglind'
p7918
sL836L
S'Roy Rusly'
p7919
sL837L
S'John D. DesJardins'
p7920
sL838L
S'Avinash Kolla'
p7921
sL839L
S'George Fadel'
p7922
sL840L
S'John C. Ziegert'
p7923
sL841L
S'Swaroop B. Visweswaraiah'
p7924
sL842L
S'Larry Lessard'
p7925
sL843L
S'Mohammad Alemi-Ardakani'
p7926
sL844L
S'Akbar Afaghi-Khatibi'
p7927
sL845L
S'Hady Parsaiyan'
p7928
sL846L
S'Kyle Stoker'
p7929
sL847L
S'Anirban Chaudhuri'
p7930
sL848L
S'Pieter E. Vermaas'
p7931
sL849L
S'Yeh-Liang Hsu'
p7932
sL850L
S'Po-Er Hsu'
p7933
sL851L
S'Yung-Chieh Hung'
p7934
sL852L
S'Ya-Dan Xiao'
p7935
sL853L
S'Dongxing Cao'
p7936
sL854L
S'Ming Wang Fu'
p7937
sL855L
S'Runli Zhang'
p7938
sL856L
S'Hilario L. Oh'
p7939
sL857L
S'Taesik Lee'
p7940
sL858L
S'Raymond Lipowski'
p7941
sL859L
S'Priyesh Malegaonkar'
p7942
sL860L
S'Saket Kansara'
p7943
sL861L
S'Abhinav Krishna Choudhary'
p7944
sL862L
S'Cari Bryant Arnold'
p7945
sL863L
S'Kerry R. Poppa'
p7946
sL864L
S'Robert B. Stone'
p7947
sL865L
S'Rachel Kuhr'
p7948
sL866L
S'Paolo Cicconi'
p7949
sL867L
S'Jillian Haldaman'
p7950
sL868L
S'D. Xue'
p7951
sL869L
S'G. Hua'
p7952
sL870L
S'V. Mehrad'
p7953
sL871L
S'P. Gu'
p7954
sL872L
S'Magdalena K. Chmarra'
p7955
sL873L
S'Jacques Verriet'
p7956
sL874L
S'Rene Waarsing'
p7957
sL875L
S'Tetsuo Tomiyama'
p7958
sL876L
S'Vance R. Murray'
p7959
sL877L
S'Jiliang Wang'
p7960
sL878L
S'Kazuhiro Oki'
p7961
sL879L
S'Kentaro Watanabe'
p7962
sL880L
S'Ryosuke Chiba'
p7963
sL881L
S'Weihang Zhu'
p7964
sL882L
S'Moslem Kazemi'
p7965
sL883L
S'Shahryar Rahnamayan'
p7966
sL884L
S'Kamal Gupta'
p7967
sL885L
S'Lindsay Hanna'
p7968
sL886L
S'George S. Ladkany'
p7969
sL887L
S'Mohamed B. Trabia'
p7970
sL888L
S'Christopher J. Garneau'
p7971
sL889L
S'Rita T. Willmann'
p7972
sL890L
S'Uwe Woessner'
p7973
sL891L
S'Christine Schoene'
p7974
sL892L
S'Ralph Stelzer'
p7975
sL893L
S'Ulf Schmidt'
p7976
sL894L
S'Dietmar Suesse'
p7977
sL895L
S'Swathi Routhu'
p7978
sL896L
S'Divya Kanakanala'
p7979
sL897L
S'Xiaoqing Frank Liu'
p7980
sL898L
S'Frank Liou'
p7981
sL899L
S'Yuki Hamasaki'
p7982
sL900L
S'Chi Zhou'
p7983
sL901L
S'David E. Lindstrom'
p7984
sL902L
S'Ke Li'
p7985
sL903L
S'Gilles Foucault'
p7986
sL905L
S'Jiangchuan Liu'
p7987
sL906L
S'Shunde Gao'
p7988
sL907L
S'Kaveh Mohamed'
p7989
sL908L
S'Kurt Sermeus'
p7990
sL909L
S'Eric Laurendeau'
p7991
sL910L
S'Gary Palmer, II'
p7992
sL911L
S'Sudhir Kaul'
p7993
sL912L
S'Markus Rippel'
p7994
sL913L
S'Christian Gogu'
p7995
sL914L
S'Songqing Shan'
p7996
sL915L
S'Cristina H. Amon'
p7997
sL916L
S'Susan Finger'
p7998
sL917L
S'Ching-Shin Norman Shiau'
p7999
sL918L
S'Nathan B. Schroeder'
p8000
sL919L
S'Anand Vedam'
p8001
sL920L
S'John E. Sneckenberger'
p8002
sL921L
S'Bryony L. Du Pont'
p8003
sL922L
S'Kerem Bayar'
p8004
sL923L
S'Beth Bezaire'
p8005
sL924L
S'Brad Cooley'
p8006
sL925L
S'John Kruckenberg'
p8007
sL926L
S'Eric Schacht'
p8008
sL927L
S'Shawn Midlam-Mohler'
p8009
sL928L
S'Giorgio Rizzoni'
p8010
sL929L
S'Katie Whitefoot'
p8011
sL930L
S'Jose Lebron'
p8012
sL931L
S'Zainab Hermes'
p8013
sL932L
S'Lotfi K. Gaafar'
p8014
sL933L
S'Michael J. Alexander'
p8015
sL934L
S'David J. Gorsich'
p8016
sL935L
S'Sam Nazari'
p8017
sL936L
S'Vincent Y. Blouin'
p8018
sL937L
S'Melissa Gardenghi'
p8019
sL938L
S'Benjamin Sloop'
p8020
sL939L
S'Peter Simov'
p8021
sL940L
S'Ayman M. A. Youssef'
p8022
sL941L
S'Avanti Jain'
p8023
sL942L
S'Rahul Sarnobat'
p8024
sL943L
S'Han Tong Loh'
p8025
sL944L
S'Aaron Bobuk'
p8026
sL945L
S'Laura A. Slingerland'
p8027
sL946L
S'Ben Donaldson'
p8028
sL947L
S'Karl Reichard'
p8029
sL948L
S'Daniel A. McAdams'
p8030
sL949L
S'Margaret Devendorf'
p8031
sL950L
S'Ramon C. Kuczera'
p8032
sL951L
S'Chun-Min Ho'
p8033
sL952L
S'Zhangqi Wang'
p8034
sL953L
S'Junfu Zhang'
p8035
sL954L
S'Sirisha Rangavajhala'
p8036
sL955L
S'Sankaran Mahadevan'
p8037
sL956L
S'Ramesh Rebba'
p8038
sL957L
S'Josef Oehmen'
p8039
sL958L
S'Mohammad Ben-Daya'
p8040
sL959L
S'Warren Seering'
p8041
sL960L
S'Muhammad Al-Salamah'
p8042
sL961L
S'Qi D. Van Eikema Hommes'
p8043
sL962L
S'Abhishek Kumar'
p8044
sL963L
S'Lorens Goksel'
p8045
sL964L
S'Huade Tan'
p8046
sL965L
S'John Goetz'
p8047
sL966L
S'Andre?s Tovar'
p8048
sL967L
S'John E. Renaud'
p8049
sL968L
S'Mustafa Arafa'
p8050
sL969L
S'Ayman Youssef'
p8051
sL970L
S'Ashraf Nassef'
p8052
sL972L
S'Farhad Javid'
p8053
sL973L
S'Renzo Cecere'
p8054
sL974L
S'Zheqi Lin'
p8055
sL975L
S'Shutian Liu'
p8056
sL976L
S'Matthew Watkins'
p8057
sL977L
S'Mark Jakiela'
p8058
sL978L
S'Toufic Azar'
p8059
sL979L
S'Jozsef Kovecses'
p8060
sL980L
S'Alireza Kasaiezadeh'
p8061
sL981L
S'Amir Khajepour'
p8062
sL982L
S'Hamid Jahed'
p8063
sL983L
S'M. I. Mgwatu'
p8064
sL984L
S'E. Z. Opiyo'
p8065
sL985L
S'M. A. M. Victor'
p8066
sL986L
S'Albert Swantner'
p8067
sL987L
S'Mohmmad M. A. Hanafy'
p8068
sL988L
S'Srikanth Tadepalli'
p8069
sL989L
S'Andrew H. Tilstra'
p8070
sL990L
S'Srikanth Devanathan'
p8071
sL991L
S'John Jung-Woon Yoo'
p8072
sL992L
S'Soundar R. T. Kumara'
p8073
sL993L
S'Yi-shih Lin'
p8074
sL994L
S'Aylmer Johnson'
p8075
sL995L
S'John Coultate'
p8076
sL996L
S'Jamie Pears'
p8077
sL997L
S'Anthony M. Roy'
p8078
sL998L
S'Erik K. Antonsson'
p8079
sL999L
S'Andrew A. Shapiro'
p8080
sL1000L
S'William Brace'
p8081
sL1001L
S'Eric Coatanea'
p8082
sL1002L
S'Heikki Kauranne'
p8083
sL1003L
S'Matti Heiska'
p8084
sL1004L
S'Christian Noon'
p8085
sL1005L
S'Yu-Xin Wang'
p8086
sL1006L
S'Yu-Tong Li'
p8087
sL1007L
S'Ryan S. Hutcheson'
p8088
sL1008L
S'Timothy P. Dietz'
p8089
sL1009L
S'Dennis Wang'
p8090
sL1010L
S'Kristen Kaufman'
p8091
sL1011L
S'Daniel D. Jensen'
p8092
sL1012L
S'Guillaume Jacquenot'
p8093
sL1013L
S'Jean-Jacques Maisonneuve'
p8094
sL1014L
S'Philippe Wenger'
p8095
sL1015L
S'Francois Christophe'
p8096
sL1016L
S'Raivo Sell'
p8097
sL1017L
S'Alain Bernard'
p8098
sL1018L
S'Shin Kikuchi'
p8099
sL1019L
S'Kathleen M. Hart'
p8100
sL1020L
S'Steven B. Shooter'
p8101
sL1021L
S'Jeffrey W. Herrmann'
p8102
sL1022L
S'David E. Johnson'
p8103
sL1023L
S'Richard Riesenfeld'
p8104
sL1024L
S'Elaine Cohen'
p8105
sL1025L
S'Sam Drake'
p8106
sL1026L
S'Chiradeep Sen'
p8107
sL1027L
S'Farhad Ameri'
p8108
sL1028L
S'Ming-Chuan Chiu'
p8109
sL1029L
S'Saraj Gupta'
p8110
sL1030L
S'Nanxin Wang'
p8111
sL1031L
S'Frank S. Koppelman'
p8112
sL1032L
S'Bart Frischknecht'
p8113
sL1033L
S'Panos Papalambros'
p8114
sL1034L
S'Ndrianarilala Rianantsoa'
p8115
sL1035L
S'Mark Drayer'
p8116
sL1036L
S'Fabrice Alizon'
p8117
sL1037L
S'Jean-Pierre Mathieu'
p8118
sL1038L
S'Sina Ghotbi'
p8119
sL1039L
S'Joseph A. Donndelinger'
p8120
sL1040L
S'Alex M. Ruderman'
p8121
sL1041L
S'Jiten Patel'
p8122
sL1042L
S'Cheng Qi'
p8123
sL1043L
S'Chenjie Wang'
p8124
sL1044L
S'Vivek Krishnamurthy'
p8125
sL1045L
S'Benjamin Klein'
p8126
sL1046L
S'Madhusudan Chakraborty'
p8127
sL1047L
S'Sudipto Ghosh'
p8128
sL1048L
S'C. S. Kumar'
p8129
sL1049L
S'David L. McDowell'
p8130
sL1050L
S'Xiaolei Yin'
p8131
sL1051L
S'Sanghoon Lee'
p8132
sL1052L
S'Robin McDougall'
p8133
sL1053L
S'Scott Nokleby'
p8134
sL1054L
S'Singiresu S. Rao'
p8135
sL1055L
S'Kiran K. Annamdas'
p8136
sL1056L
S'Masayuki Kawamoto'
p8137
sL1057L
S'Richard A. Waltz'
p8138
sL1058L
S'Ferruccio Mandorli'
p8139
sL1059L
S'Yue Wang'
p8140
sL1060L
S'Mitchell M. Tseng'
p8141
sL1061L
S'Andrew Hayes'
p8142
sL1062L
S'Jun Zhang'
p8143
sL1063L
S'Patrick J. Clasen'
p8144
sL1064L
S'Haipang Wu'
p8145
sL1065L
S'Yuqin Jiang'
p8146
sL1066L
S'Yusheng Liu'
p8147
sL1067L
S'S. M. Mahbub Murshed'
p8148
sL1068L
S'Adam Dixon'
p8149
sL1069L
S'Changya Yan'
p8150
sL1070L
S'Feng Gao'
p8151
sL1071L
S'Jie Chen'
p8152
sL1072L
S'Christoph Ertelt'
p8153
sL1073L
S'Daniel Bohnke'
p8154
sL1074L
S'Axel Reichwein'
p8155
sL1075L
S'Stephan Rudolph'
p8156
sL1076L
S'Luoting Fu'
p8157
sL1077L
S'Ehsan Tarkesh Esfahani'
p8158
sL1078L
S'V. Sundararajan'
p8159
sL1079L
S'Dong Zhao'
p8160
sL1080L
S'Deyi Xue'
p8161
sL1081L
S'Victor Picheny'
p8162
sL1082L
S'J. Gu'
p8163
sL1083L
S'G. Y. Li'
p8164
sL1084L
S'Z. Dong'
p8165
sL1085L
S'Dohyun Park'
p8166
sL1086L
S'Yongbin Lee'
p8167
sL1087L
S'Dong-Hoon Choi'
p8168
sL1088L
S'Liping Wang'
p8169
sL1089L
S'Don Beeson'
p8170
sL1090L
S'John Ziegert'
p8171
sL1091L
S'Dan Zhang'
p8172
sL1092L
S'Zhen Gao'
p8173
sL1093L
S'Beizhi Li'
p8174
sL1094L
S'M. Li'
p8175
sL1095L
S'N. Williams'
p8176
sL1096L
S'J. Hamel'
p8177
sL1097L
S'Veronica E. Marin'
p8178
sL1098L
S'Jose A. Rincon'
p8179
sL1099L
S'Jarod C. Kelly'
p8180
sL1100L
S'Deepak Sivaraman'
p8181
sL1101L
S'Gregory A. Keoleian'
p8182
sL1102L
S'Kazuhiro Izui'
p8183
sL1103L
S'Kiyoshi Yokota'
p8184
sL1104L
S'Masakazu Kobayashi'
p8185
sL1105L
S'Yuya Suzuki'
p8186
sL1106L
S'Masatake Higashi'
p8187
sL1107L
S'Adarsh Krishnamurthy'
p8188
sL1108L
S'Sara McMains'
p8189
sL1109L
S'Nikhil Kaushal'
p8190
sL1110L
S'G. Hong'
p8191
sL1111L
S'Y. L. Tu'
p8192
sL1112L
S'Peyman Karimian'
p8193
sL1113L
S'Clemens Mandl'
p8194
sL1114L
S'Chao-Ching Yen'
p8195
sL1115L
S'Sagar Chowdhury'
p8196
sL1116L
S'Madan Mohan Dabbeeru'
p8197
sL1117L
S'Amitabha Mukerjee'
p8198
sL1118L
S'Jianxin Roger Jiao'
p8199
sL1119L
S'Songlin Chen'
p8200
sL1120L
S'Daqing Zhang'
p8201
sL1121L
S'Jun Shu'
p8202
sL1122L
S'Koji Kimita'
p8203
sL1123L
S'Kai-Hsun Hsu'
p8204
sL1124L
S'Nikita Thakur'
p8205
sL1125L
S'Andy Keane'
p8206
sL1126L
S'Prasanth B. Nair'
p8207
sL1127L
S'Robert C. Leishman'
p8208
sL1128L
S'Kenneth W. Chase'
p8209
sL1129L
S'Magnus Hofwing'
p8210
sL1130L
S'Sundeep Samson'
p8211
sL1131L
S'Sravya Thoomu'
p8212
sL1132L
S'James Reneke'
p8213
sL1133L
S'Amir Heidari'
p8214
sL1134L
S'Liu Du'
p8215
sL1135L
S'Sunmin Yook'
p8216
sL1136L
S'Gabseong Lee'
p8217
sL1137L
S'Sang-Joon Yoon'
p8218
sL1138L
S'Jae-Yong Park'
p8219
sL1139L
S'S. Al Hashimi'
p8220
sL1140L
S'A. Almansoori'
p8221
sL1141L
S'N. Al-Qasas'
p8222
sL1142L
S'Fenfen Xiong'
p8223
sL1143L
S'Ying Xiong'
p8224
sL1144L
S'Steven Greene'
p8225
sL1145L
S'Shuxing Yang'
p8226
sL1146L
S'Paul Arendt'
p8227
sL1147L
S'Sang Bum Kim'
p8228
sL1148L
S'Lianshui Guo'
p8229
sL1149L
S'Atsuro Iga'
p8230
sL1150L
S'Shikui Chen'
p8231
sL1151L
S'James M. Gibert'
p8232
sL1152L
S'Margherita Peruzzini'
p8233
sL1153L
S'Mary Frecker'
p8234
sL1154L
S'George Lesieutre'
p8235
sL1155L
S'Utkarsh Seth'
p8236
sL1156L
S'Hai-Jun Su'
p8237
sL1157L
S'Judy M. Vance'
p8238
sL1158L
S'David Wolf'
p8239
sL1159L
S'Jinling Wang'
p8240
sL1160L
S'Wen F. Lu'
p8241
sL1161L
S'Markus Dihlmann'
p8242
sL1162L
S'Roy Awedikian'
p8243
sL1163L
S'Chan Yu'
p8244
sL1164L
S'Kishore Pochiraju'
p8245
sL1165L
S'Souran Manoochehri'
p8246
sL1166L
S'Yun Seon Kim'
p8247
sL1167L
S'Kyoung-Yun Joseph Kim'
p8248
sL1168L
S'Wooi Ping Cheah'
p8249
sL1169L
S'Hyung-Jeong Yang'
p8250
sL1170L
S'Kyoung-Yun Kim'
p8251
sL1171L
S'Keunho Choi'
p8252
sL1172L
S'Shuting Zhang'
p8253
sL1173L
S'Xiang Chen'
p8254
sL1174L
S'Youdong Yang'
p8255
sL1175L
S'Domenico Spensieri'
p8256
sL1176L
S'Robert Bohlin'
p8257
sL1177L
S'Vernet Lasrado'
p8258
sL1178L
S'Devendra Alhat'
p8259
sL1179L
S'Sanghon Lee'
p8260
sL1180L
S'M. F. Horstemeyer'
p8261
sL1181L
S'Jay Patel'
p8262
sL1182L
S'Wenyong Ma'
p8263
sL1183L
S'Delun Wang'
p8264
sL1184L
S'Kwun-Lon Ting'
p8265
sL1185L
S'Ke-Zheng Huang'
p8266
sL1186L
S'Huai-Wei Ren'
p8267
sL1187L
S'Yongmao Gu'
p8268
sL1188L
S'Haipeng Jia'
p8269
sL1189L
S'Ali Kamyab'
p8270
sL1190L
S'Kemper E. Lewis'
p8271
sL1191L
S'Ilaria Cristofolini'
p8272
sL1192L
S'Stefano Filippi'
p8273
sL1193L
S'Daisuke Tsutsumi'
p8274
sL1194L
S'Meryvn Fathianathan'
p8275
sL1195L
S'Rachel Hannah'
p8276
sL1196L
S'Ashwin Michaelraj'
p8277
sL1197L
S'Artemis Kloess'
p8278
sL1198L
S'Mohamed Chookah'
p8279
sL1199L
S'Mohammad Nuhi'
p8280
sL1200L
S'Mohammad Modarres'
p8281
sL1201L
S'Abdennour Seibi'
p8282
sL1202L
S'Matthias Kreimeyer'
p8283
sL1203L
S'Stefanie Braun'
p8284
sL1204L
S'Matthias Gurtler'
p8285
sL1205L
S'Udo Lindemann'
p8286
sL1206L
S'Li Chen'
p8287
sL1207L
S'Benjamin W. Caldwell'
p8288
sL1208L
S'Aida Khajavirad'
p8289
sL1209L
S'X. Y. Shao'
p8290
sL1210L
S'Q. Cheng'
p8291
sL1211L
S'G. J. Zhang'
p8292
sL1212L
S'P. G. Li'
p8293
sL1213L
S'P. H. Gu'
p8294
sL1214L
S'Jason M. Weaver'
p8295
sL1215L
S'Lieke Arts'
p8296
sL1216L
S'Ching-Shin Shiau'
p8297
sL1217L
S'Bruce Ankenman'
p8298
sL1218L
S'Antoine Dagher'
p8299
sL1219L
S'Jean-Francois Petiot'
p8300
sL1220L
S'Herve Guyon'
p8301
sL1221L
S'Jeffrey A. Robinson'
p8302
sL1222L
S'Luke A. Wissmann'
p8303
sL1223L
S'Deepak Sankar Somasundaram'
p8304
sL1224L
S'Dan Carlsen'
p8305
sL1225L
S'Matthew Malone'
p8306
sL1226L
S'Josh Kollat'
p8307
sL1227L
S'Christopher D. Congdon'
p8308
sL1228L
S'Daniel E. Carlsen'
p8309
sL1229L
S'Mohamed M. Saada'
p8310
sL1230L
S'Mustafa H. Arafa'
p8311
sL1231L
S'Alireza Saremi'
p8312
sL1232L
S'Amir H. Birjandi'
p8313
sL1233L
S'Tarek ElMekkawy'
p8314
sL1234L
S'Santosh Tiwari'
p8315
sL1235L
S'Peter Fenyes'
p8316
sL1236L
S'Peihua Gu'
p8317
sL1237L
S'Nengsheng Bao'
p8318
sL1238L
S'Guojun Zhang'
p8319
sL1239L
S'Matthew P. Reed'
p8320
sL1240L
S'Yi Zhang'
p8321
sL1241L
S'Robert C. Fromuth'
p8322
sL1242L
S'Yaoyao F. Zhao'
p8323
sL1243L
S'Xun W. Xu'
p8324
sL1244L
S'Sheng Q. Xie'
p8325
sL1245L
S'Tom R. Kramer'
p8326
sL1246L
S'Fred M. Proctor'
p8327
sL1247L
S'John L. Michaloski'
p8328
sL1248L
S'Lie Tang'
p8329
sL1249L
S'Robert G. Landers'
p8330
sL1250L
S'Andreas Kain'
p8331
sL1251L
S'Frank Hoisl'
p8332
sL1252L
S'Faryar Etesami'
p8333
sL1253L
S'Yu Song'
p8334
sL1254L
S'Joris S. M. Vergeest'
p8335
sL1255L
S'Tjamme Wiegers'
p8336
sL1256L
S'Huseyin Erdim'
p8337
sL1257L
S'J.-P. Pernot'
p8338
sL1258L
S'B. Falcidieno'
p8339
sL1259L
S'F. Giannini'
p8340
sL1260L
S'J.-C. Leon'
p8341
sL1261L
S'Duane Storti'
p8342
sL1262L
S'Mark Ganter'
p8343
sL1263L
S'Karim A. Aguib'
p8344
sL1264L
S'Keith A. Hekman'
p8345
sL1265L
S'Tomohiro Mizoguchi'
p8346
sL1266L
S'Satoshi Kanai'
p8347
sL1267L
S'Steven Turek'
p8348
sL1268L
S'Sam Anand'
p8349
sL1269L
S'Carlos A. Trujillo'
p8350
sL1270L
S'Qiaode Jeffrey Ge'
p8351
sL1271L
S'XiaoLin Hu'
p8352
sL1272L
S'Jason Parise'
p8353
sL1273L
S'Hsin-Pao Chen'
p8354
sL1275L
S'Kaarthic Madhavan'
p8355
sL1276L
S'Danny A. Hlavinka'
p8356
sL1277L
S'Walt Benson'
p8357
sL1278L
S'H. A. Chowdhury'
p8358
sL1279L
S'A. G. Olabi'
p8359
sL1280L
S'Bo Holmgren'
p8360
sL1281L
S'Wei-Ju Chen'
p8361
sL1282L
S'Ching-Jui Chang'
p8362
sL1283L
S'Matthew K. Chamberlain'
p8363
sL1284L
S'M. Messer'
p8364
sL1285L
S'J. H. Panchal'
p8365
sL1286L
S'J. K. Allen'
p8366
sL1287L
S'F. Mistree'
p8367
sL1288L
S'V. Krishnamurthy'
p8368
sL1289L
S'B. Klein'
p8369
sL1290L
S'P. D. Yoder'
p8370
sL1291L
S'Yosuke Kikuchi'
p8371
sL1292L
S'Youji Hiraoka'
p8372
sL1293L
S'Daniel Wehrwein'
p8373
sL1294L
S'Xingjie Fang'
p8374
sL1295L
S'Gene Wiggs'
p8375
sL1296L
S'Vijay K. Kalivarapu'
p8376
sL1297L
S'Brian D. Roth'
p8377
sL1298L
S'Ilan M. Kroo'
p8378
sL1299L
S'Kenji Doi'
p8379
sL1300L
S'Yu Yoshimura'
p8380
sL1301L
S'Sisi Xuanyuan'
p8381
sL1302L
S'Zhaoliang Jiang'
p8382
sL1303L
S'Lalit Patil'
p8383
sL1304L
S'Yan Li'
p8384
sL1305L
S'Zhaoqian Li'
p8385
sL1306L
S'Richard Hauffe'
p8386
sL1307L
S'Constantine Samaras'
p8387
sL1308L
S'Rhys-Sheffer Birthwright'
p8388
sL1309L
S'Timothy Harren-Lewis'
p8389
sL1310L
S'Peter Sandborn'
p8390
sL1311L
S'Varun Prabhakar'
p8391
sL1312L
S'Bo Eriksson'
p8392
sL1313L
S'Jiachuan Wang'
p8393
sL1314L
S'Trevor Bailey'
p8394
sL1315L
S'Yao Lin'
p8395
sL1316L
S'Jing Fu'
p8396
sL1317L
S'Sanjay B. Joshi'
p8397
sL1318L
S'Tucker J. Marion'
p8398
sL1319L
S'Ronald S. Farrell'
p8399
sL1320L
S'Xiaoli Ye'
p8400
sL1321L
S'John K. Gershenson'
p8401
sL1322L
S'Geng Zhang'
p8402
sL1323L
S'Erdem Acar'
p8403
sL1324L
S'Kiran Solanki'
p8404
sL1325L
S'Mark F. Horstemeyer'
p8405
sL1326L
S'Chih-Hao Liu'
p8406
sL1327L
S'Albert Albers'
p8407
sL1328L
S'Jens Ottnad'
p8408
sL1329L
S'Pascal Haussler'
p8409
sL1330L
S'Johannes Minx'
p8410
sL1331L
S'Deepak Sharma'
p8411
sL1332L
S'Kalyanmoy Deb'
p8412
sL1333L
S'N. N. Kishore'
p8413
sL1334L
S'Thomas Kormeier'
p8414
sL1335L
S'Mohamed S. Senousy'
p8415
sL1336L
S'T. Yamamoto'
p8416
sL1337L
S'S. Maruyama'
p8417
sL1338L
S'S. Nishiwaki'
p8418
sL1339L
S'M. Yoshimura'
p8419
sL1340L
S'Loris Barbieri'
p8420
sL1341L
S'Fabio Bruno'
p8421
sL1342L
S'Maurizio Muzzupappa'
p8422
sL1343L
S'Umberto Cugini'
p8423
sL1344L
S'Ali R. Yildiz'
p8424
sL1345L
S'Hossein Ghiasi'
p8425
sL1346L
S'Dong Luo'
p8426
sL1347L
S'Xuyuan Liu'
p8427
sL1348L
S'Kwok-Leung Tsui'
p8428
sL1349L
S'H. Sarin'
p8429
sL1350L
S'M. Kokkolaras'
p8430
sL1351L
S'G. Hulbert'
p8431
sL1352L
S'P. Papalambros'
p8432
sL1353L
S'S. Barbat'
p8433
sL1354L
S'R.-J. Yang'
p8434
sL1355L
S'Waleed M. A. Abd El-Hady'
p8435
sL1356L
S'Masanori Kuriyama'
p8436
sL1357L
S'Takashi Suyama'
p8437
sL1358L
S'Joshua Summers'
p8438
sL1359L
S'Gilberto Mejia Rodriguez'
p8439
sL1360L
S'Vikas Tomar'
p8440
sL1361L
S'Chandan Mozumder'
p8441
sL1362L
S'Manasi Tamhankar'
p8442
sL1363L
S'Chaitanya Vempati'
p8443
sL1364L
S'Andreas A. Malikopoulos'
p8444
sL1365L
S'Dennis N. Assanis'
p8445
sL1366L
S'Nuogang Sun'
p8446
sL1367L
S'Youyun Zhang'
p8447
sL1368L
S'Xuesong Mei'
p8448
sL1369L
S'Yoshinobu Kitamura'
p8449
sL1370L
S'Sunao Takafuji'
p8450
sL1371L
S'Riichiro Mizoguchi'
p8451
sL1372L
S'Jihong Liu'
p8452
sL1373L
S'Yong Wang'
p8453
sL1374L
S'C. Jebaraj'
p8454
sL1375L
S'G. Balakrishnan'
p8455
sL1376L
S'Zhiqiang Chen'
p8456
sL1377L
S'Ashwin P. Gurnani'
p8457
sL1378L
S'Ian H. Tseng'
p8458
sL1379L
S'Andrew W. Heutchy'
p8459
sL1380L
S'Jeremy Michalek'
p8460
sL1381L
S'Surya Swamy'
p8461
sL1382L
S'Andrew T. Olewnik'
p8462
sL1383L
S'Zhuming Bi'
p8463
sL1384L
S'Yunjian Ge'
p8464
sL1385L
S'Y. Li'
p8465
sL1386L
S'Afreen Siddiqi'
p8466
sL1387L
S'Ruoning Xu'
p8467
sL1388L
S'Hungjen Wang'
p8468
sL1389L
S'Daniel D. Frey'
p8469
sL1390L
S'Gordon M. Kaufman'
p8470
sL1391L
S'Nasr Al-Hinai'
p8471
sL1392L
S'Amir-R. Khorsand'
p8472
sL1393L
S'J. Raghavan'
p8473
sL1394L
S'Umakanth Sakaray'
p8474
sL1395L
S"Brendan J. O'Toole"
p8475
sL1396L
S'Yuan Mao Huang'
p8476
sL1397L
S'Kuo Juei Wang'
p8477
sL1398L
S'Sankara Hari Gopalakrishnan'
p8478
sL1399L
S'Tiefu Shao'
p8479
sL1400L
S'Sundar Krishnamurthy'
p8480
sL1401L
S'I. Jessica Hidalgo'
p8481
sL1402L
S'Jing Han'
p8482
sL1403L
S'Koetsu Yamazaki'
p8483
sL1404L
S'Sadao Nishiyama'
p8484
sL1405L
S'Ryoichi Itoh'
p8485
sL1406L
S'Takanori Chihara'
p8486
sL1407L
S'Lan Ren'
p8487
sL1408L
S'Kunnayut Eiamsa-ard'
p8488
sL1409L
S'Saneet A. Jawalkar'
p8489
sL1410L
S'Pinghai Yang'
p8490
sL1411L
S'Kezheng Huang'
p8491
sL1412L
S'Yifan Chen'
p8492
sL1413L
S'Basavaraj Tonshal'
p8493
sL1414L
S'Tetsuzo Kuragano'
p8494
sL1415L
S'Akira Yamaguchi'
p8495
sL1416L
S'Hiroshi Masuda'
p8496
sL1417L
S'Kenta Ogawa'
p8497
sL1418L
S'Brian Bay'
p8498
sL1419L
S'Mike Bailey'
p8499
sL1420L
S'Xiaorui Chen'
p8500
sL1421L
S'Mark A. Ganter'
p8501
sL1422L
S'William R. Ledoux'
p8502
sL1423L
S'Randal P. Ching'
p8503
sL1424L
S'Yangqiu Patrick Hu'
p8504
sL1425L
S'David Haynor'
p8505
sL1426L
S'Y. Song'
p8506
sL1427L
S'J. S. M. Vergeest'
p8507
sL1428L
S'Nier Wu'
p8508
sL1429L
S'Horea Ilies'
p8509
sL1430L
S'Hiroaki Date'
p8510
sL1431L
S'Takeshi Kishinami'
p8511
sL1432L
S'R. J. Yang'
p8512
sL1433L
S'G. Li'
p8513
sL1434L
S'Y. Fu'
p8514
sL1435L
S'Wouter O. Schotborgh'
p8515
sL1436L
S'Maarten H. L. Roring'
p8516
sL1437L
S'Roxana Grigoras'
p8517
sL1438L
S'Frans G. M. Kokkeler'
p8518
sL1439L
S'Hans Tragter'
p8519
sL1440L
S'Fred J. A. M. van Houten'
p8520
sL1441L
S'Deepak Kumar'
p8521
sL1442L
S'Gianna Gomez-Levi'
p8522
sL1443L
S'Madhusudan Kayyar'
p8523
sL1444L
S'Sherrill Biggers'
p8524
sL1445L
S'Yasushi Suehisa'
p8525
sL1446L
S'Hallie J. Kintner'
p8526
sL1447L
S'Satish K. Bapanapalli'
p8527
sL1448L
S'Shaoluo L. Butler'
p8528
sL1449L
S'Jeongwoo Han'
p8529
sL1450L
S'Yanjing Li'
p8530
sL1451L
S'Zhaosong Lu'
p8531
sL1452L
S'Jitendra Prasad'
p8532
sL1453L
S'Alejandro R. Diaz'
p8533
sL1454L
S'Hannah Muchnick'
p8534
sL1455L
S'Thomas R. Langerak'
p8535
sL1456L
S'Samuel Sai-Man Li'
p8536
sL1457L
S'Charlie C. L. Wang'
p8537
sL1458L
S'Kin-Chuen Hui'
p8538
sL1459L
S'Athulan Vijayaraghavan'
p8539
sL1460L
S'David A. Dornfeld'
p8540
sL1461L
S'Vadivel Jagasivamani'
p8541
sL1462L
S'Ayman Wasfy'
p8542
sL1463L
S'David W. Hislop'
p8543
sL1464L
S'Koichi Sasaki'
p8544
sL1465L
S'Toru Matsushima'
p8545
sL1466L
S'Shintarou Yamasaki'
p8546
sL1467L
S'Shiva Sander-Tavallaey'
p8547
sL1468L
S'Bjorn Johansson'
p8548
sL1469L
S'Henri J. Thevenot'
p8549
sL1470L
S'Jaeil Park'
p8550
sL1471L
S'Huijun Song'
p8551
sL1472L
S'Yiliu Tu'
p8552
sL1473L
S'Bryan R. Dolan'
p8553
sL1474L
S'Shafin Tauhid'
p8554
sL1475L
S'Hakan U. Artar'
p8555
sL1477L
S'Haruki Kariya'
p8556
sL1478L
S'Yoshiya Ogihara'
p8557
sL1479L
S'Shuichi Hayashi'
p8558
sL1480L
S'Roger Jianxin Jiao'
p8559
sL1481L
S'Linda Lianfeng Zhang'
p8560
sL1482L
S'Mohit Goswami'
p8561
sL1483L
S'Venkat Allada'
p8562
sL1484L
S'Chang Muk Kang'
p8563
sL1485L
S'Yoo Suk Hong'
p8564
sL1486L
S'Lihui Wang'
p8565
sL1487L
S'Hsi-Yung Feng'
p8566
sL1488L
S'Changjin Song'
p8567
sL1489L
S'Wei Jin'
p8568
sL1490L
S'Yee Mey Goh'
p8569
sL1491L
S'Chris McMahon'
p8570
sL1492L
S'Julian Booker'
p8571
sL1493L
S'Li Du'
p8572
sL1494L
S'Liping He'
p8573
sL1495L
S'Michael Latcha'
p8574
sL1496L
S'Walid Ben Ahmed'
p8575
sL1497L
S'Jason Matthew Aughenbaugh'
p8576
sL1498L
S'Nam-Ho Kim'
p8577
sL1499L
S'S. Shan'
p8578
sL1500L
S'Lee J. Wells'
p8579
sL1501L
S'Sang Hoon Lee'
p8580
sL1502L
S'Felipe Antonio Chegury Viana'
p8581
sL1503L
S'Fernando Cesar Gama de Oliveira'
p8582
sL1504L
S'Jose Antonio Ferreria Borges'
p8583
sL1505L
S'Valder Steffen, Jr.'
p8584
sL1506L
S'Anupam Saxena'
p8585
sL1507L
S'Fabien Nicaise'
p8586
sL1508L
S'Daniela Faas'
p8587
sL1509L
S'Andrew Fischer'
p8588
sL1510L
S'Sara Lego'
p8589
sL1511L
S'Mike Yukish'
p8590
sL1512L
S'Monica Bordegoni'
p8591
sL1513L
S'Daniel R. Abbott'
p8592
sL1514L
S'Katie Grantham Lough'
p8593
sL1515L
S'Ruqin Zhang'
p8594
sL1516L
S'James H. Oliver'
p8595
sL1517L
S'Brian Gilmore'
p8596
sL1518L
S'Jerry Duncan'
p8597
sL1519L
S'Robert L. Jordan, Jr.'
p8598
sL1520L
S'Janis P. Terpenny'
p8599
sL1521L
S'Xiaomeng Chang'
p8600
sL1522L
S'Jian Wan'
p8601
sL1523L
S'Srinivasan Anandan'
p8602
sL1524L
S'Sudhakar Teegavarapu'
p8603
sL1525L
S'Yuming Qiu'
p8604
sL1526L
S'Ping Ge'
p8605
sL1527L
S'Solomon C. Yim'
p8606
sL1528L
S'Jayaram Gopalakrishnan'
p8607
sL1529L
S'Khurshid Qureshi'
p8608
sL1530L
S'Jonathan Osborn'
p8609
sL1531L
S'Timothy J. Troy'
p8610
sL1532L
S'Gregory Smith'
p8611
sL1533L
S'Murali M. R. Krishna'
p8612
sL1534L
S'Aaron Stange'
p8613
sL1535L
S'Byung-Soo Kang'
p8614
sL1536L
S'Sebastien J. Wolff'
p8615
sL1537L
S'Imme Ebert-Uphoff'
p8616
sL1538L
S'Tsuyoshi Koga'
p8617
sL1539L
S'Yu-Chung Liao'
p8618
sL1540L
S'Zhijun Li'
p8619
sL1541L
S'Luis E. Izquierdo'
p8620
sL1542L
S'S. Jack Hu'
p8621
sL1543L
S'Kevin McBrearty'
p8622
sL1544L
S'Sanjay Joshi'
p8623
sL1545L
S'Michiki Nakano'
p8624
sL1546L
S'Pietro Buttolo'
p8625
sL1547L
S'Amol Ghorpade'
p8626
sL1548L
S'Yogesh Dashroa'
p8627
sL1549L
S'M. K. Tiwari'
p8628
sL1550L
S'K. P. Karunakaran'
p8629
sL1551L
S'Jafar Jamshidi'
p8630
sL1552L
S'Antony Roy Mileham'
p8631
sL1553L
S'Geraint Wyn Owen'
p8632
sL1554L
S'Gaurav Ameta'
p8633
sL1555L
S'Q. J. Ge'
p8634
sL1556L
S'Ramy Harik'
p8635
sL1557L
S'Gabriel Ris'
p8636
sL1558L
S'Kazuyuki Sugimura'
p8637
sL1559L
S'Naesung Lyu'
p8638
sL1560L
S'Amane Shimura'
p8639
sL1561L
S'Pradeep George'
p8640
sL1562L
S'Tomohiro Taguchi'
p8641
sL1563L
S'Madara Ogot'
p8642
sL1564L
S'Girish Rao'
p8643
sL1565L
S'Marcus Sandberg'
p8644
sL1566L
S'Tobias Larsson'
p8645
sL1567L
S'Tyler Streeter'
p8646
sL1568L
S'James Oliver'
p8647
sL1569L
S'Adrian Sannier'
p8648
sL1570L
S'Mark Snider'
p8649
sL1571L
S'D. Scott Hesser'
p8650
sL1572L
S'Genzi Li'
p8651
sL1573L
S'Vladimir Gantovnik'
p8652
sL1574L
S'Zafer Gurdal'
p8653
sL1575L
S'Sundar Krishnamurty'
p8654
sL1576L
S'Abdelbasset Hamdi'
p8655
sL1577L
S'Eric Landel'
p8656
sL1578L
S'Jordan J. Cox'
p8657
sL1579L
S'Brent L. Adams'
p8658
sL1580L
S'David T. Fullwood'
p8659
sL1581L
S'Denise Halverson'
p8660
sL1582L
S'Peng Wei'
p8661
sL1583L
S'Ki-Hoon Shin'
p8662
sL1584L
S'Long Ge'
p8663
sL1585L
S'Gerald R. Bourne'
p8664
sL1586L
S'W. Gregory Sawyer'
p8665
sL1587L
S'Aravind Alwan'
p8666
sL1588L
S'G. K. Ananthasuresh'
p8667
sL1589L
S'Carolyn Conner Seepersad'
p8668
sL1590L
S'Stephanie C. Thompson'
p8669
sL1591L
S'Emad Samadiani'
p8670
sL1592L
S'Yogendra Joshi'
p8671
sL1593L
S'David Ferrari'
p8672
sL1594L
S'Geoff West'
p8673
sL1595L
S'Bernard Rolfe'
p8674
sL1596L
S'Michael Cardew-Hall'
p8675
sL1597L
S'Wei Zhao'
p8676
sL1598L
S'Jiaqin Chen'
p8677
sL1599L
S'Vadim Shapiro'
p8678
sL1600L
S'Igor Tsukanov'
p8679
sL1601L
S'Xiangdong Yang'
p8680
sL1602L
S'Dongchao Yang'
p8681
sL1603L
S'Jing Xiong'
p8682
sL1604L
S'Ken Chen'
p8683
sL1605L
S'Ting-Li Yang'
p8684
sL1606L
S'Hong Dong'
p8685
sL1607L
S'Sourav Rakshit'
p8686
sL1608L
S'Hiroshi Yamakawa'
p8687
sL1609L
S'Francesca Bolognini'
p8688
sL1610L
S'Christopher W. Vale'
p8689
sL1611L
S'Ashwin A. Seshia'
p8690
sL1612L
S'Vijitha Kiridena'
p8691
sL1613L
S'Steven Sieczka'
p8692
sL1614L
S'David Pulliam'
p8693
sL1615L
S'Elizabeth A. Cudney'
p8694
sL1616L
S'Kioumars Paryani'
p8695
sL1617L
S'Kenneth M. Ragsdell'
p8696
sL1618L
S'Nan Liu'
p8697
sL1619L
S'K. H. Ko'
p8698
sL1620L
S'Paul Witherell'
p8699
sL1621L
S'Ian R. Grosse'
p8700
sL1622L
S'Jeffrey D. Wishart'
p8701
sL1623L
S'Marc M. Secanell'
p8702
sL1624L
S'Ali Farhang Mehr'
p8703
sL1625L
S'Eun Suk Suh'
p8704
sL1626L
S'Tucker Marion'
p8705
sL1627L
S'Olivier de Weck'
p8706
sL1629L
S'Steve B. Shooter'
p8707
sL1630L
S'Elizabeth D. Steva'
p8708
sL1631L
S'Elizabeth N. Rice'
p8709
sL1632L
S'Juan Carlos Garcia Arenillas'
p8710
sL1633L
S'Somasundaram Valliyappan'
p8711
sL1634L
S'Ritesh A. Khire'
p8712
sL1635L
S'Darren A. Keese'
p8713
sL1636L
S'Neha P. Takawale'
p8714
sL1637L
S'Huibin Lui'
p8715
sL1638L
S'Bernhard Bettig'
p8716
sL1639L
S'Abhijit K. Choudhury'
p8717
sL1640L
S'Padmavathi K. Pakala'
p8718
sL1641L
S'Stewart M. Skiles'
p8719
sL1642L
S'Vikramjit Singh'
p8720
sL1643L
S'Jarden Krager'
p8721
sL1644L
S'Kuntal Samanta'
p8722
sL1645L
S'Bahattin Koc'
p8723
sL1646L
S'F. W. Liou'
p8724
sL1647L
S'H. Choset'
p8725
sL1648L
S'Rahul Khardekar'
p8726
sL1649L
S'Abdalla Elbella'
p8727
sL1650L
S'Vishal Rami'
p8728
sL1651L
S'Jyothi Hogirala'
p8729
sL1652L
S'Scott Duncan'
p8730
sL1653L
S'Bert Bras'
p8731
sL1654L
S'Jun Zhou'
p8732
sL1655L
S'Morgan Bruns'
p8733
sL1656L
S'Jinghong Liang'
p8734
sL1657L
S'Apurva Kumar'
p8735
sL1658L
S'A. J. Keane'
p8736
sL1659L
S'P. B. Nair'
p8737
sL1660L
S'S. Shahpar'
p8738
sL1661L
S'Irem Tumer'
p8739
sL1662L
S'Steven J. Skerlos'
p8740
sL1663L
S'Subroto Gunawan'
p8741
sL1664L
S'Jun Liu'
p8742
sL1665L
S'Shuchun Wang'
p8743
sL1666L
S'Moh Sabeur'
p8744
sL1667L
S'Yu Kimishima'
p8745
sL1668L
S'Hideki Aoyama'
p8746
sL1669L
S'Asli Sahin'
p8747
sL1670L
S'Richard M. Goff'
p8748
sL1671L
S'Vivek Attaluri'
p8749
sL1672L
S'Andrea De Crescenzo'
p8750
sL1673L
S'Andreas Nordgren'
p8751
sL1674L
S'Mounib Mekhilef'
p8752
sL1675L
S'Michel Bigand'
p8753
sL1676L
S'Yves Page'
p8754
sL1677L
S'Kevin Rawson'
p8755
sL1678L
S'Thomas F. Stahovich'
p8756
sL1679L
S'Kaivan Kamali'
p8757
sL1680L
S'Lijun Jiang'
p8758
sL1681L
S'John Yen'
p8759
sL1682L
S'K. W. Wang'
p8760
sL1683L
S'Q. Z. Yang'
p8761
sL1684L
S'W. F. Lu'
p8762
sL1685L
S'Vincent Chanron'
p8763
sL1686L
S'Yayoi Murase'
p8764
sL1687L
S'Deborah J. Medeiros'
p8765
sL1688L
S'Tsutomu Nishimura'
p8766
sL1689L
S'Peter Hehenberger'
p8767
sL1690L
S'Klaus Zeman'
p8768
sL1691L
S'H. Yang'
p8769
sL1692L
S'Petter Krus'
p8770
sL1693L
S'Haoyu Wang'
p8771
sL1694L
S'Utpal Roy'
p8772
sL1695L
S'A. R. Rao'
p8773
sL1696L
S'J. P. Scanlan'
p8774
sL1697L
S'Tung-King See'
p8775
sL1698L
S'Oben Ceryan'
p8776
sL1699L
S'Yoram Koren'
p8777
sL1700L
S'Anoop A. Mullur'
p8778
sL1701L
S'Kenji Iino'
p8779
sL1702L
S'Yotaro Hatamura'
p8780
sL1703L
S'Masumi Sekita'
p8781
sL1704L
S'Masahiro Terabe'
p8782
sL1705L
S'Naohiro Yabuta'
p8783
sL1706L
S'Jun Kawai'
p8784
sL1707L
S'Takeo Ohashi'
p8785
sL1708L
S'Masayuki Nakao'
p8786
sL1709L
S'K. H. Hwang'
p8787
sL1710L
S'G. J. Park'
p8788
sL1711L
S'Eliab Z. Opiyo'
p8789
sL1712L
S'James Allison'
p8790
sL1713L
S'Ashwin Gurnani'
p8791
sL1714L
S'Masao Arakawa'
p8792
sL1715L
S'Johan Andersson'
p8793
sL1716L
S'Tomoki Ushiro'
p8794
sL1717L
S'Noriyasu Hirokawa'
p8795
sL1718L
S'Hlynur Kristinsson'
p8796
sL1719L
S'Magnus Thor Jonsson'
p8797
sL1720L
S'Fjola Jonsdottir'
p8798
sL1721L
S'Maged R. Abd El Malek'
p8799
sL1722L
S'Faysal Moreno'
p8800
sL1723L
S'Manuel-Angel Gonzalez-Chapa'
p8801
sL1724L
S'Jose-Ramon Vega-Galaz'
p8802
sL1725L
S'Brian C. Fabien'
p8803
sL1726L
S'Lance M. Powers'
p8804
sL1727L
S'Peter Hallberg'
p8805
sL1728L
S'Lars Austrin'
p8806
sL1729L
S'Marco Gero Fernandez'
p8807
sL1730L
S'Alex C. Starling'
p8808
sL1731L
S'Xiang Li'
p8809
sL1732L
S'Ali Saeed'
p8810
sL1733L
S'Roland Stolt'
p8811
sL1734L
S'Robert Scott Pierce'
p8812
sL1735L
S'David Rosen'
p8813
sL1736L
S'Talib Bhabhrawala'
p8814
sL1737L
S'Venkat Krovi'
p8815
sL1738L
S'V. Cheutet'
p8816
sL1739L
S'J. P. Pernot'
p8817
sL1740L
S'J. C. Leon'
p8818
sL1741L
S'Shingo Takeuchi'
p8819
sL1742L
S'Hongqing Wang'
p8820
sL1743L
S'Jarek Rossignac'
p8821
sL1744L
S'Shiqiao Li'
p8822
sL1745L
S'Yi Miao'
p8823
sL1746L
S'Dhanannjay Deo'
p8824
sL1747L
S'Dibakar Sen'
p8825
sL1748L
S'Zhengshu Shen'
p8826
sL1749L
S'Sun Yuguo'
p8827
sL1750L
S'Young-Il Kim'
p8828
sL1751L
S'Cha-Soo Jun'
p8829
sL1752L
S'Yuliang Shen'
p8830
sL1753L
S'Shaopu Yang'
p8831
sL1754L
S'Cunzhi Pan'
p8832
sL1755L
S'Kiyoung Yi'
p8833
sL1756L
S'Nam H. Kim'
p8834
sL1757L
S'Mark E. Botkin'
p8835
sL1758L
S'M. K. Shin'
p8836
sL1759L
S'B. S. Kang'
p8837
sL1760L
S'Y. I. Kim'
p8838
sL1761L
S'S. I. Yi'
p8839
sL1762L
S'K. J. Craig'
p8840
sL1763L
S'D. J. de Kock'
p8841
sL1764L
S'G. J. de Wet'
p8842
sL1765L
S'L. J. Haarhoff'
p8843
sL1766L
S'C. A. Pretorius'
p8844
sL1767L
S'Stella Maris Oggianu'
p8845
sL1768L
S'Razvan Florea'
p8846
sL1769L
S'J. Ricardo Munoz'
p8847
sL1770L
S'Guido Poncia'
p8848
sL1771L
S'Thierry Carriere'
p8849
sL1772L
S'Rajesh Subramanian'
p8850
sL1773L
S'H. James de St. Germain'
p8851
sL1774L
S'Samuel Drake'
p8852
sL1775L
S'Young H. Choi'
p8853
sL1776L
S'Jin H. Hong'
p8854
sL1777L
S'Sung H. Jang'
p8855
sL1778L
S'Ruichen Jin'
p8856
sL1779L
S'Maki K. Rashid'
p8857
sL1780L
S'Abdullah M. Al-Shabibi'
p8858
sL1781L
S'B. Vermeulen'
p8859
sL1782L
S'M. J. L. van Tooren'
p8860
sL1783L
S'L. J. B. Peeters'
p8861
sL1784L
S'Jyotirmaya Nanda'
p8862
sL1785L
S'C. Yu'
p8863
sL1786L
S'K. Pochiraju'
p8864
sL1787L
S'S. Manoochehri'
p8865
sL1788L
S'D. Kingsly Jeba Singh'
p8866
sL1789L
S'Cameron J. Turner'
p8867
sL1790L
S'T. Zhang'
p8868
sL1791L
S'S. Rahman'
p8869
sL1792L
S'Srikanth Akkaram'
p8870
sL1793L
S'Stephen D. Sintay'
p8871
sL1794L
S'Martin Oschwald'
p8872
sL1795L
S'Yuna Hu'
p8873
sL1796L
S'Jim Shephard'
p8874
sL1797L
S'Shiwei Zhou'
p8875
sL1798L
S'Alejandro Diaz'
p8876
sL1799L
S'Ranjan Mukherjee'
p8877
sL1800L
S'Akihiro Takezawa'
p8878
sL1801L
S'Siang-Kok Sim'
p8879
sL1802L
S'Meng-Leong Tay'
p8880
sL1803L
S'Ahmad Khairyanto'
p8881
sL1804L
S'Jaehyun Kwon'
p8882
sL1805L
S'Bethany M. Byron'
p8883
sL1806L
S'Ashish Macwan'
p8884
sL1807L
S'Satish V. K. Akundi'
p8885
sL1808L
S'Rakesh S. Kulkarni'
p8886
sL1809L
S'Mike Van Wie'
p8887
sL1810L
S'Janis Terpenny'
p8888
sL1811L
S'Rupesh Kumar'
p8889
sL1812L
S'Shuyou Zhang'
p8890
sL1813L
S'Harry H. Cheng'
p8891
sL1814L
S'Lianfeng Zhang'
p8892
sL1815L
S'Jianxin Jiao'
p8893
sL1816L
S'Shaligram Pokharel'
p8894
sL1817L
S'Beiqing Huang'
p8895
sL1818L
S'Huibin Liu'
p8896
sL1819L
S'Theodore F. Johnson'
p8897
sL1820L
S'Art Boyars'
p8898
sL1821L
S'Katsuya Mogami'
p8899
sL1822L
S'Nozomu Kogiso'
p8900
sL1823L
S'Amit A. Kale'
p8901
sL1824L
S'Geoff Reber'
p8902
sL1825L
S'Yiben Lin'
p8903
sL1826L
S'H. Medellin'
p8904
sL1827L
S'T. Lim'
p8905
sL1828L
S'J. Corney'
p8906
sL1829L
S'J. M. Ritchie'
p8907
sL1830L
S'J. B. C. Davies'
p8908
sL1831L
S'Kurt Chipperfield'
p8909
sL1832L
S'T. R. Langerak'
p8910
sL1833L
S'Anurag Purwar'
p8911
sL1834L
S'Xiaoyi Chi'
p8912
sL1835L
S'Xiaoming Wang'
p8913
sL1836L
S'S. Gunawan'
p8914
sL1837L
S'Heng Pan'
p8915
sL1838L
S'Yogesh D. Thakar'
p8916
sL1839L
S'Chensheng Wang'
p8917
sL1840L
S'Pieter J. Stappers'
p8918
sL1841L
S'Willem F. Bronsvoort'
p8919
sL1842L
S'Michael R. Tonks'
p8920
sL1843L
S'Ken W. Chase'
p8921
sL1844L
S'Clive I. Kerr'
p8922
sL1845L
S'Rajkumar Roy'
p8923
sL1846L
S'Peter J. Sackett'
p8924
sL1847L
S'Karen J. Ostergaard'
p8925
sL1848L
S'Alejandro A. Espinoza Orias'
p8926
sL1849L
S'Hitoshi Tokunaga'
p8927
sL1850L
S'Takaaki Okano'
p8928
sL1851L
S'Norio Matsuki'
p8929
sL1852L
S'Fumiki Tanaka'
p8930
sL1853L
S'Nozomu Mishima'
p8931
sL1854L
S'Carey W. King'
p8932
sL1855L
S'Joseph J. Beaman'
p8933
sL1856L
S"Ken'ichi Maemori"
p8934
sL1857L
S'Naoki Tanigawa'
p8935
sL1858L
S'Feng-Hui Shi'
p8936
sL1859L
S'Wenhui Fan'
p8937
sL1860L
S'Tao Li'
p8938
sL1861L
S'Guangleng Xiong'
p8939
sL1862L
S'Barthelemy Longueville'
p8940
sL1863L
S'William Culbreth'
p8941
sL1864L
S'Satishkumar Subramanian'
p8942
sL1865L
S'Tsuyoshi Tajima'
p8943
sL1866L
S'Nick Tzannetakis'
p8944
sL1867L
S'Stijn Donders'
p8945
sL1868L
S'Joost Van de Peer'
p8946
sL1869L
S'Paul Weal'
p8947
sL1870L
S'Ghassen Harmel'
p8948
sL1871L
S'Mark O. Neal'
p8949
sL1872L
S'James Rankin, II'
p8950
sL1873L
S'Miao Zhuang'
p8951
sL1874L
S'Ali A. Yassine'
p8952
sL1875L
S'S. J. Du'
p8953
sL1876L
S'M. Kalveram'
p8954
sL1877L
S'K. Weinert'
p8955
sL1878L
S'Rob H. Bracewell'
p8956
sL1879L
S'Saeema Ahmed'
p8957
sL1880L
S'Ken M. Wallace'
p8958
sL1881L
S'C. Wang'
p8959
sL1882L
S'Liangkai Ma'
p8960
sL1883L
S'Alan Haddow'
p8961
sL1884L
S'Sreeram Ramakrishnan'
p8962
sL1885L
S'El-Sayed Aziz'
p8963
sL1886L
S'C. Chassapis'
p8964
sL1887L
S'Yonghong Peng'
p8965
sL1888L
S'Vincent Cheutet'
p8966
sL1889L
S'Jean-Philippe Pernot'
p8967
sL1890L
S'Jean-Claude Leon'
p8968
sL1891L
S'Bianca Falcidieno'
p8969
sL1892L
S'Franca Giannini'
p8970
sL1893L
S'Douglas C. Stahl'
p8971
sL1894L
S'Mark Batdorff'
p8972
sL1895L
S'Brian J. Daniels'
p8973
sL1896L
S'Ashutosh Ballal'
p8974
sL1897L
S'Kevin Drost'
p8975
sL1898L
S'Y.-M. Deng'
p8976
sL1899L
S'Swapnil Padhye'
p8977
sL1900L
S'Jian Tu'
p8978
sL1901L
S'Chih-Hsing Chu'
p8979
sL1902L
S'Jang-Ting Chen'
p8980
sL1903L
S'Zhi-Gang Xu'
p8981
sL1904L
S'Agus Sudjianto'
p8982
sL1905L
S'Mukul Karnik'
p8983
sL1906L
S'Satyandra K. Gupta'
p8984
sL1907L
S'Edward B. Magrab'
p8985
sL1908L
S'Rafael Araque'
p8986
sL1909L
S'Murilo W. Bonilha'
p8987
sL1910L
S'Jay Fletcher'
p8988
sL1911L
S'Xu Guo'
p8989
sL1912L
S'Kang Zhao'
p8990
sL1913L
S'Rhonda Anderson'
p8991
sL1914L
S'Dan Schwartz'
p8992
sL1915L
S'John Whitaker'
p8993
sL1916L
S'Mikhail Ejakov'
p8994
sL1917L
S'John Pieprzak'
p8995
sL1918L
S'T. C. Kingsley'
p8996
sL1919L
S'S. Y. Cheing'
p8997
sL1920L
S'Mahmoud Awad'
p8998
sL1921L
S'Nanua Singh'
p8999
sL1922L
S'K. Maddulapalli'
p9000
sL1923L
S'Suzanne Woll'
p9001
sL1924L
S'Rajul Misra'
p9002
sL1925L
S'Dhaval Lokagariwar'
p9003
sL1926L
S'Thaweepat Buranathiti'
p9004
sL1927L
S'Jian Cao'
p9005
sL1928L
S'Masahiko Taniguchi'
p9006
sL1929L
S'Satoshi Yoshida'
p9007
sL1930L
S'Yoshinori Konishi'
p9008
sL1931L
S'Yutaka Inamori'
p9009
sL1932L
S'Ayako Nomura'
p9010
sL1933L
S'Keiji Mitsuyuki'
p9011
sL1934L
S'Yuji Kawaguchi'
p9012
sL1935L
S'Toru Inagaki'
p9013
sL1936L
S'Kensuke Tsuchiya'
p9014
sL1937L
S'Mikael Cederfeldt'
p9015
sL1938L
S'Samir Mesihovic'
p9016
sL1939L
S'Johan Malmqvist'
p9017
sL1940L
S'Yung Ting'
p9018
sL1941L
S'Ho-Chin Jar'
p9019
sL1942L
S'Chung-Yi Lin'
p9020
sL1943L
S'Jeng-Shen Huang'
p9021
sL1944L
S'Alexander Karl'
p9022
sL1945L
S'Stephan Lisiewicz'
p9023
sL1946L
S'Winfried-Hagen Friedl'
p9024
sL1947L
S'Janet Worgan'
p9025
sL1948L
S'Gordon May'
p9026
sL1949L
S'Akhil Sopory'
p9027
sL1950L
S'B. Besharati'
p9028
sL1951L
S'L. Luo'
p9029
sL1952L
S'Sebastian Mennicke'
p9030
sL1953L
S'Richard W. Longman'
p9031
sL1954L
S'Meng-Sang Chew'
p9032
sL1955L
S'Hans Georg Bock'
p9033
sL1956L
S'Ciro A. Soto'
p9034
sL1957L
S'Chandankumar Aladahalli'
p9035
sL1958L
S'Peter A. Fenyes'
p9036
sL1959L
S'Matthew C. Frank'
p9037
sL1960L
S'Zhenyu Cheng'
p9038
sL1961L
S'Robert Cheatham'
p9039
sL1962L
S'Jianguo Wang'
p9040
sL1963L
S'C. Greg Jensen'
p9041
sL1964L
S'Brian Bowman'
p9042
sL1965L
S'Jeff Thielman'
p9043
sL1966L
S'Anukal Chiralaksanakul'
p9044
sL1967L
S'Tong Zou'
p9045
sL1968L
S'Sebastian K. Fixson'
p9046
sL1969L
S'Raffi Kamalian'
p9047
sL1970L
S'Alice M. Agogino'
p9048
sL1971L
S'Hideyuki Takagi'
p9049
sL1972L
S'Kunjal Oza'
p9050
sL1973L
S'Zhihuang Dai'
p9051
sL1974L
S'Jurgen Grasel'
p9052
sL1975L
S'Akin Keskin'
p9053
sL1976L
S'Marius Swoboda'
p9054
sL1977L
S'Hans Przewozny'
p9055
sL1978L
S'Andre Saxer'
p9056
sL1979L
S'Miguel Vieira'
p9057
sL1980L
S'Raymond Rutkowski'
p9058
sL1981L
S'Lei Gu'
p9059
sL1982L
S'T. Tyan'
p9060
sL1983L
S'Zhiguang Qian'
p9061
sL1984L
S'V. Roshan Joseph'
p9062
sL1985L
S'C. F. Jeff Wu'
p9063
sL1986L
S'Deepu Mathew'
p9064
sL1987L
S'Peter Willemsen'
p9065
sL1988L
S'William Wetmore'
p9066
sL1989L
S'Victoria C. P. Chen'
p9067
sL1990L
S'Lindsay Wilmes'
p9068
sL1991L
S'Leslie Gennari'
p9069
sL1992L
S'Armand D. Assadi'
p9070
sL1993L
S'Kristin Potter'
p9071
sL1994L
S'David Johnson'
p9072
sL1995L
S'Hod Lipson'
p9073
sL1996L
S'Josh Bongard'
p9074
sL1997L
S'Andrew R. Schnell'
p9075
sL1998L
S'Hongseok Moses Noh'
p9076
sL1999L
S'Peter J. Hesketh'
p9077
sL2000L
S'Xueyong Qu'
p9078
sL2001L
S'Anand Krishnamurthy'
p9079
sL2002L
S'Jie Sheng'
p9080
sL2003L
S'Jun Tang'
p9081
sL2004L
S'Emre Kazancioglu'
p9082
sL2005L
S'Guangquan Wu'
p9083
sL2006L
S'Jeonghan Ko'
p9084
sL2007L
S'Stanislav Bohac'
p9085
sL2008L
S'Zoran Filipi'
p9086
sL2009L
S'Dennis Assanis'
p9087
sL2010L
S"Shin'ichi Yoshioka"
p9088
sL2011L
S'Jiju A. Ninan'
p9089
sL2012L
S'David Chang'
p9090
sL2013L
S'Hoda A. ElMaraghy'
p9091
sL2014L
S'Waguih H. ElMaraghy'
p9092
sL2015L
S'Alexander Lee'
p9093
sL2016L
S'James Brink'
p9094
sL2017L
S'David Anderson'
p9095
sL2018L
S'Ashok V. Kumar'
p9096
sL2019L
S'Anirban Dutta'
p9097
sL2020L
S'Alok K. Priyadarshi'
p9098
sL2021L
S'Howie Choset'
p9099
sL2022L
S'R. Dumitrescu'
p9100
sL2023L
S'T. Wiegers'
p9101
sL2024L
S'Zhengdong Ding'
p9102
sL2025L
S'Byungwoo Lee'
p9103
sL2026L
S'Liem Ferryanto'
p9104
sL2027L
S'Mahesh Vora'
p9105
sL2028L
S'Alessandro Giassi'
p9106
sL2029L
S'Adam B. Cooper'
p9107
sL2030L
S'Panayotis Georgiopoulos'
p9108
sL2031L
S'Hyung Min Kim'
p9109
sL2032L
S'S. Bhide'
p9110
sL2033L
S'J. K. Davidson'
p9111
sL2034L
S'J. J. Shah'
p9112
sL2035L
S'Ste?phane Caro'
p9113
sL2036L
S'R. Roy'
p9114
sL2037L
S'J. I. Bailey'
p9115
sL2038L
S'R. G. L. Hodges'
p9116
sL2039L
S'Wen-Yuh Jywe'
p9117
sL2040L
S'Chien-Hong Liu'
p9118
sL2041L
S'Michael S. Cherry'
p9119
sL2042L
S'Gregory M. Roach'
p9120
sL2043L
S'Jonathan W. Wittwer'
p9121
sL2044L
S'Larry L. Howell'
p9122
sL2045L
S'Philippe Deshayes'
p9123
sL2046L
S'Pierre Nowak'
p9124
sL2047L
S'Benoit Eynard'
p9125
sL2048L
S'Lionel Roucoules'
p9126
sL2049L
S'Xuan F. Zha'
p9127
sL2050L
S'Ram D. Sriram'
p9128
sL2051L
S'Sha Ma'
p9129
sL2052L
S'Bin Song'
p9130
sL2053L
S'Wen Feng Lu'
p9131
sL2054L
S'Cheng Feng Zhu'
p9132
sL2055L
S'Marcus Redhe'
p9133
sL2056L
S'Jun Dong'
p9134
sL2057L
S'Aimin Wang'
p9135
sL2058L
S'Weiguo Zhang'
p9136
sL2059L
S'Robert R. Mayer'
p9137
sL2060L
S'Brian Peterson'
p9138
sL2061L
S'Raj Mishra'
p9139
sL2062L
S'Anil Sachdev'
p9140
sL2063L
S'A. Farhang-Mehr'
p9141
sL2064L
S'A. Diaz'
p9142
sL2065L
S'A. Ravisekar'
p9143
sL2066L
S'Michael F. Zaeh'
p9144
sL2067L
S'Georg M. W. Wuensch'
p9145
sL2068L
S'Clemens Poernbacher'
p9146
sL2069L
S'Michael S. O. Ehrenstrasser'
p9147
sL2070L
S'Runze Li'
p9148
sL2071L
S'Stella M. Clarke'
p9149
sL2072L
S'Jan H. Griebsch'
p9150
sL2073L
S'Liqun Wang'
p9151
sL2074L
S'Min Joong Jeong'
p9152
sL2075L
S'Brian H. Dennis'
p9153
sL2076L
S'Shinobu Yoshimura'
p9154
sL2077L
S'Reiko Koganei'
p9155
sL2078L
S'Toshio Morihara'
p9156
sL2079L
S'Russell R. Barton'
p9157
sL2080L
S'Andre Benard'
p9158
sL2081L
S'Mohamed M. Shalaby'
p9159
sL2082L
S'Jiung-Cheng Pan'
p9160
sL2083L
S'Daeyoon Jung'
p9161
sL2084L
S'Kerr-Jia Lu'
p9162
sL2085L
S'Sridhar Kota'
p9163
sL2086L
S'Jun Doi'
p9164
sL2087L
S'Atsushi Yamada'
p9165
sL2088L
S'Keisuke Inoue'
p9166
sL2089L
S'Stephane Guillet'
p9167
sL2090L
S'Bianca Facidieno'
p9168
sL2091L
S'Tomotake Furuhata'
p9169
sL2092L
S'Kevin G. Harding'
p9170
sL2093L
S'Palwinder Singh'
p9171
sL2094L
S'E. Nathan Harris'
p9172
sL2095L
S'Lawrence P. Chao'
p9173
sL2096L
S'Kosuke Ishii'
p9174
sL2097L
S'Adwait Vaidya'
p9175
sL2098L
S'Jami Shah'
p9176
sL2099L
S'Yuko Shimomura'
p9177
sL2100L
S'Roderick K. W. Lee'
p9178
sL2101L
S'Michael G. Montero'
p9179
sL2102L
S'Paul K. Wright'
p9180
sL2103L
S'Shigeru Sakamoto'
p9181
sL2104L
S'Tadafumi Kubo'
p9182
sL2105L
S'Yan Zhou'
p9183
sL2106L
S'Chaodi Li'
p9184
sL2107L
S'James J. Mason'
p9185
sL2108L
S'Ashish D. Deshpande'
p9186
sL2109L
S'James R. Rinderle'
p9187
sL2110L
S'Robert Paasch'
p9188
sL2111L
S'Parthsarathy Durgi'
p9189
sL2112L
S'Sherif Aly'
p9190
sL2113L
S'Chad McKonly'
p9191
sL2114L
S'Tomoyuki Miyashita'
p9192
sL2115L
S'Hiroshi Ishikawa'
p9193
sL2116L
S'Dapeng Wang'
p9194
sL2117L
S'Greg F. Naterer'
p9195
sL2118L
S'Satoshi Kitayama'
p9196
sL2119L
S'Stephen L. Canfield'
p9197
sL2120L
S'Patrick V. Hull'
p9198
sL2121L
S'James W. Beard'
p9199
sL2122L
S'Rajat Saxena'
p9200
sL2123L
S'Umit Sonmez'
p9201
sL2124L
S'Peng Song'
p9202
sL2125L
S'Vijay Kumar'
p9203
sL2126L
S'Madhusudan Raghavan'
p9204
sL2127L
S'Khalid Al-Widyan'
p9205
sL2128L
S'Venketesh N. Dubey'
p9206
sL2129L
S'Richard M. Crowder'
p9207
sL2130L
S'J. Michael McCarthy'
p9208
sL2131L
S'Pierre M. Larochelle'
p9209
sL2132L
S'Lauren S. Perry'
p9210
sL2133L
S'Andrew P. Murray'
p9211
sL2134L
S'Charles W. Wampler'
p9212
sL2135L
S'A. Purwar'
p9213
sL2136L
S'Alba Perez'
p9214
sL2137L
S'J. M. McCarthy'
p9215
sL2138L
S'Sandipan Bandyopadhyay'
p9216
sL2139L
S'Ashitava Ghosal'
p9217
sL2140L
S'Jingjun Yu'
p9218
sL2141L
S'Shusheng Bi'
p9219
sL2142L
S'Guanghua Zong'
p9220
sL2143L
S'Tieshi Zhao'
p9221
sL2144L
S'Zhen Huang'
p9222
sL2145L
S'Raffaele Di Gregorio'
p9223
sL2146L
S'Hee-Byoung Choi'
p9224
sL2147L
S'Atsushi Konno'
p9225
sL2148L
S'Masaru Uchiyama'
p9226
sL2149L
S'Robert L. Williams, II'
p9227
sL2150L
S'Jigar Vadia'
p9228
sL2151L
S'Yang Wang'
p9229
sL2152L
S'Tian Huang'
p9230
sL2153L
S'Clement M. Gosselin'
p9231
sL2154L
S'Sherman Y. T. Lang'
p9232
sL2155L
S'Hui Yu'
p9233
sL2156L
S'Jinsong Wang'
p9234
sL2157L
S'Guanghong Duan'
p9235
sL2158L
S'Lining Sun'
p9236
sL2159L
S'James S. Albus'
p9237
sL2160L
S'Roger V. Bostelman'
p9238
sL2161L
S'J. Rastegar'
p9239
sL2162L
S'L. Yuan'
p9240
sL2163L
S'J. Zhang'
p9241
sL2164L
S'Kimberly A. Jensen'
p9242
sL2165L
S'Kazem Abhary'
p9243
sL2166L
S'Lu Yi'
p9244
sL2167L
S'Tatu Leinonen'
p9245
sL2168L
S'L. Hua'
p9246
sL2169L
S'Gordon R. Pennock'
p9247
sL2170L
S'Edward C. Kinzel'
p9248
sL2171L
S'Seong-Ho Kang'
p9249
sL2172L
S'Delbert Tesar'
p9250
sL2173L
S'ChangHwan Kim'
p9251
sL2174L
S'Alan Bowling'
p9252
sL2175L
S'Dennis W. Hong'
p9253
sL2176L
S'Raymond J. Cipra'
p9254
sL2177L
S'A. Meghdari'
p9255
sL2178L
S'G. R. Vossoughi'
p9256
sL2179L
S'M. Amir Hosseini'
p9257
sL2180L
S'Eric Pearce'
p9258
sL2181L
S'Alan Parkinson'
p9259
sL2182L
S'Kenneth Chase'
p9260
sL2183L
S'Alisha Hammond'
p9261
sL2184L
S'Alan R. Parkinson'
p9262
sL2185L
S'Advait A. Limaye'
p9263
sL2186L
S'Carlos Pereira'
p9264
sL2187L
S'Carl A. Nelson'
p9265
sL2188L
S'Curtis L. Collins'
p9266
sL2189L
S'Alessio Salerno'
p9267
sL2190L
S'Nilanjan Chakraborty'
p9268
sL2191L
S'Michael J. Harper'
p9269
sL2192L
S'Donald R. Flugrad'
p9270
sL2193L
S'Abir Z. Qamhiyah'
p9271
sL2194L
S'Shawn E. Gano'
p9272
sL2195L
S'Victor Oduguwa'
p9273
sL2196L
S'Didier Farrugia'
p9274
sL2197L
S'Y. S. Liu'
p9275
sL2198L
S'S. M. Gao'
p9276
sL2199L
S'I. Kimura'
p9277
sL2200L
S'K.-H. Grote'
p9278
sL2201L
S'Stefan Dahlstrom'
p9279
sL2202L
S'I. Horvath'
p9280
sL2203L
S'Min-Sheng Shin'
p9281
sL2204L
S'Hong-Yuan Chang'
p9282
sL2205L
S'Steffen Clement'
p9283
sL2206L
S'Andre Jordan'
p9284
sL2207L
S'Zhi Gang Xu'
p9285
sL2208L
S'JianFeng Li'
p9286
sL2209L
S'Johann U. Zimmermann'
p9287
sL2210L
S'Siegmar Haasis'
p9288
sL2211L
S'Shigeaki Komori'
p9289
sL2212L
S'Kazuma Fukatani'
p9290
sL2213L
S'Yanwei Zhao'
p9291
sL2214L
S'Wanliang Wang'
p9292
sL2215L
S'Yingli Zhang'
p9293
sL2216L
S'Zhengchu Wang'
p9294
sL2217L
S'Patrick Morelle'
p9295
sL2218L
S'Alain Remouchamps'
p9296
sL2219L
S'Wei Liu'
p9297
sL2220L
S'Kang Tai'
p9298
sL2221L
S'Jyh-Cheng Yu'
p9299
sL2222L
S'Tsung-Ren Hung'
p9300
sL2223L
S'Francis Thibault'
p9301
sL2224L
S'Sinobu Yoshimura'
p9302
sL2225L
S'Li-jun Wang'
p9303
sL2226L
S'Satoshi Imamura'
p9304
sL2227L
S'Ahmad Nourbakhsh'
p9305
sL2228L
S'Takashi Kobayashi'
p9306
sL2229L
S'Takehide Nomura'
p9307
sL2230L
S'Masaki Kamifuji'
p9308
sL2231L
S'Akira Yao'
p9309
sL2232L
S'Tetsurou Ogushi'
p9310
sL2233L
S'Doug Fussner'
p9311
sL2234L
S'Yesh P. Singh'
p9312
sL2235L
S'M. D. Giess'
p9313
sL2236L
S'S. J. Culley'
p9314
sL2237L
S'A. Shepherd'
p9315
sL2238L
S'Yasunari Mimura'
p9316
sL2239L
S'Tomoyuki Hiroyasu'
p9317
sL2240L
S'Mitsunori Miki'
p9318
sL2241L
S'Pietro Fanghella'
p9319
sL2242L
S'Guido Galliani'
p9320
sL2243L
S'Matteo Mezzadra'
p9321
sL2244L
S'Terry K. K. Chang'
p9322
sL2245L
S'Brian C. H. Ho'
p9323
sL2246L
S'M. M. F. Yuen'
p9324
sL2247L
S'Renbin Xiao'
p9325
sL2248L
S'Lei Wang'
p9326
sL2249L
S'Zheng Fan'
p9327
sL2250L
S'Chengsheng Wang'
p9328
sL2251L
S'Imre Horvath'
p9329
sL2252L
S'Raluca Dumitrescu'
p9330
sL2253L
S'Ningning Zhou'
p9331
sL2254L
S'Alice Agogino'
p9332
sL2255L
S'Kristofer S. J. Pister'
p9333
sL2256L
S'Marie-Josee Potvin'
p9334
sL2257L
S'Andre Cote'
p9335
sL2258L
S'Eric Charbonneau'
p9336
sL2259L
S'Maria-Elena Aguilar'
p9337
sL2260L
S'Kurt A. Chipperfield'
p9338
sL2261L
S'Brett W. Clark'
p9339
sL2262L
S'David C. Anderson'
p9340
sL2263L
S'Fernando Rangel'
p9341
sL2264L
S'Asad A. Usman'
p9342
sL2265L
S'Mohammad Usman'
p9343
sL2266L
S'Yoshiki Ujiie'
p9344
sL2267L
S'Yoshiyuki Matsuoka'
p9345
sL2268L
S'Angran Xiao'
p9346
sL2269L
S'Steve C. Wang'
p9347
sL2270L
S'Urmila M. Diwekar'
p9348
sL2271L
S'Kemal H. Sahin'
p9349
sL2272L
S'Yih-Charng Deng'
p9350
sL2273L
S'Chin-Hsu Lin'
p9351
sL2274L
S'J. T. Wang'
p9352
sL2275L
S'Sudarsanam Chellappa'
p9353
sL2276L
S'Rogelio Flores'
p9354
sL2277L
S'Jon Shelley'
p9355
sL2278L
S'A. Boyars'
p9356
sL2279L
S'John J. Wood'
p9357
sL2280L
S'Wade O. Troxell'
p9358
sL2281L
S'Kai-Lu Wang'
p9359
sL2282L
S'Jose Martinez Escanaverino'
p9360
sL2283L
S'Jose A. Llamos Soriz'
p9361
sL2284L
S'Alejandra Garcia Toll'
p9362
sL2285L
S'Tania Ortiz Cardenas'
p9363
sL2286L
S'Aditya Soman'
p9364
sL2287L
S'Matthew Campbell'
p9365
sL2288L
S'J. K. Hill'
p9366
sL2289L
S'R. M. Cheatham'
p9367
sL2290L
S'C. G. Jensen'
p9368
sL2291L
S'Michael Sasena'
p9369
sL2292L
S'Pierre Goovaerts'
p9370
sL2293L
S'Matthew Reed'
p9371
sL2294L
S'Daniel Aguilera'
p9372
sL2295L
S'Jose Maria Rico'
p9373
sL2296L
S'Jaime Gallardo'
p9374
sL2297L
S'Ahmed A. Shabana'
p9375
sL2298L
S'Aki M. Mikkola'
p9376
sL2299L
S'Gabriel Hernandez'
p9377
sL2300L
S'Ryan Fellini'
p9378
sL2301L
S'Alexis Perez-Duarte'
p9379
sL2302L
S'Zhengdong Huang'
p9380
sL2303L
S'Derek Yip-Hoi'
p9381
sL2304L
S'Nagesh Belludi'
p9382
sL2305L
S'Paul Stewart'
p9383
sL2306L
S'Anne Marsan'
p9384
sL2307L
S'Huaicai Mo'
p9385
sL2308L
S'Ertian Hua'
p9386
sL2309L
S'Guoxian Zhang'
p9387
sL2310L
S'Fangshun Jin'
p9388
sL2311L
S'J. A. Carretero'
p9389
sL2312L
S'M. A. Nahon'
p9390
sL2313L
S'O. Ma'
p9391
sL2314L
S"Brayan S. D'Souza"
p9392
sL2315L
S'Kurt Hacker'
p9393
sL2316L
S'Min-Ho Kyung'
p9394
sL2317L
S'Elisha Sacks'
p9395
sL2318L
S'Gloria J. Wiens'
p9396
sL2319L
S'Kaiyu Chen'
p9397
sL2320L
S'David G. Beale'
p9398
sL2321L
S'Leo Joskowicz'
p9399
sL2322L
S'Ralf Schultheiss'
p9400
sL2323L
S'Uwe Hinze'
p9401
sL2324L
S'Fengfeng Xi'
p9402
sL2325L
S'Marcel Verner'
p9403
sL2326L
S'Chris Mechefske'
p9404
sL2327L
S'Liang Zhu'
p9405
sL2328L
S'David Kazmer'
p9406
sL2329L
S'Ke Fu'
p9407
sL2330L
S'James K. Mills'
p9408
sL2331L
S'Masaru Kageura'
p9409
sL2332L
S'Lee Ming Wong'
p9410
sL2333L
S'Charles Friesen'
p9411
sL2334L
S'Ken How Foo'
p9412
sL2335L
S'Lucas Pang'
p9413
sL2336L
S'David M. Sharman'
p9414
sL2337L
S'Paul Carlile'
p9415
sL2338L
S'Mostafa Nouri'
p9416
sL2339L
S'Jean W. Zu'
p9417
sL2340L
S'John K. Dickinson'
p9418
sL2341L
S'Ali Farhang-Mehr'
p9419
sL2342L
S'Petru-Aurelian Simionescu'
p9420
sL2343L
S'John Eddy'
p9421
sL2344L
S'Dorte Freisleben'
p9422
sL2345L
S'Kris Downey'
p9423
sL2346L
S'Jordan Smith'
p9424
sL2347L
S'Carlo Sequin'
p9425
sL2348L
S'Ahmad Smaili'
p9426
sL2349L
S'Ramsey Hemadeh'
p9427
sL2350L
S'Firas Zeineddine'
p9428
sL2351L
S'Barbar Akle'
p9429
sL2352L
S'Justin Wahlborg'
p9430
sL2353L
S'Daniel T. Schwartz'
p9431
sL2354L
S'Lusine Baghdasaryan'
p9432
sL2355L
S'Natesh Chandrashekar'
p9433
sL2356L
S'Ramesh Lakshmipathy'
p9434
sL2357L
S'Irfan Kaymaz'
p9435
sL2358L
S'D. Kalenchuk'
p9436
sL2359L
S'Y. Kang'
p9437
sL2360L
S'Y. Rong'
p9438
sL2361L
S'J. C. Yang'
p9439
sL2362L
S'H. Wang'
p9440
sL2363L
S'N. Pramanik'
p9441
sL2364L
S'U. Roy'
p9442
sL2365L
S'R. Sudarsan'
p9443
sL2366L
S'R. D. Sriram'
p9444
sL2367L
S'K. W. Lyons'
p9445
sL2368L
S'Shamim Akhtar'
p9446
sL2369L
S'Zhongyan Qian'
p9447
sL2370L
S'Thomas Klar'
p9448
sL2371L
S'Miranda Baladi'
p9449
sL2372L
S'Mathias Almer'
p9450
ssb.