ccopy_reg
_reconstructor
p0
(c__main__
CitationNetwork
p1
c__builtin__
object
p2
Ntp3
Rp4
(dp5
S'network_dict'
p6
(dp7
L1090L
c__builtin__
set
p8
((lp9
tp10
Rp11
sL1091L
g8
((lp12
tp13
Rp14
sL1092L
g8
((lp15
tp16
Rp17
sL1093L
g8
((lp18
tp19
Rp20
sL1094L
g8
((lp21
tp22
Rp23
sL1095L
g8
((lp24
L1326L
atp25
Rp26
sL1096L
g8
((lp27
L1282L
aL1399L
aL1325L
aL1238L
aL1415L
atp28
Rp29
sL1097L
g8
((lp30
tp31
Rp32
sL1098L
g8
((lp33
tp34
Rp35
sL1099L
g8
((lp36
tp37
Rp38
sL1100L
g8
((lp39
tp40
Rp41
sL1101L
g8
((lp42
tp43
Rp44
sL1102L
g8
((lp45
tp46
Rp47
sL1103L
g8
((lp48
tp49
Rp50
sL1104L
g8
((lp51
tp52
Rp53
sL1105L
g8
((lp54
tp55
Rp56
sL1106L
g8
((lp57
tp58
Rp59
sL1107L
g8
((lp60
L1530L
atp61
Rp62
sL1108L
g8
((lp63
tp64
Rp65
sL1109L
g8
((lp66
tp67
Rp68
sL1110L
g8
((lp69
L1422L
atp70
Rp71
sL1111L
g8
((lp72
tp73
Rp74
sL1112L
g8
((lp75
tp76
Rp77
sL1113L
g8
((lp78
tp79
Rp80
sL1114L
g8
((lp81
tp82
Rp83
sL1115L
g8
((lp84
L1250L
atp85
Rp86
sL1116L
g8
((lp87
L1282L
atp88
Rp89
sL1117L
g8
((lp90
tp91
Rp92
sL1118L
g8
((lp93
tp94
Rp95
sL1119L
g8
((lp96
L1435L
atp97
Rp98
sL1120L
g8
((lp99
tp100
Rp101
sL1121L
g8
((lp102
tp103
Rp104
sL1122L
g8
((lp105
tp106
Rp107
sL1123L
g8
((lp108
L1124L
atp109
Rp110
sL1124L
g8
((lp111
L1403L
aL1123L
atp112
Rp113
sL1125L
g8
((lp114
tp115
Rp116
sL1126L
g8
((lp117
tp118
Rp119
sL1127L
g8
((lp120
tp121
Rp122
sL1128L
g8
((lp123
tp124
Rp125
sL1129L
g8
((lp126
tp127
Rp128
sL1130L
g8
((lp129
tp130
Rp131
sL1131L
g8
((lp132
tp133
Rp134
sL1132L
g8
((lp135
tp136
Rp137
sL1133L
g8
((lp138
L1321L
aL1327L
aL1543L
atp139
Rp140
sL1134L
g8
((lp141
L1553L
atp142
Rp143
sL1135L
g8
((lp144
tp145
Rp146
sL1136L
g8
((lp147
tp148
Rp149
sL1137L
g8
((lp150
L1137L
atp151
Rp152
sL1138L
g8
((lp153
L1269L
atp154
Rp155
sL1139L
g8
((lp156
L1252L
atp157
Rp158
sL1140L
g8
((lp159
tp160
Rp161
sL1141L
g8
((lp162
tp163
Rp164
sL1142L
g8
((lp165
tp166
Rp167
sL1143L
g8
((lp168
tp169
Rp170
sL1144L
g8
((lp171
tp172
Rp173
sL1145L
g8
((lp174
tp175
Rp176
sL1146L
g8
((lp177
tp178
Rp179
sL1147L
g8
((lp180
tp181
Rp182
sL1148L
g8
((lp183
tp184
Rp185
sL1149L
g8
((lp186
tp187
Rp188
sL1150L
g8
((lp189
tp190
Rp191
sL1151L
g8
((lp192
L1427L
atp193
Rp194
sL1152L
g8
((lp195
tp196
Rp197
sL1153L
g8
((lp198
tp199
Rp200
sL1155L
g8
((lp201
tp202
Rp203
sL1156L
g8
((lp204
tp205
Rp206
sL1157L
g8
((lp207
tp208
Rp209
sL1158L
g8
((lp210
tp211
Rp212
sL1159L
g8
((lp213
L1367L
atp214
Rp215
sL1160L
g8
((lp216
tp217
Rp218
sL1161L
g8
((lp219
tp220
Rp221
sL1162L
g8
((lp222
L1239L
atp223
Rp224
sL1163L
g8
((lp225
tp226
Rp227
sL1164L
g8
((lp228
tp229
Rp230
sL1165L
g8
((lp231
tp232
Rp233
sL1166L
g8
((lp234
L1271L
atp235
Rp236
sL1167L
g8
((lp237
tp238
Rp239
sL1168L
g8
((lp240
tp241
Rp242
sL1169L
g8
((lp243
tp244
Rp245
sL1170L
g8
((lp246
tp247
Rp248
sL1171L
g8
((lp249
tp250
Rp251
sL1172L
g8
((lp252
tp253
Rp254
sL1173L
g8
((lp255
tp256
Rp257
sL1174L
g8
((lp258
tp259
Rp260
sL1175L
g8
((lp261
tp262
Rp263
sL1176L
g8
((lp264
tp265
Rp266
sL1177L
g8
((lp267
L1232L
atp268
Rp269
sL1178L
g8
((lp270
L1385L
aL1271L
aL1319L
atp271
Rp272
sL1179L
g8
((lp273
L1288L
aL1406L
atp274
Rp275
sL1180L
g8
((lp276
tp277
Rp278
sL1181L
g8
((lp279
tp280
Rp281
sL1182L
g8
((lp282
tp283
Rp284
sL1183L
g8
((lp285
tp286
Rp287
sL1184L
g8
((lp288
L1248L
aL1309L
atp289
Rp290
sL1185L
g8
((lp291
L1239L
atp292
Rp293
sL1186L
g8
((lp294
L1187L
aL1222L
atp295
Rp296
sL1187L
g8
((lp297
L1186L
aL1428L
atp298
Rp299
sL1188L
g8
((lp300
L1313L
aL1546L
aL1251L
atp301
Rp302
sL1189L
g8
((lp303
L1248L
aL1349L
aL1239L
atp304
Rp305
sL1190L
g8
((lp306
L1328L
atp307
Rp308
sL1191L
g8
((lp309
L1546L
aL1547L
atp310
Rp311
sL1192L
g8
((lp312
L1557L
atp313
Rp314
sL1193L
g8
((lp315
L1251L
atp316
Rp317
sL1194L
g8
((lp318
L1239L
atp319
Rp320
sL1195L
g8
((lp321
tp322
Rp323
sL1196L
g8
((lp324
tp325
Rp326
sL1197L
g8
((lp327
L1264L
aL1577L
aL1578L
atp328
Rp329
sL1198L
g8
((lp330
L1250L
aL1395L
aL1339L
aL1341L
aL1342L
aL1343L
atp331
Rp332
sL1199L
g8
((lp333
L1220L
aL1577L
aL1264L
aL1493L
aL1307L
aL1342L
atp334
Rp335
sL1200L
g8
((lp336
L1578L
aL1267L
atp337
Rp338
sL1201L
g8
((lp339
L1264L
aL1342L
atp340
Rp341
sL1202L
g8
((lp342
L1264L
aL1577L
aL1343L
aL1295L
atp343
Rp344
sL1203L
g8
((lp345
L1577L
aL1284L
aL1366L
atp346
Rp347
sL1204L
g8
((lp348
L1337L
aL1271L
atp349
Rp350
sL1205L
g8
((lp351
L1264L
aL1577L
aL1347L
aL1284L
aL1559L
atp352
Rp353
sL1206L
g8
((lp354
L1271L
atp355
Rp356
sL1207L
g8
((lp357
tp358
Rp359
sL1208L
g8
((lp360
tp361
Rp362
sL1209L
g8
((lp363
tp364
Rp365
sL1210L
g8
((lp366
tp367
Rp368
sL1211L
g8
((lp369
tp370
Rp371
sL1212L
g8
((lp372
tp373
Rp374
sL1213L
g8
((lp375
tp376
Rp377
sL1214L
g8
((lp378
tp379
Rp380
sL1215L
g8
((lp381
tp382
Rp383
sL1216L
g8
((lp384
tp385
Rp386
sL1217L
g8
((lp387
tp388
Rp389
sL1218L
g8
((lp390
tp391
Rp392
sL1219L
g8
((lp393
tp394
Rp395
sL1220L
g8
((lp396
L1348L
aL1493L
aL1199L
atp397
Rp398
sL1221L
g8
((lp399
tp400
Rp401
sL1222L
g8
((lp402
L1186L
atp403
Rp404
sL1223L
g8
((lp405
L1515L
atp406
Rp407
sL1224L
g8
((lp408
tp409
Rp410
sL1225L
g8
((lp411
tp412
Rp413
sL1226L
g8
((lp414
L1414L
atp415
Rp416
sL1228L
g8
((lp417
tp418
Rp419
sL1229L
g8
((lp420
tp421
Rp422
sL1230L
g8
((lp423
tp424
Rp425
sL1231L
g8
((lp426
tp427
Rp428
sL1232L
g8
((lp429
L1177L
atp430
Rp431
sL1233L
g8
((lp432
L1398L
atp433
Rp434
sL1234L
g8
((lp435
tp436
Rp437
sL1236L
g8
((lp438
tp439
Rp440
sL1237L
g8
((lp441
tp442
Rp443
sL1238L
g8
((lp444
L1096L
atp445
Rp446
sL1239L
g8
((lp447
L1185L
aL1162L
aL1194L
aL1189L
aL1239L
atp448
Rp449
sL1240L
g8
((lp450
tp451
Rp452
sL1241L
g8
((lp453
L1399L
atp454
Rp455
sL1242L
g8
((lp456
tp457
Rp458
sL1243L
g8
((lp459
L1553L
atp460
Rp461
sL1244L
g8
((lp462
tp463
Rp464
sL1245L
g8
((lp465
tp466
Rp467
sL1246L
g8
((lp468
tp469
Rp470
sL1247L
g8
((lp471
tp472
Rp473
sL1248L
g8
((lp474
L1352L
aL1184L
aL1189L
atp475
Rp476
sL1249L
g8
((lp477
tp478
Rp479
sL1250L
g8
((lp480
L1115L
aL1198L
atp481
Rp482
sL1251L
g8
((lp483
L1193L
aL1188L
aL1349L
atp484
Rp485
sL1252L
g8
((lp486
L1368L
aL1139L
atp487
Rp488
sL1253L
g8
((lp489
L1540L
atp490
Rp491
sL1254L
g8
((lp492
tp493
Rp494
sL1255L
g8
((lp495
tp496
Rp497
sL1256L
g8
((lp498
tp499
Rp500
sL1257L
g8
((lp501
L1410L
atp502
Rp503
sL1258L
g8
((lp504
tp505
Rp506
sL1259L
g8
((lp507
tp508
Rp509
sL1260L
g8
((lp510
tp511
Rp512
sL1261L
g8
((lp513
L1422L
atp514
Rp515
sL1262L
g8
((lp516
L1376L
aL1382L
atp517
Rp518
sL1263L
g8
((lp519
tp520
Rp521
sL1264L
g8
((lp522
L1199L
aL1284L
aL1577L
aL1197L
aL1295L
aL1201L
aL1202L
aL1205L
aL1307L
aL1308L
atp523
Rp524
sL1265L
g8
((lp525
tp526
Rp527
sL1266L
g8
((lp528
tp529
Rp530
sL1267L
g8
((lp531
L1200L
atp532
Rp533
sL1268L
g8
((lp534
tp535
Rp536
sL1269L
g8
((lp537
L1138L
atp538
Rp539
sL1270L
g8
((lp540
L1353L
aL1547L
atp541
Rp542
sL1271L
g8
((lp543
L1543L
aL1166L
aL1395L
aL1204L
aL1206L
aL1178L
atp544
Rp545
sL1272L
g8
((lp546
L1362L
aL1534L
atp547
Rp548
sL1273L
g8
((lp549
tp550
Rp551
sL1274L
g8
((lp552
L1590L
atp553
Rp554
sL1275L
g8
((lp555
tp556
Rp557
sL1276L
g8
((lp558
tp559
Rp560
sL1277L
g8
((lp561
L1278L
atp562
Rp563
sL1278L
g8
((lp564
L1277L
atp565
Rp566
sL1279L
g8
((lp567
L1577L
aL1391L
aL1393L
atp568
Rp569
sL1280L
g8
((lp570
L1531L
atp571
Rp572
sL1281L
g8
((lp573
L1530L
atp574
Rp575
sL1282L
g8
((lp576
L1096L
aL1116L
aL1415L
atp577
Rp578
sL1283L
g8
((lp579
tp580
Rp581
sL1284L
g8
((lp582
L1264L
aL1577L
aL1203L
aL1205L
atp583
Rp584
sL1285L
g8
((lp585
tp586
Rp587
sL1286L
g8
((lp588
L1591L
atp589
Rp590
sL1287L
g8
((lp591
L1494L
atp592
Rp593
sL1288L
g8
((lp594
L1179L
aL1406L
atp595
Rp596
sL1289L
g8
((lp597
tp598
Rp599
sL1290L
g8
((lp600
L1422L
atp601
Rp602
sL1291L
g8
((lp603
tp604
Rp605
sL1292L
g8
((lp606
tp607
Rp608
sL1293L
g8
((lp609
L1489L
atp610
Rp611
sL1294L
g8
((lp612
tp613
Rp614
sL1295L
g8
((lp615
L1264L
aL1577L
aL1202L
aL1339L
aL1308L
atp616
Rp617
sL1296L
g8
((lp618
L1500L
atp619
Rp620
sL1297L
g8
((lp621
tp622
Rp623
sL1298L
g8
((lp624
tp625
Rp626
sL1299L
g8
((lp627
L1365L
atp628
Rp629
sL1300L
g8
((lp630
L1574L
atp631
Rp632
sL1301L
g8
((lp633
tp634
Rp635
sL1302L
g8
((lp636
L1400L
aL1548L
atp637
Rp638
sL1303L
g8
((lp639
tp640
Rp641
sL1304L
g8
((lp642
tp643
Rp644
sL1305L
g8
((lp645
L1541L
atp646
Rp647
sL1306L
g8
((lp648
tp649
Rp650
sL1307L
g8
((lp651
L1264L
aL1577L
aL1308L
aL1199L
atp652
Rp653
sL1308L
g8
((lp654
L1264L
aL1577L
aL1307L
aL1295L
atp655
Rp656
sL1309L
g8
((lp657
L1352L
aL1184L
aL1349L
atp658
Rp659
sL1310L
g8
((lp660
tp661
Rp662
sL1311L
g8
((lp663
L1516L
atp664
Rp665
sL1312L
g8
((lp666
tp667
Rp668
sL1313L
g8
((lp669
L1347L
aL1188L
aL1349L
aL1350L
aL1352L
aL1547L
aL1550L
atp670
Rp671
sL1315L
g8
((lp672
tp673
Rp674
sL1316L
g8
((lp675
L1577L
atp676
Rp677
sL1317L
g8
((lp678
L1411L
atp679
Rp680
sL1318L
g8
((lp681
tp682
Rp683
sL1319L
g8
((lp684
L1178L
aL1390L
atp685
Rp686
sL1320L
g8
((lp687
L1323L
atp688
Rp689
sL1321L
g8
((lp690
L1573L
aL1133L
atp691
Rp692
sL1322L
g8
((lp693
tp694
Rp695
sL1323L
g8
((lp696
L1320L
atp697
Rp698
sL1324L
g8
((lp699
tp700
Rp701
sL1325L
g8
((lp702
L1096L
atp703
Rp704
sL1326L
g8
((lp705
L1095L
atp706
Rp707
sL1327L
g8
((lp708
L1133L
aL1543L
atp709
Rp710
sL1328L
g8
((lp711
L1190L
atp712
Rp713
sL1329L
g8
((lp714
tp715
Rp716
sL1330L
g8
((lp717
tp718
Rp719
sL1331L
g8
((lp720
tp721
Rp722
sL1332L
g8
((lp723
L1367L
atp724
Rp725
sL1333L
g8
((lp726
tp727
Rp728
sL1334L
g8
((lp729
tp730
Rp731
sL1335L
g8
((lp732
tp733
Rp734
sL1336L
g8
((lp735
tp736
Rp737
sL1337L
g8
((lp738
L1204L
atp739
Rp740
sL1338L
g8
((lp741
tp742
Rp743
sL1339L
g8
((lp744
L1577L
aL1198L
aL1295L
atp745
Rp746
sL1340L
g8
((lp747
L1530L
aL1579L
aL1580L
atp748
Rp749
sL1341L
g8
((lp750
L1198L
atp751
Rp752
sL1342L
g8
((lp753
L1577L
aL1199L
aL1198L
aL1201L
atp754
Rp755
sL1343L
g8
((lp756
L1577L
aL1202L
aL1198L
atp757
Rp758
sL1344L
g8
((lp759
tp760
Rp761
sL1345L
g8
((lp762
tp763
Rp764
sL1346L
g8
((lp765
tp766
Rp767
sL1347L
g8
((lp768
L1313L
aL1205L
atp769
Rp770
sL1348L
g8
((lp771
L1220L
aL1493L
atp772
Rp773
sL1349L
g8
((lp774
L1313L
aL1251L
aL1189L
aL1546L
aL1547L
aL1549L
aL1550L
aL1557L
aL1529L
aL1309L
atp775
Rp776
sL1350L
g8
((lp777
L1313L
atp778
Rp779
sL1351L
g8
((lp780
tp781
Rp782
sL1352L
g8
((lp783
L1248L
aL1313L
aL1309L
atp784
Rp785
sL1353L
g8
((lp786
L1547L
aL1548L
aL1270L
atp787
Rp788
sL1354L
g8
((lp789
tp790
Rp791
sL1355L
g8
((lp792
tp793
Rp794
sL1356L
g8
((lp795
tp796
Rp797
sL1357L
g8
((lp798
tp799
Rp800
sL1358L
g8
((lp801
L1589L
atp802
Rp803
sL1359L
g8
((lp804
tp805
Rp806
sL1360L
g8
((lp807
tp808
Rp809
sL1361L
g8
((lp810
L1537L
aL1534L
atp811
Rp812
sL1362L
g8
((lp813
L1272L
aL1534L
atp814
Rp815
sL1363L
g8
((lp816
tp817
Rp818
sL1364L
g8
((lp819
tp820
Rp821
sL1365L
g8
((lp822
L1299L
atp823
Rp824
sL1366L
g8
((lp825
L1203L
aL1548L
atp826
Rp827
sL1367L
g8
((lp828
L1332L
aL1159L
atp829
Rp830
sL1368L
g8
((lp831
L1252L
atp832
Rp833
sL1370L
g8
((lp834
tp835
Rp836
sL1371L
g8
((lp837
tp838
Rp839
sL1372L
g8
((lp840
tp841
Rp842
sL1373L
g8
((lp843
tp844
Rp845
sL1374L
g8
((lp846
tp847
Rp848
sL1375L
g8
((lp849
tp850
Rp851
sL1376L
g8
((lp852
L1262L
atp853
Rp854
sL1377L
g8
((lp855
L1515L
atp856
Rp857
sL1378L
g8
((lp858
tp859
Rp860
sL1380L
g8
((lp861
tp862
Rp863
sL1381L
g8
((lp864
L1524L
aL1549L
atp865
Rp866
sL1382L
g8
((lp867
L1262L
atp868
Rp869
sL1383L
g8
((lp870
tp871
Rp872
sL1384L
g8
((lp873
tp874
Rp875
sL1385L
g8
((lp876
L1178L
atp877
Rp878
sL1386L
g8
((lp879
L1581L
atp880
Rp881
sL1387L
g8
((lp882
tp883
Rp884
sL1388L
g8
((lp885
tp886
Rp887
sL1389L
g8
((lp888
tp889
Rp890
sL1390L
g8
((lp891
L1319L
atp892
Rp893
sL1391L
g8
((lp894
L1393L
aL1279L
atp895
Rp896
sL1392L
g8
((lp897
tp898
Rp899
sL1393L
g8
((lp900
L1279L
aL1391L
atp901
Rp902
sL1394L
g8
((lp903
tp904
Rp905
sL1395L
g8
((lp906
L1271L
aL1198L
aL1543L
atp907
Rp908
sL1396L
g8
((lp909
tp910
Rp911
sL1397L
g8
((lp912
L1500L
atp913
Rp914
sL1398L
g8
((lp915
L1233L
atp916
Rp917
sL1399L
g8
((lp918
L1096L
aL1241L
atp919
Rp920
sL1400L
g8
((lp921
L1548L
aL1302L
atp922
Rp923
sL1401L
g8
((lp924
tp925
Rp926
sL1402L
g8
((lp927
tp928
Rp929
sL1403L
g8
((lp930
L1600L
aL1124L
atp931
Rp932
sL1404L
g8
((lp933
tp934
Rp935
sL1405L
g8
((lp936
tp937
Rp938
sL1406L
g8
((lp939
L1288L
aL1179L
atp940
Rp941
sL1407L
g8
((lp942
L1601L
atp943
Rp944
sL1408L
g8
((lp945
L1598L
atp946
Rp947
sL1409L
g8
((lp948
tp949
Rp950
sL1410L
g8
((lp951
L1257L
atp952
Rp953
sL1411L
g8
((lp954
L1525L
aL1317L
atp955
Rp956
sL1412L
g8
((lp957
tp958
Rp959
sL1413L
g8
((lp960
tp961
Rp962
sL1414L
g8
((lp963
L1226L
atp964
Rp965
sL1415L
g8
((lp966
L1096L
aL1282L
atp967
Rp968
sL1416L
g8
((lp969
tp970
Rp971
sL1417L
g8
((lp972
tp973
Rp974
sL1418L
g8
((lp975
tp976
Rp977
sL1419L
g8
((lp978
tp979
Rp980
sL1420L
g8
((lp981
tp982
Rp983
sL1421L
g8
((lp984
tp985
Rp986
sL1422L
g8
((lp987
L1290L
aL1261L
aL1110L
atp988
Rp989
sL1423L
g8
((lp990
tp991
Rp992
sL1424L
g8
((lp993
tp994
Rp995
sL1425L
g8
((lp996
tp997
Rp998
sL1426L
g8
((lp999
tp1000
Rp1001
sL1427L
g8
((lp1002
L1151L
atp1003
Rp1004
sL1428L
g8
((lp1005
L1187L
atp1006
Rp1007
sL1429L
g8
((lp1008
tp1009
Rp1010
sL1430L
g8
((lp1011
tp1012
Rp1013
sL1431L
g8
((lp1014
tp1015
Rp1016
sL1432L
g8
((lp1017
tp1018
Rp1019
sL1433L
g8
((lp1020
tp1021
Rp1022
sL1434L
g8
((lp1023
tp1024
Rp1025
sL1435L
g8
((lp1026
L1119L
atp1027
Rp1028
sL1436L
g8
((lp1029
tp1030
Rp1031
sL1437L
g8
((lp1032
tp1033
Rp1034
sL1438L
g8
((lp1035
tp1036
Rp1037
sL1439L
g8
((lp1038
tp1039
Rp1040
sL1441L
g8
((lp1041
tp1042
Rp1043
sL1442L
g8
((lp1044
tp1045
Rp1046
sL1443L
g8
((lp1047
tp1048
Rp1049
sL1444L
g8
((lp1050
tp1051
Rp1052
sL1445L
g8
((lp1053
tp1054
Rp1055
sL1446L
g8
((lp1056
L1449L
atp1057
Rp1058
sL1447L
g8
((lp1059
tp1060
Rp1061
sL1448L
g8
((lp1062
tp1063
Rp1064
sL1449L
g8
((lp1065
L1446L
atp1066
Rp1067
sL1450L
g8
((lp1068
tp1069
Rp1070
sL1451L
g8
((lp1071
tp1072
Rp1073
sL1452L
g8
((lp1074
tp1075
Rp1076
sL1453L
g8
((lp1077
tp1078
Rp1079
sL1454L
g8
((lp1080
tp1081
Rp1082
sL1455L
g8
((lp1083
tp1084
Rp1085
sL1456L
g8
((lp1086
tp1087
Rp1088
sL1457L
g8
((lp1089
tp1090
Rp1091
sL1458L
g8
((lp1092
tp1093
Rp1094
sL1459L
g8
((lp1095
tp1096
Rp1097
sL1460L
g8
((lp1098
tp1099
Rp1100
sL1461L
g8
((lp1101
tp1102
Rp1103
sL1462L
g8
((lp1104
tp1105
Rp1106
sL1463L
g8
((lp1107
tp1108
Rp1109
sL1464L
g8
((lp1110
tp1111
Rp1112
sL1465L
g8
((lp1113
tp1114
Rp1115
sL1466L
g8
((lp1116
tp1117
Rp1118
sL1467L
g8
((lp1119
tp1120
Rp1121
sL1468L
g8
((lp1122
tp1123
Rp1124
sL1469L
g8
((lp1125
tp1126
Rp1127
sL1470L
g8
((lp1128
tp1129
Rp1130
sL1471L
g8
((lp1131
tp1132
Rp1133
sL1472L
g8
((lp1134
tp1135
Rp1136
sL1473L
g8
((lp1137
tp1138
Rp1139
sL1474L
g8
((lp1140
tp1141
Rp1142
sL1475L
g8
((lp1143
tp1144
Rp1145
sL1476L
g8
((lp1146
tp1147
Rp1148
sL1477L
g8
((lp1149
tp1150
Rp1151
sL1478L
g8
((lp1152
tp1153
Rp1154
sL1479L
g8
((lp1155
tp1156
Rp1157
sL1480L
g8
((lp1158
tp1159
Rp1160
sL1481L
g8
((lp1161
tp1162
Rp1163
sL1482L
g8
((lp1164
tp1165
Rp1166
sL1483L
g8
((lp1167
tp1168
Rp1169
sL1484L
g8
((lp1170
tp1171
Rp1172
sL1486L
g8
((lp1173
tp1174
Rp1175
sL1488L
g8
((lp1176
tp1177
Rp1178
sL1489L
g8
((lp1179
L1293L
atp1180
Rp1181
sL1490L
g8
((lp1182
tp1183
Rp1184
sL1491L
g8
((lp1185
tp1186
Rp1187
sL1492L
g8
((lp1188
tp1189
Rp1190
sL1493L
g8
((lp1191
L1348L
aL1220L
aL1199L
atp1192
Rp1193
sL1494L
g8
((lp1194
L1287L
atp1195
Rp1196
sL1495L
g8
((lp1197
tp1198
Rp1199
sL1496L
g8
((lp1200
tp1201
Rp1202
sL1497L
g8
((lp1203
tp1204
Rp1205
sL1498L
g8
((lp1206
tp1207
Rp1208
sL1499L
g8
((lp1209
tp1210
Rp1211
sL1500L
g8
((lp1212
L1296L
aL1397L
atp1213
Rp1214
sL1501L
g8
((lp1215
tp1216
Rp1217
sL1502L
g8
((lp1218
tp1219
Rp1220
sL1503L
g8
((lp1221
tp1222
Rp1223
sL1504L
g8
((lp1224
tp1225
Rp1226
sL1505L
g8
((lp1227
tp1228
Rp1229
sL1506L
g8
((lp1230
tp1231
Rp1232
sL1507L
g8
((lp1233
tp1234
Rp1235
sL1508L
g8
((lp1236
tp1237
Rp1238
sL1509L
g8
((lp1239
tp1240
Rp1241
sL1510L
g8
((lp1242
tp1243
Rp1244
sL1511L
g8
((lp1245
tp1246
Rp1247
sL1512L
g8
((lp1248
tp1249
Rp1250
sL1513L
g8
((lp1251
tp1252
Rp1253
sL1515L
g8
((lp1254
L1377L
aL1223L
atp1255
Rp1256
sL1516L
g8
((lp1257
L1311L
atp1258
Rp1259
sL1517L
g8
((lp1260
tp1261
Rp1262
sL1518L
g8
((lp1263
L1603L
atp1264
Rp1265
sL1519L
g8
((lp1266
tp1267
Rp1268
sL1520L
g8
((lp1269
tp1270
Rp1271
sL1521L
g8
((lp1272
tp1273
Rp1274
sL1522L
g8
((lp1275
tp1276
Rp1277
sL1523L
g8
((lp1278
tp1279
Rp1280
sL1524L
g8
((lp1281
L1381L
atp1282
Rp1283
sL1525L
g8
((lp1284
L1411L
atp1285
Rp1286
sL1526L
g8
((lp1287
tp1288
Rp1289
sL1527L
g8
((lp1290
L1604L
atp1291
Rp1292
sL1528L
g8
((lp1293
tp1294
Rp1295
sL1529L
g8
((lp1296
L1349L
atp1297
Rp1298
sL1530L
g8
((lp1299
L1281L
aL1107L
aL1340L
atp1300
Rp1301
sL1531L
g8
((lp1302
L1280L
atp1303
Rp1304
sL1532L
g8
((lp1305
tp1306
Rp1307
sL1533L
g8
((lp1308
tp1309
Rp1310
sL1534L
g8
((lp1311
L1272L
aL1361L
aL1362L
aL1534L
atp1312
Rp1313
sL1535L
g8
((lp1314
tp1315
Rp1316
sL1536L
g8
((lp1317
tp1318
Rp1319
sL1537L
g8
((lp1320
L1361L
atp1321
Rp1322
sL1538L
g8
((lp1323
tp1324
Rp1325
sL1539L
g8
((lp1326
tp1327
Rp1328
sL1540L
g8
((lp1329
L1253L
atp1330
Rp1331
sL1541L
g8
((lp1332
L1305L
atp1333
Rp1334
sL1542L
g8
((lp1335
tp1336
Rp1337
sL1543L
g8
((lp1338
L1271L
aL1395L
aL1133L
aL1327L
atp1339
Rp1340
sL1544L
g8
((lp1341
tp1342
Rp1343
sL1545L
g8
((lp1344
tp1345
Rp1346
sL1546L
g8
((lp1347
L1188L
aL1349L
aL1191L
atp1348
Rp1349
sL1547L
g8
((lp1350
L1353L
aL1313L
aL1349L
aL1270L
aL1191L
atp1351
Rp1352
sL1548L
g8
((lp1353
L1400L
aL1353L
aL1302L
aL1366L
atp1354
Rp1355
sL1549L
g8
((lp1356
L1349L
aL1381L
atp1357
Rp1358
sL1550L
g8
((lp1359
L1313L
aL1349L
atp1360
Rp1361
sL1551L
g8
((lp1362
tp1363
Rp1364
sL1552L
g8
((lp1365
tp1366
Rp1367
sL1553L
g8
((lp1368
L1243L
aL1134L
atp1369
Rp1370
sL1554L
g8
((lp1371
tp1372
Rp1373
sL1555L
g8
((lp1374
tp1375
Rp1376
sL1556L
g8
((lp1377
tp1378
Rp1379
sL1557L
g8
((lp1380
L1192L
aL1349L
atp1381
Rp1382
sL1558L
g8
((lp1383
tp1384
Rp1385
sL1559L
g8
((lp1386
L1205L
atp1387
Rp1388
sL1560L
g8
((lp1389
tp1390
Rp1391
sL1561L
g8
((lp1392
tp1393
Rp1394
sL1562L
g8
((lp1395
tp1396
Rp1397
sL1563L
g8
((lp1398
tp1399
Rp1400
sL1564L
g8
((lp1401
tp1402
Rp1403
sL1565L
g8
((lp1404
tp1405
Rp1406
sL1566L
g8
((lp1407
tp1408
Rp1409
sL1567L
g8
((lp1410
tp1411
Rp1412
sL1568L
g8
((lp1413
tp1414
Rp1415
sL1569L
g8
((lp1416
tp1417
Rp1418
sL1570L
g8
((lp1419
tp1420
Rp1421
sL1571L
g8
((lp1422
tp1423
Rp1424
sL1572L
g8
((lp1425
tp1426
Rp1427
sL1573L
g8
((lp1428
L1321L
atp1429
Rp1430
sL1574L
g8
((lp1431
L1300L
atp1432
Rp1433
sL1575L
g8
((lp1434
tp1435
Rp1436
sL1576L
g8
((lp1437
tp1438
Rp1439
sL1577L
g8
((lp1440
L1339L
aL1316L
aL1197L
aL1295L
aL1264L
aL1199L
aL1202L
aL1203L
aL1205L
aL1343L
aL1284L
aL1307L
aL1308L
aL1342L
aL1279L
atp1441
Rp1442
sL1578L
g8
((lp1443
L1200L
aL1197L
atp1444
Rp1445
sL1579L
g8
((lp1446
L1340L
atp1447
Rp1448
sL1580L
g8
((lp1449
L1340L
atp1450
Rp1451
sL1581L
g8
((lp1452
L1386L
atp1453
Rp1454
sL1583L
g8
((lp1455
tp1456
Rp1457
sL1584L
g8
((lp1458
tp1459
Rp1460
sL1585L
g8
((lp1461
tp1462
Rp1463
sL1587L
g8
((lp1464
tp1465
Rp1466
sL1588L
g8
((lp1467
tp1468
Rp1469
sL1589L
g8
((lp1470
L1358L
atp1471
Rp1472
sL1590L
g8
((lp1473
L1274L
atp1474
Rp1475
sL1591L
g8
((lp1476
L1286L
atp1477
Rp1478
sL1592L
g8
((lp1479
tp1480
Rp1481
sL1593L
g8
((lp1482
tp1483
Rp1484
sL1594L
g8
((lp1485
tp1486
Rp1487
sL1595L
g8
((lp1488
tp1489
Rp1490
sL1596L
g8
((lp1491
tp1492
Rp1493
sL1597L
g8
((lp1494
tp1495
Rp1496
sL1598L
g8
((lp1497
L1408L
atp1498
Rp1499
sL1599L
g8
((lp1500
tp1501
Rp1502
sL1600L
g8
((lp1503
L1403L
atp1504
Rp1505
sL1601L
g8
((lp1506
L1407L
atp1507
Rp1508
sL1602L
g8
((lp1509
tp1510
Rp1511
sL1603L
g8
((lp1512
L1518L
atp1513
Rp1514
sL1604L
g8
((lp1515
L1527L
atp1516
Rp1517
ssS'names'
p1518
(dp1519
L1090L
S'Style Design Method Based on Form Impressions'
p1520
sL1091L
S'Automated Concept Generation: A Co-Evolutionary Approach'
p1521
sL1092L
S'Knowledge Sharing Between Designers and Accidentologists for the Development of Road Safety Systems'
p1522
sL1093L
S'A Method for Inferring Design Rules With Explicit Bounds of Applicability'
p1523
sL1094L
S'Using Q-Learning and Genetic Algorithms to Improve the Efficiency of Weight Adjustments for Optimal Control and Design Problems'
p1524
sL1095L
S'A Web-Enabled Engineering Object Modeling Environment to Support Interoperability and Intelligent Services in Collaborative Design'
p1525
sL1096L
S'Handling Multiple Objectives in Decentralized Design'
p1526
sL1097L
S'Facilitating Collaborative Design: A Review on Design Representations and Workstations'
p1527
sL1098L
S'Acquisition of Product Design Guidelines Considering User Kansei Data Pertaining to Product Environments'
p1528
sL1099L
S'Computational Methods Applied to Modelica Simulation Models in a Web Based Framework'
p1529
sL1100L
S'Evaluation of Modular Design Concepts of Complex Mechatronic Systems'
p1530
sL1101L
S'Modeling of Evolutionary Design Database'
p1531
sL1102L
S'On Performance Enhancement of Parallel Kinematic Machine'
p1532
sL1103L
S'An Information Theoretical Perspective on Performance, Refinement and Cost'
p1533
sL1104L
S'A Graph-Based Method for Mechanical Product Family Modeling and Functional Tolerancing'
p1534
sL1105L
S'A Cost Based Methodology for Design Optimization'
p1535
sL1106L
S'Can a House Without a Foundation Support Design?'
p1536
sL1107L
S'A Decision Support Formulation for Design Teams: A Study in Preference Aggregation and Handling Unequal Group Members'
p1537
sL1108L
S'Manufacturing Investment and Allocation in Product Line Design Decision-Making'
p1538
sL1109L
S'An Optimization Based Methodology to Design Flexible Systems Subjected to Changing Operating Conditions'
p1539
sL1110L
S'A Conceptual Design Tool With Error Warning'
p1540
sL1111L
S'Analyzing Accidents of Jamming Body Parts in Doors'
p1541
sL1112L
S'Organizational Applications of Failure Knowledge Management'
p1542
sL1113L
S'Development of a Robust Design Process Using a New Robustness Index'
p1543
sL1114L
S'On Providing Formal Manufacturability Information to Upstream Product Development Processes: Methodology and Case Study'
p1544
sL1115L
S'Modeling of Non-Linear Relations Among Different Design Evaluation Measures for Multi-Objective Design Optimization'
p1545
sL1116L
S'On the Impact of Coupling Strength on Complex System Optimization for Single-Level Formulations'
p1546
sL1117L
S'Feasibility Assessment in Preliminary Design Using Pareto Sets'
p1547
sL1118L
S'PSO Driven Genetic Range Genetic Algorithms'
p1548
sL1119L
S'Methods for Discrete Design Optimization'
p1549
sL1120L
S'Design Optimization by Integration of Evolutionary Search and Cumulative Approximation'
p1550
sL1121L
S'Twinkling a Random Search Algorithm for Design Optimization'
p1551
sL1122L
S'Pipe Route Design Using Variable Topography Distance Transforms'
p1552
sL1123L
S'Heuristic Gradient Projection for 3D Space Frame Optimization'
p1553
sL1124L
S'Fuzzy Heuristic Gradient Projection for Frame Topology Optimization'
p1554
sL1125L
S'Faster Generation of Feasible Design Points'
p1555
sL1126L
S'Methodology to Reach Optimal Design of CHP Plants'
p1556
sL1127L
S'A Comparison of Optimized Stacked-Ply Flywheel Designs That Are Based on Different Failure Criteria'
p1557
sL1128L
S'Roles and Observations of a Graduate Design Coach'
p1558
sL1129L
S'Low Cost Demonstrator as a Mean for Rapid Product Realization With an Electric Motorcycle Application'
p1559
sL1130L
S'Synthesis of Structural Symmetry Driven by Cost Savings'
p1560
sL1131L
S'An Interval-Based Focalization Method for Decision-Making in Decentralized, Multi-Functional Design'
p1561
sL1132L
S'A Parallel Grammar for Simulation-Driven Mechanical Design Synthesis'
p1562
sL1133L
S'A Study of Factor Effects in Data From Factorial Experiments'
p1563
sL1134L
S'Geometric Surface Features Applied to Volumetric CAE Mesh Models'
p1564
sL1135L
S'A CAD-Integrated System for Automated Idealization of CAD-Models for Finite Element Analysis'
p1565
sL1136L
S'A Method for Integrating Form Errors Into Geometric Tolerance Analysis'
p1566
sL1137L
S'Shape Recovery From Medical Image Data Using Extended Superquadrics'
p1567
sL1138L
S'Insertion of Planar Areas Into Free-Form Surfaces in Early Product Design'
p1568
sL1139L
S'Tolerance-Maps Applied to a Point-Line Cluster of Features'
p1569
sL1140L
S'Allocating Tolerances Statistically With Tolerance-Maps and Beta Distributions: The Target a Planar Face'
p1570
sL1141L
S'Design for Product-Embedded Disassembly'
p1571
sL1142L
S'Filleting and Rounding Using a Point-Based Method'
p1572
sL1143L
S'Recognition of Interacting Turning Features for Mill/Turn Parts'
p1573
sL1144L
S'A Packing Genetic Algorithm for Configuration Design'
p1574
sL1145L
S'Polygon Offsetting by Computing Winding Numbers'
p1575
sL1146L
S'Mesh Processing for Computerized Anthropometry'
p1576
sL1147L
S'A Complete Variation Algorithm for Slot and Tab Features for 3D Simulation-Based Tolerance Analysis'
p1577
sL1148L
S'On Tolerance Information Extraction of Feature Model in Automotive Engine CAPP System'
p1578
sL1149L
S'Hole-Making on a Bent Thick Plate'
p1579
sL1150L
S'Design and Experimental Research of Magneto-Rheological Fluid Fan Clutch'
p1580
sL1151L
S'Continuum-Based Design Sensitivity Analysis and Optimization of Springback in Stamping Process'
p1581
sL1152L
S'Design of an Automobile Seat With Regulations Using Axiomatic Design'
p1582
sL1153L
S'Design Optimization of Continuous Caster Refractory Components'
p1583
sL1155L
S'Methodology for Market Analysis of CHP Systems'
p1584
sL1156L
S'Integrating a Vision System With a Coordinate Measuring Machine to Automate the Datum Alignment Process'
p1585
sL1157L
S'A Study on the Feed Rate Optimization of a Ball Screw Feed Drive System for Minimum Vibrations'
p1586
sL1158L
S'Occupant Restraint System Design Under Uncertainty Using Analytical Uncertainty Propagation Via Metamodels'
p1587
sL1159L
S'Packing Optimization by Enhanced Rubber Band Analogy'
p1588
sL1160L
S'Automating Error Attenuation of Cutting Tools Using Smart Material'
p1589
sL1161L
S'Knowledge Based Design Method for Fibre Metal Laminate Fuselage Panels'
p1590
sL1162L
S'A Unified Information Model for Product Family Design Management'
p1591
sL1163L
S'Analysis of Information Complexity During Product Development'
p1592
sL1164L
S'Integrated Feature Modeller for Certain Manufacturing Processes'
p1593
sL1165L
S'Extended Radial Basis Functions for Metamodeling: A Comparative Study'
p1594
sL1166L
S'Selecting an Appropriate Metamodel: The Case for NURBs Metamodels'
p1595
sL1167L
S'A Hybrid Method Using Response Surface and Pattern Search for Design Optimization'
p1596
sL1168L
S'Gaussian Process Meta-Models for Efficient Probabilistic Design in Complex Engineering Design Spaces'
p1597
sL1169L
S'A Compromise Method for the Design of Parametric Polynomial Surrogate Models'
p1598
sL1170L
S'Robust Design of Cellular Materials With Topological and Dimensional Imperfections'
p1599
sL1171L
S'Microstructure Design for a Rotating Disk: With Application to Turbine Engines'
p1600
sL1172L
S'Design of Functionally Graded Structures for Enhanced Thermal Behavior'
p1601
sL1173L
S'A Strategy for Simulation-Based Multiscale, Multi-Functional Products and Associated Design Processes'
p1602
sL1174L
S'An Inductive Design Exploration Method for the Integrated Design of Multi-Scale Materials and Products'
p1603
sL1175L
S'The Generalized Cahn-Hilliard Equations of Multiphase Transition for Structural Topology Optimization'
p1604
sL1176L
S'A Topology Optimization Problem in Control of Structures Using Modal Disparity'
p1605
sL1177L
S'Synthesis of Bistable Periodic Structures Using Topology Optimization and a Genetic Algorithm'
p1606
sL1178L
S'Vehicle Crashworthiness Design Via a Surrogate Model Ensemble and a Co-Evolutionary Genetic Algorithm'
p1607
sL1179L
S'Structural Topology Optimization Using Frame Elements Based on the Complementary Strain Energy Concept for Eigen-Frequency Maximization'
p1608
sL1180L
S'Optimisation of a Robotic Workcell Layout Using Genetic Algorithms'
p1609
sL1181L
S'Topological Synthesis for Linkage Mechanism Design Using the Minimum Potential Energy Principle'
p1610
sL1182L
S'Structural Topology Optimization Under Design-Dependent Loads'
p1611
sL1183L
S'A Review of Software Solutions for the Management of New Product Development and Product Family Planning'
p1612
sL1184L
S'An Activity-Based Costing Method for Product Family Design in the Early Stages of Development'
p1613
sL1185L
S'Product Family Representation and Redesign: Increasing Commonality Using Formal Concept Analysis'
p1614
sL1186L
S'Towards Rapid Redesign: Pattern-Based Design Diagnostics for Large-Scale and Complex Redesign Problems'
p1615
sL1187L
S'Towards Rapid Redesign: Pattern-Based Redesign Planning for Large-Scale and Complex Redesign Problems'
p1616
sL1188L
S'Multi-Objective Design Optimization for Product Platform and Product Family Design Using Genetic Algorithms'
p1617
sL1189L
S'A Methodology to Support Product Family Redesign Using Genetic Algorithm and Commonality Indices'
p1618
sL1190L
S'Assembly Process Selection to Minimize Existing Assembly System Modification Cost During New Product Family Member Design'
p1619
sL1191L
S'Designing Product Families for a Changing Market Space'
p1620
sL1192L
S'A Group Technology Based Representation for Product Portfolios'
p1621
sL1193L
S'Customer Need Driven Function-Behavior Platform Formation'
p1622
sL1194L
S'Product Configuration Design Based on Extensible Product Family for Mass Customization'
p1623
sL1195L
S'Process Platform-Based Production Configuration'
p1624
sL1196L
S'Robust Truck Cabin Layout Optimization Using Advanced Driver Variance Models'
p1625
sL1197L
S'An Adaptive Sequential Linear Programming Algorithm for Optimal Design Problems With Probabilistic Constraints'
p1626
sL1198L
S'Reliability Assessment Based on the Concept of Failure Surface Frontier'
p1627
sL1199L
S'Reliability Optimization Involving Mixed Continuous-Discrete Uncertainties'
p1628
sL1200L
S'Uncertainty Analysis by Dimension Reduction Integration and Saddlepoint Approximations'
p1629
sL1201L
S'A Design Optimization Method Using Evidence Theory'
p1630
sL1202L
S'Enhanced Sequential Optimization and Reliability Assessment Method for Changing Design Variance'
p1631
sL1203L
S'Probabilistic Analytical Target Cascading: A Moment Matching Formulation for Multilevel Optimization Under Uncertainty'
p1632
sL1204L
S'A Methodology to Manage Uncertainty During System-Level Conceptual Design'
p1633
sL1205L
S'A Methodology for Trading-Off Performance and Robustness Under Uncertainty'
p1634
sL1206L
S'Efficient Genetic Algoritm Based Robust Design Method for Compressor Fan Blades'
p1635
sL1207L
S'A New Approach to Probabilistic Risk Analysis in Concurrent and Distributed Design of Aerospace Systems'
p1636
sL1208L
S'Effects of Uncertainty Reduction on Weight of Composite Laminates at Cryogenic Temperatures'
p1637
sL1209L
S'A New Deterministic Approach Using Sensitivity Region Measures for Multi-Objective Robust and Feasibilty Robust Design Optimization'
p1638
sL1210L
S'Reliability-Based Topology Optimization Considering Multicriteria Using Frame Elements'
p1639
sL1211L
S'Integrated Framework for Design Optimization Under Aleatory and/or Epistemic Uncertainties Using Adaptive-Loop Method'
p1640
sL1212L
S'Effect of Safety Measures on Reliability of Aircraft Structures Subjected to Damage Growth'
p1641
sL1213L
S'A Quadrature-Based Sampling Technique for Robust Design With Computer Models'
p1642
sL1214L
S'Automatic Decomposition and Refinement of Oversized Components for Rapid Prototyping'
p1643
sL1215L
S'Virtual Reality Interactive Design Utilizing Meshless Stress Re-Analysis'
p1644
sL1216L
S'Selective Clay Milling for Interactive Prototyping'
p1645
sL1217L
S'Building Sequence of Boundary Model in Layered Manufacturing'
p1646
sL1218L
S'Automatic Fairing of Two-Parameter Rational B-Spline Motion'
p1647
sL1219L
S'PDE-Driven Level Sets and Shape Sensitivity for Structural Topology Optimization'
p1648
sL1220L
S'An Efficient Feasibility Robust Optimization Method Using a Sensitivity Region Concept'
p1649
sL1221L
S'Numerical and Experimental Study of Shielding Gas Orientation Effects on Particle Stream Concentration Mode in Coaxial Laser Aided Material Deposition Process'
p1650
sL1222L
S'Analysis of Decomposability and Complexity for Design Problems in the Context of Decomposition'
p1651
sL1223L
S'Freeform Feature Retrieval by Signal Processing'
p1652
sL1224L
S'Covariance Modeling Method for Use in Compliant Assembly Tolerance Analysis'
p1653
sL1225L
S'A Product Ontology for Automotive Seat Specification'
p1654
sL1226L
S'Resistance Based Modeling of Collaborative Design'
p1655
sL1228L
S'An Optimization Study of the Ultrasonic Welding of Thin Film Polymers'
p1656
sL1229L
S'A Method to Solve Inverse Kinematics Problems Using Lie Algebra and Its Application to Robot Spray Painting Simulation'
p1657
sL1230L
S'Derivation of Design Guidelines for Miniature Machine Tools'
p1658
sL1231L
S'Automated Symmetry Exploitation in Engineering Analysis'
p1659
sL1232L
S'On the Design Synthesis of Multistable Equilibrium Systems'
p1660
sL1233L
S'Optimization of a Semi-Active Shock Absorber Using a Genetic Algorithm'
p1661
sL1234L
S'Concurrent Parameter Design Based on Constraint Network'
p1662
sL1236L
S'A Quantitative Analysis of the Evolution of Design Automation Conference Fields'
p1663
sL1237L
S'Optimization of Chemical Etching Process in Niobium Cavities'
p1664
sL1238L
S'An Efficient Weighting Update Method to Achieve Acceptable Consistency Deviation in Analytical Target Cascading'
p1665
sL1239L
S'A Comparison of Commonality Indices for Product Family Design'
p1666
sL1240L
S'A System Approach to Simulation-Based Design Under Uncertainty, Through Best in Class Simulation Process Integration and Design Optimization'
p1667
sL1241L
S'A Comparative Study of Constraint Programming Techniques Over Intervals in Preliminary Design'
p1668
sL1242L
S'Front Structure Design Procedure for Optimal Pedestrian Leg Impact Performance'
p1669
sL1243L
S'A Recursive, Line-Intersection Method for Finding the Area of a Mesh Projected Onto a Plane'
p1670
sL1244L
S'Task Scheduling of Parallel Development Projects Using Genetic Algorithms'
p1671
sL1245L
S'Dynamic Modeling and Simulation of Parallel Kinematic Machines'
p1672
sL1246L
S'DRed and Design Folders: A Way of Capturing, Storing and Passing On Knowledge Generated During Design Projects'
p1673
sL1247L
S'Identifying and Tracking Features in Freeform Shape'
p1674
sL1248L
S'Development of a Production Cost Estimation Framework for Product Family Design'
p1675
sL1249L
S'Modeling and Design of Materials for Controlled Wave Propagation in Plane Grid Structures'
p1676
sL1250L
S'An Efficient Pareto Set Identification Approach for Multi-Objective Optimization on Black-Box Functions'
p1677
sL1251L
S'Ant Colony Optimization Method for Product Platform Formation'
p1678
sL1252L
S'The Effects of Different Specifications on the Tolerance-Maps for an Angled Face'
p1679
sL1253L
S'Development of Process Optimization for an Intelligent Knowledge-Based System for Spur Gear Precision Forging Die Design'
p1680
sL1254L
S'Global Stiffness Improvement for Tricept Machine Tools Family'
p1681
sL1255L
S'A Parametric Approach to Vehicle Seating Buck Design'
p1682
sL1256L
S'Parameter and Tolerance Constraints Modeling for Assembly'
p1683
sL1257L
S'Fully Free-Form Deformation Features Incorporating Discontinuities'
p1684
sL1258L
S'Design of Components With Optimized Microstructure'
p1685
sL1259L
S'An Integrated Design Support Environment for a Micro-Scale Portable Absorption Cooling System'
p1686
sL1260L
S'A Conceptual Design Synthesis Framework for Micro-Electro-Mechanical Systems (MEMS)'
p1687
sL1261L
S'A Survey of the Study of Failure'
p1688
sL1262L
S'A Knowledge-Based System for Change Impact Analysis'
p1689
sL1263L
S'Evaluation Method for the Topological Synthesis of Sheet Metal Components'
p1690
sL1264L
S'A Single-Loop Method for Reliability-Based Design Optimization'
p1691
sL1265L
S'Geometric Design of Uniform Developable B-Spline Surfaces'
p1692
sL1266L
S'Creative Design, Issues and Strategies'
p1693
sL1267L
S'A Saddlepoint Approximation Method for Uncertainty Analysis'
p1694
sL1268L
S'Geometric Containment Analysis for Rotational Parts'
p1695
sL1269L
S'Integrating Freeform and Feature-Based Fitting Methods'
p1696
sL1270L
S'A Systems Framework for Platform Architecture Analysis'
p1697
sL1271L
S'On the Use of Kriging Models to Approximate Deterministic Computer Models'
p1698
sL1272L
S'Decomposition-Based Assembly Synthesis of Space Frame Structures Using Joint Library'
p1699
sL1273L
S'A New Approach for Simultaneous Shape and Topology Optimization Based on Implicit Topology Description Functions'
p1700
sL1274L
S'On Electrochemical Deposition for Layered Manufacturing'
p1701
sL1275L
S'Robustness and Performance Optimization of Engine Bearing System Using Computer Model and Surrogate Noise'
p1702
sL1276L
S'Design Optimization of Enclosed Liquid Containers With Baffles for Sloshing and Impact'
p1703
sL1277L
S'Design for Project Change Management: Part 1 -- Configuration Design'
p1704
sL1278L
S'Design for Project Change Management: Part 2 -- Attribute Design'
p1705
sL1279L
S'Moment Matching for Sensitivity Analysis of Probabilistic Model Output'
p1706
sL1280L
S'Product Design Selection With Variability in Preferences for an Implicit Value Function'
p1707
sL1281L
S'A Formal Approach to Handling Conflicts in Multiattribute Group Decision Making'
p1708
sL1282L
S'Convergence and Stability in Distributed Design of Large Systems'
p1709
sL1283L
S'Transient Root Cause Analysis: A Model-Based Systems Engineering Methodology'
p1710
sL1284L
S'Design Optimization of Hierarchically Decomposed Multilevel Systems Under Uncertainty'
p1711
sL1285L
S'Purely Declarative Feature-Based Design With Feature Type Property Maintenance'
p1712
sL1286L
S'A Weighted Three-Point-Based Strategy for Variance Estimation'
p1713
sL1287L
S'Hierarchical Arrangement of Characteristics in Product Design Optimization Problems for Deeper Insight Into Optimized Results'
p1714
sL1288L
S'A Method for Determining the Optimal Direction of the Principal Moment of Inertia in Frame Element Cross-Sections'
p1715
sL1289L
S'A Collaborative Rapid Analysis Method for Decision-Making in Assembly Line Design'
p1716
sL1290L
S'Text and Illustration Based Scenario Expressions for Conveying Failure Knowledge'
p1717
sL1291L
S'Variant Design Automation: Strategy and Procedure for Storing Design Process Information'
p1718
sL1292L
S'A Process-Oriented Approach for Management of Product Configuration Models'
p1719
sL1293L
S'Design of a Bimorph Driven Meander-Line Structure for Parts Feeder Application'
p1720
sL1294L
S'Optimisation and Robust Design in Aero Engine Development'
p1721
sL1295L
S'Decoupled and Single Loop Methods for Reliability-Based Optimization and Robust Design'
p1722
sL1296L
S'An Integrated Robust Design and Marketing Approach for Product Design Selection Process'
p1723
sL1297L
S'A CAD Package for High-Speed Cam Design Based on Direct Multiple Shooting Optimal Control Techniques'
p1724
sL1298L
S'A Fuzzy Dynamic Programming Approach for Mixed-Discrete Multistage Decision Processes'
p1725
sL1299L
S'Structural Topology Optimization Under Impact Loads Using Beam Ground Structures'
p1726
sL1300L
S'Objective Function Based Pattern Search: A Computationally Efficient Algorithm for 3D Component Layout'
p1727
sL1301L
S'Toward an Information Management Infrastructure for Product Family Planning and Mass Customization'
p1728
sL1302L
S'Application of Math-Based Marketing and Financial Tools in an Automated Parametric Design Framework'
p1729
sL1303L
S'An Information Theoretical Perspective on Design Optimization'
p1730
sL1304L
S'Economics of Sacrificial Fixturing for CNC Machining and Rapid Manufacturing'
p1731
sL1305L
S'A Benchmark Comparison of CAD 5-Axis Machining Packages'
p1732
sL1306L
S'A Comparative Study of Optimal Design for an Inkjet Printer Tube With and Without Performance Variations'
p1733
sL1307L
S'Reliability-Based Design Optimization Methods'
p1734
sL1308L
S'A Reliability-Based Design Method Using Simulation Techniques and Efficient Optimization Approach'
p1735
sL1309L
S'Assessing Product Architecture Costing: Product Life Cycles, Allocation Rules, and Cost Models'
p1736
sL1310L
S'Unified Distance Queries in a Heterogeneous Model Environment'
p1737
sL1311L
S'The Role of Constraints and Human Interaction in Evolving MEMS Designs: Microresonator Case Study'
p1738
sL1312L
S'Two-Level Approximation Method for Reliability-Based Design Optimization'
p1739
sL1313L
S'Product Platform Design Through Sensitivity Analysis and Cluster Analysis'
p1740
sL1315L
S'A Full Parametric Model for Turbomachinery Blade Design and Optimisation'
p1741
sL1316L
S'The Performance Moment Integration Method for Reliability-Based Robust Design Optimization'
p1742
sL1317L
S'Segmentation of Noisy Laser-Scanner Generated Meshes With Piecewise Polynomial Approximations'
p1743
sL1318L
S'Solid Modeler Evaluation and Comparison Cycle: A Methodology for Optimum Selection of Modeling Software'
p1744
sL1319L
S'Vehicle Structure Optimization for Crash Pulse'
p1745
sL1320L
S'Analytical Variance-Based Global Sensitivity Analysis in Simulation-Based Design Under Uncertainty'
p1746
sL1321L
S'Building Surrogate Models Based on Detailed and Approximate Simulations'
p1747
sL1322L
S'Graphical Modeling Environment and Supporting Framework for Function-Based Conceptual Design'
p1748
sL1323L
S'Relative Entropy Based Method for Global and Regional Sensitivity Analysis in Probabilistic Design'
p1749
sL1324L
S'A Haptic System for Virtual Prototyping of Polygonal Models'
p1750
sL1325L
S'Influence of Group Cohesion and Information Sharing on Effectiveness of Design Review'
p1751
sL1326L
S'Development of a J2EE Web Application for STEP-Based Design Conformance Checking'
p1752
sL1327L
S'A Sequential Exploratory Experimental Design Method: Development of Appropriate Empirical Models in Design'
p1753
sL1328L
S'Applicability of Design Spaces to Utilize Current Assembly Plant Resources to Produce New Product Family Members'
p1754
sL1329L
S'A Sketch-Based Interface for the Design and Analysis of Simple Vibratory Mechanical Systems'
p1755
sL1330L
S'Trim Loop Closure for Enhanced CAD Interoperability'
p1756
sL1331L
S'Haptically Guided Filtering for Reverse Engineering'
p1757
sL1332L
S'Design Configuration of Vehicle With Domain Knowledge Enhancement'
p1758
sL1333L
S'An Exploration-Estimation Algorithm for Synthesis and Analysis of Engineering Systems Using Minimal Physical Testing'
p1759
sL1334L
S'Quantifying Profit and Loss Associated With Failure Cases'
p1760
sL1335L
S'Using the Compromise Decision Support Problem in Microsystem Design: A Formulation for a Miniature Parylene Gas Chromatographic Column'
p1761
sL1336L
S'Improved Disassembly Matrices for Disassembly Processes'
p1762
sL1337L
S'Design Under Uncertainty Using Monte Carlo Simulation and Probabilistic Sufficiency Factor'
p1763
sL1338L
S'A Cross-Evaluation Matrix (CEM) Rating Based Approach to Pareto Efficient Frontier and Design Alternatives Enumeration'
p1764
sL1339L
S'An Integrated Framework for Probabilistic Optimization Using Inverse Reliability Strategy'
p1765
sL1340L
S'An Approach to Robust Multiattribute Concept Selection'
p1766
sL1341L
S'An Indicator Response Surface-Based Monte Carlo Method for Efficient Component and System Reliability Analysis'
p1767
sL1342L
S'Reliability-Based Design With the Mixture of Random and Interval Variables'
p1768
sL1343L
S'Application of the Sequential Optimization and Reliability Assessment Method to Structural Design Problems'
p1769
sL1344L
S'Structural Durability Design Optimization and Its Reliability Assessment'
p1770
sL1345L
S'Incorporating Epistemic Uncertainty in Robust Design'
p1771
sL1346L
S'Robust Optimization of an Automotive Valvetrain Using a Multiobjective Genetic Algorithm'
p1772
sL1347L
S'Robust Design Using Preference Aggregation Methods'
p1773
sL1348L
S'Non-Gradient Based Parameter Sensitivity Estimation for Robust Design Optimization'
p1774
sL1349L
S'Product Platform Design and Optimization: Status and Promise'
p1775
sL1350L
S'Optimal Design Methodology of Common Components for a Class of Products: Its Foundations and Promise'
p1776
sL1351L
S'Internet Based Framework to Perform Automated FEA on User Customized Products'
p1777
sL1352L
S'Production Cost Modeling to Support Product Family Design Optimization'
p1778
sL1353L
S'Product Family and Platform Portfolio Optimization'
p1779
sL1354L
S'Dimensional Adjustment for Assemblability of Rapid Protoyped Parts'
p1780
sL1355L
S'WirePATH Rapid Tooling Process and Supporting Software Development'
p1781
sL1356L
S'Layered Manufacturing by Electrophotographic Printing'
p1782
sL1357L
S'Towards Automated Design of Multi-Piece Permanent Molds'
p1783
sL1358L
S'Toward Automatic Process Planning of a Multi-Axis Hybrid Laser Aided Manufacturing System: Skeleton-Based Offset Edge Generation'
p1784
sL1359L
S'Extracting Freeform Shape Information by Template Fitting'
p1785
sL1360L
S'Extended Hierarchical Cluster Analysis for the Decomposition of Complex Design Problems'
p1786
sL1361L
S'Assembly Synthesis With Subassembly Partitioning for Optimal In-Process Dimensional Adjustability'
p1787
sL1362L
S'Topology Optimization of Multi-Component Structures via Decomposition-Based Assembly Synthesis'
p1788
sL1363L
S'Quantitative Exploratory Techniques to Simplify Multiple Objectives in Product Design Optimization'
p1789
sL1364L
S'Multi-Objective Optimisation of Ship Hull With Distributed Applications'
p1790
sL1365L
S'Structural Topology Design Optimization for Controlled Crash Behavior'
p1791
sL1366L
S'Analytical Target Setting: An Enterprise Context in Optimal Product Design'
p1792
sL1367L
S'Multi-Objective Configuration Optimization With Vehicle Dynamics Applied to Midsize Truck Design'
p1793
sL1368L
S'A New Mathematical Model for Geometric Tolerances as Applied to Axes'
p1794
sL1370L
S'Tolerance Synthesis of Mechanisms: A Robust Design Approach'
p1795
sL1371L
S'Development of a Design Reuse View of Cutting Tool Design Ontology'
p1796
sL1372L
S'A Study of Geometric Error Measurement of CNC Machine Tools Using the Improved Planar Encoder System'
p1797
sL1373L
S'Reducing Cycle Time and Errors in the Design and Layout of MEMS'
p1798
sL1374L
S'Approaches of Knowledge-Based Design'
p1799
sL1375L
S'A Methodology for the Study of the Effects of Communication Method on Design Review Effectiveness'
p1800
sL1376L
S'Development of Knowledge Based System to Facilitate Design of On-Board Car Safety Systems'
p1801
sL1377L
S'Shape Knowledge Indexing Using Invariant Shape Code'
p1802
sL1378L
S'Knowledge Management: A Concept Review'
p1803
sL1380L
S'A Design Alternatives Assessment and Management Approach'
p1804
sL1381L
S'Knowledge Intensive Collaborative Decision Support for Design Process'
p1805
sL1382L
S'A Knowledge-Supported System for Engineering Change Impact Analysis'
p1806
sL1383L
S'Design Optimization of a Vehicle B-Pillar Subjected to Roof Crush Using Mixed Reactive Taboo Search'
p1807
sL1384L
S'Design Optimization of Vehicle Structures for Crashworthiness Using Equivalent Mechanism Approximations'
p1808
sL1385L
S'Response Surface Methods and Pareto Optimization in Crashworthiness Design'
p1809
sL1386L
S'Parametric Design Sensitivity Analysis of High Frequency Structural-Acoustic Problems Using Energy Finite Element Method'
p1810
sL1387L
S'The Effect of Tempering (Artificial Aging) on the Crashworthiness Performance of Mass-Efficient Extruded Aluminum Structures'
p1811
sL1388L
S'Bayesian Approximation-Assisted Optimization Applied to Crashworthiness Design of a Pickup Truck'
p1812
sL1389L
S'Emerging Virtual Machine Tools'
p1813
sL1390L
S'Computer Model Validation in Vehicle Crash Safety Design'
p1814
sL1391L
S'Penalized Likelihood Kriging Model for Analysis of Computer Experiments'
p1815
sL1392L
S'Analysis of Support Vector Regression for Approximation of Complex Engineering Analyses'
p1816
sL1393L
S'An Efficient Algorithm for Constructing Optimal Design of Computer Experiments'
p1817
sL1394L
S'Introducing Rough Set for Design Space Exploration and Optimization'
p1818
sL1395L
S'A Study on the Use of Kriging Models to Approximate Deterministic Computer Models'
p1819
sL1396L
S'A New Global Optimization Method for Simultaneous Computation on Expensive Black-Box Functions'
p1820
sL1397L
S'Multidimensional Solution Clustering and Its Application to the Coolant Passage Optimization of a Turbine Blade'
p1821
sL1398L
S'Optimization of a Semi-Active Shock Absorber for Aircraft Landing Gear'
p1822
sL1399L
S'Towards a Conceptual Design Explorer Using Metamodeling Approaches and Constraint Programming'
p1823
sL1400L
S'A Study of Emission Policy Effects on Optimal Vehicle Design Decisions'
p1824
sL1401L
S'Level Set Models for Structural Topology Optimization'
p1825
sL1402L
S'Topology Optimization of Heat-Resistant Structures'
p1826
sL1403L
S'Topology Optimization of a Compliant Gripper Using Hybrid Simulated Annealing and Direct Search'
p1827
sL1404L
S'Topology Optimization and Dynamic Performance of a Bike Frame With Dampers'
p1828
sL1405L
S'Robust Topological Design of Cellular Materials'
p1829
sL1406L
S'Structural Topology Optimization Using Function-Oriented Elements Based on the Concept of First Order Analysis'
p1830
sL1407L
S'Design of Energy Absorbing Structure Using Topology Optimization With a Multi-Material Model'
p1831
sL1408L
S'Parameterization Strategy for Optimization of Shape Morphing Compliant Mechanisms Using Load Path Representation'
p1832
sL1409L
S'A Face Clustering Method for a Hexahedral Meshing'
p1833
sL1410L
S'A New Approach to Minimisations for Shape Control During Free-Form Surface Deformation'
p1834
sL1411L
S'Smoothing of Noisy Laser Scanner Generated Meshes Using Polynomial Fitting and Neighborhood Erosion'
p1835
sL1412L
S'Partitioning Positional and Normal Space for Fast Occlusion Detection'
p1836
sL1413L
S'Automatic Toolpath Generation for Multi-Axis Surface Machining in a Hybrid Manufacturing System'
p1837
sL1414L
S'A Taxonomy for Collaborative Design'
p1838
sL1415L
S'A Study of Convergence in Decentralized Design'
p1839
sL1416L
S'Port-Compatibility and Connectability Based Assembly Design'
p1840
sL1417L
S'A Concurrent Design Method for Multiple Cross-Sectional Automotive Body Frames Involving Discrete and Continuous Design Variables'
p1841
sL1418L
S'Design Space Visualization and Its Application to a Design by Shopping Paradigm'
p1842
sL1419L
S'Design Process Error-Proofing: Development of Automated Error-Proofing Information Systems'
p1843
sL1420L
S'Design Evaluation Method for Miniature Machine Tools Utilizing Form-Shaping Theory'
p1844
sL1421L
S'Design Shell for Parametric Design at Embodiment Stage'
p1845
sL1422L
S'Scenario Expression for Characterizing Failure Cases'
p1846
sL1423L
S'Design Methodology for the Thermal Packaging of Hybrid Electronic-Mechanical Products: A Case Study on the Berkeley Emulation Engine (BEE)'
p1847
sL1424L
S'A Modeling Method for Vibration Analysis of a Stator Frame of Turbine Generators and Its Application to a Design System: Vibration Analysis and Analysis System'
p1848
sL1425L
S'Strengthening of Bone Cement by Shape Optimization of Short Fibers'
p1849
sL1426L
S'Constraint Dominance Methods Applied to the Design of a Linear Motor'
p1850
sL1427L
S'Design Sensitivity Analysis of Nonlinear Shell Structure With Frictionless Contact'
p1851
sL1428L
S'Optimal Troubleshooting for Electro-Mechanical Systems'
p1852
sL1429L
S'Optimization for Mass Variation of System Including Shock Absorber'
p1853
sL1430L
S'Discretizing Continuous Problems for Faster Global Convergence'
p1854
sL1431L
S'Optimal Packaging of Tank Turret System'
p1855
sL1432L
S'Genetic Range Genetic Algorithms to Obtain Quasi-Optimum Solutions'
p1856
sL1433L
S'Optimization of Helicopter Air Intake Scoop Design'
p1857
sL1434L
S'A Study on Immune Algorithms Considering Interaction of Design With Environment Properties'
p1858
sL1435L
S'Optimizing Optimization for Design Optimization'
p1859
sL1436L
S'Generalized Random Tunneling Algorithm for Continuous Design Variables'
p1860
sL1437L
S'Improved Development Cycle of a Compliant Manipulator'
p1861
sL1438L
S'On Honeycomb Parameterization for Topology Optimization of Compliant Mechanisms'
p1862
sL1439L
S'On Design of Electro-Thermally Compliant MEMS for Strength'
p1863
sL1441L
S'Introduction to Compliant Long-Dwell Mechanism Synthesis Using Buckling Arc Theory'
p1864
sL1442L
S'Distributed Compliant Model for Efficient Dynamic Simulation of Systems With Frictional Contacts'
p1865
sL1443L
S'Suspension Synthesis for N:1 Roll Center Motion'
p1866
sL1444L
S'A Robust Solution to the Spherical Rigid-Body Guidance Problem'
p1867
sL1445L
S'Designing a Dexterous Reconfigurable Packaging System for Flexible Automation'
p1868
sL1446L
S'Kinematic Synthesis of RPS Serial Chains'
p1869
sL1447L
S'Approximate Motion Synthesis of Open and Closed Chains via Parametric Constraint Manifold Fitting: Preliminary Results'
p1870
sL1448L
S'Suggesting Joint Limitations and Physical Parameters for Motion Generating 3 DOF Planar Chains'
p1871
sL1449L
S'Geometric Design of Cylindric PRS Serial Chains'
p1872
sL1450L
S'On the Effects of Weights in Rational Motion Design'
p1873
sL1451L
S'Dimensional Synthesis of CRR Serial Chains'
p1874
sL1452L
S'Analytical Determination of Principal Twists and Singular Directions in Robot Manipulators'
p1875
sL1453L
S'Type Synthesis of Three-DOF Translational Parallel Mechanisms'
p1876
sL1454L
S'Forward Problem Singularities of Manipulators Which Become PS-2RS or 2PS-RS Structures When the Actuators Are Locked'
p1877
sL1455L
S'Singularity Analysis of a Novel 4-DOFs Parallel Robot H4 by Using Screw Theory'
p1878
sL1456L
S'Planar Translational Cable-Direct-Driven Robots: Hardware Implementation'
p1879
sL1457L
S'Interpolation Algorithm and Its Error Prediction of a Tripod-Based Parallel Kinematic Machine'
p1880
sL1458L
S'An Integrated Virtual Validation System for Parallel Kinematic Machine Analysis Design'
p1881
sL1459L
S'Design Optimization of 6-HTRT Parallel Robot Orientated on Workspace'
p1882
sL1460L
S'Cable-Based Metrology System for Sculpting Assistance'
p1883
sL1461L
S'Optimal Integration of Smart Actuators in the Structure of Serial and Parallel Robot Manipulators to Enhance Speed and Tracking Precision'
p1884
sL1462L
S'An XZ Micropositioning Mechanism (XZMM) With Out-of-Plane Translation'
p1885
sL1463L
S'Kinetic Analysis of Planar Frictionless Mechanisms Made Simple'
p1886
sL1464L
S'Computer Simulation of Path and Motion Generation With Six-Bar Linkage'
p1887
sL1465L
S'On the Existence of Special Cases of Input Speed Doubling Linkage Mechanisms'
p1888
sL1466L
S'The Radius of Curvature of a Coupler Curve of the Single Flier Eight-Bar Linkage'
p1889
sL1467L
S'An Analytical Comparison Between Ball and Crossed Roller Bearings for Utilization in Actuator Modules for Precision Modular Robots'
p1890
sL1468L
S'Influence of End-Effector Velocities on Robotic Manipulator Dynamic Performance: An Analytical Approach'
p1891
sL1469L
S'Analysis and Visualization of the Contact Force Solution Space for Multi-Limbed Mobile Robots With Three Feet Contact'
p1892
sL1470L
S'Choosing the Optimal Contact Force Distribution for Multi-Limbed Mobile Robots With Three Feet Contact'
p1893
sL1471L
S'An Articulated Body Algorithm for Modelling and Simulation of an Underwater Vehicle Equipped With Manipulator Arm'
p1894
sL1472L
S'On the Design of Nesting Forces for Exactly Constrained, Robust Mechanical Assemblies'
p1895
sL1473L
S'On the Robustness of Exactly Constrained Mechanical Assemblies'
p1896
sL1474L
S'Analysis of Multiple Equilibrium Positions in Magnetostatic Field'
p1897
sL1475L
S'On the Geometry of 3D Orientation Measurement Using a New Class of Wireless Angular Position Sensors'
p1898
sL1476L
S'Similarity and Equivalence of Nutating Mechanisms to Bevel Epicyclic Gear Trains'
p1899
sL1477L
S'Forward Kinematics of 3-GPR Planar Parallel Manipulators With Circular Rolling Contact Joints'
p1900
sL1478L
S'The Robust Design of a Two-Wheeled Quasiholonomic Mobile Robot'
p1901
sL1479L
S'Kinematics of Wheeled Mobile Robots With Toroidal Wheels on Uneven Terrain'
p1902
sL1480L
S'Design of a Self-Actuating, Traction Drive System for High-Speed Ratios'
p1903
sL1481L
S'Topology and Shape Optimization of an Interbody Fusion Implant for Lumbar Spine Fixation'
p1904
sL1482L
S'An Integrated Design Optimization Approach for Quantitative and Qualitative Search Space'
p1905
sL1483L
S'An Approach for Generating Variational Geometry of a Pattern of Holes With Composite Positional Tolerances'
p1906
sL1484L
S'Design Decision-Making in the Early Stages of Collaborative Engineering'
p1907
sL1486L
S'Identifying Variable Effects on the Dimensional Quality of Compliant Assembly, Using Computer Experiments'
p1908
sL1488L
S'Reconstructing Freeform Surface With Parameterized Features'
p1909
sL1489L
S'Analysis and Design of a Four-Bar Linkage Type of Vibratory Parts Feeder Driven by Piezoelectric Actuator'
p1910
sL1490L
S'Autogenetic Design Theory: An Approach to Optimise Both the Design Process and the Product'
p1911
sL1491L
S'Human Head Aesthetic Design Using Hybrid Genetic Algorithm'
p1912
sL1492L
S'Applying Universal Linking of Engineering Objects in the Automotive Industry: Practical Aspects, Benefits, and Prototypes'
p1913
sL1493L
S'Mini-Max Type Formulation of Strict Robust Design Optimization Under Correlative Variation'
p1914
sL1494L
S'Optimization of Machine System Designs Using Hierarchical Decomposition Based on Criteria Influence'
p1915
sL1495L
S'Lifecycle-Based Product Design Using Global Optimization Methods Based on Hierarchical Genotype Representation of Alternatives and Constraints'
p1916
sL1496L
S'Conceptual Design of Tool Storage Based on the Divergent Tree Method'
p1917
sL1497L
S'Comparison of Gradient and Non Gradient Based Methods for Crash Optimisation'
p1918
sL1498L
S'Computational Geometric Modeling and Unfolding of 3-D Folded Structures'
p1919
sL1499L
S'Performance Optimization of Extrusion Blow Molded Parts Using Fuzzy Neural-Taguchi Method and Genetic Algorithm'
p1920
sL1500L
S'An Evolutionary Clustering Approach to Pareto Solutions in Multiobjective Optimization'
p1921
sL1501L
S'Automatic Conceptual Design of Mechanical Devices Based on Reasoning the Design Rules'
p1922
sL1502L
S'A Study on Collaborative Design Considering Features of Design'
p1923
sL1503L
S'Reconfiguration of Kinematic Structure for Changing Motion Requirement Based on Reusability Evaluation in Lie Algebra'
p1924
sL1504L
S'A Study on Optimum Topology of Plate Structure Using Coordinate Transformation by Conformal Mapping'
p1925
sL1505L
S'Computer-Aided Analysis of Free Transverse-Vibration of Stepped Beams'
p1926
sL1506L
S'Thermal Robustness and Mass Optimization of Heat Pipe Shape for Spacecraft Panel Using a Combination of Response Surface Methodology and Monte Carlo Simulation'
p1927
sL1507L
S'Dual Stage Input Coupled Split Power Transmission Efficiency Optimization'
p1928
sL1508L
S'Informing Design Using Data Mining Methods'
p1929
sL1509L
S'Development of Multi-Stage and Hybrid Real-Coded Genetic Algorithms With Active Constraints'
p1930
sL1510L
S'Computational Recognition of Functional Parameters of Surfaces for the Kinematic Design of Window Regulator Systems'
p1931
sL1511L
S'Human Modelling: A Constraint-Based Feature Modelling Approach'
p1932
sL1512L
S'Analysis of Loads and Stresses for a Sewing Needle'
p1933
sL1513L
S'Artificial Immune System Based Isomorphism Identification Method for Mechanism Kinematics Chains'
p1934
sL1515L
S'Cross Model Shape Reuse: Copying and Pasting of Freeform Features'
p1935
sL1516L
S'Automated Design Synthesis for Micro-Electro-Mechanical Systems (MEMS)'
p1936
sL1517L
S'Use of Constrained Viscoelastic Layers in the Design of Satellite Panels to Predict the Amplification Factor'
p1937
sL1518L
S'Stiffness Testing of Hydraulic Hoses'
p1938
sL1519L
S'Finite Element Analysis in 3D Using the Penalty Boundary Method'
p1939
sL1520L
S'Integration of Commercial CAD/CAM System With Custom CAPP Using Orbix Middleware and CORBA Standard'
p1940
sL1521L
S'Counting Degrees of Freedom for Developable Bezier Surface Design'
p1941
sL1522L
S'Determination of Geometric Distortions in Automotive Lamps Using Non-Linear Parametric Estimations'
p1942
sL1523L
S'Macroscopic Shape-Information as a Curve Design-Guideline'
p1943
sL1524L
S'Collaborative Decision Making Across Digital Interfaces'
p1944
sL1525L
S'Local Least Squares Fitting for Surface Mesh Fairing in Automobile Panel Design'
p1945
sL1526L
S'A Stochastic Optimization Application for Vehicle Structures'
p1946
sL1527L
S'Math-Based Performance Evaluation of an Experimental Car: Side Impact Protection'
p1947
sL1528L
S'Model Reduction in Structural Analysis Using a Multiresolution Analysis'
p1948
sL1529L
S'A Web Enabled Process for Accessing Customized Parametric Designs'
p1949
sL1530L
S'Multiattribute Decision Making Using Hypothetical Equivalents'
p1950
sL1531L
S'Interactive Product Design Selection With an Implicit Value Function'
p1951
sL1532L
S'A Customer-Based Expected Utility Metric for Product Design Selection'
p1952
sL1533L
S'Empirical Analysis Using Advanced Similarity Methods'
p1953
sL1534L
S'Decomposition-Based Assembly Synthesis Based on Structural Stiffness Considerations'
p1954
sL1535L
S'An Analytical Approach to Functional Design'
p1955
sL1536L
S'Control, Design and Error Variables in Decomposition of Design Optimization Problems'
p1956
sL1537L
S'Decomposition-Based Assembly Synthesis for In-Process Dimensional Adjustability'
p1957
sL1538L
S'A Grammar-Based Approach to Sheet Metal Design'
p1958
sL1539L
S'Adaptive-Agent Based Simulation Model to Study Diffusion of Eco-Innovation Strategies'
p1959
sL1540L
S'A Knowledge-Based Approach to Spur Gear Fabrication in Precision Forging Process'
p1960
sL1541L
S'A Benchmark Comparison of Curvature Matched Machining versus Three- and Five-Axis Machining Methods Applied to Industrial Part Surfaces'
p1961
sL1542L
S'Adaptive Experimental Design Applied to Ergonomics Testing Procedure'
p1962
sL1543L
S'On Sequential Sampling for Global Metamodeling in Engineering Design'
p1963
sL1544L
S'Computer Implementation of an Improved Kutzbach-Grubler Mobility Criterion'
p1964
sL1545L
S'Modeling of Slope Discontinuities in Flexible Body Dynamics Using the Finite Element Method'
p1965
sL1546L
S'Design of Hierarchic Platforms for Customizable Products'
p1966
sL1547L
S'A Quantitative Approach for Designing Multiple Product Platforms for an Evolving Portfolio of Products'
p1967
sL1548L
S'Optimal Design Decisions in Product Portfolio Valuation'
p1968
sL1549L
S'Knowledge Intensive Support for Product Family Design'
p1969
sL1550L
S'Platform Selection Under Performance Loss Constraints in Optimal Design of Product Families'
p1970
sL1551L
S'Inverse Parametric Modeling From Independently Generated Product Data Sets'
p1971
sL1552L
S'A Hybrid Approach to Feature Recognition Using Approximate and Partial Exact CAD Models'
p1972
sL1553L
S'A Mesh Feature Paradigm for Rapid Generation of CAE-Based Design of Experiments Data'
p1973
sL1554L
S'Development of Adaptive Range Genetic Algorithms Considering Inheritance of Searching Range'
p1974
sL1555L
S'GA-Based Multi-Objective Fuzzy Matter-Element Optimization'
p1975
sL1556L
S'Using Genetic Algorithms With Niche Formation to Solve the Minimum Distance Problem Among Concave Objects'
p1976
sL1557L
S'A Genetic Algorithm Based Method for Product Family Design Optimization'
p1977
sL1558L
S'Shape Optimization of NURBS Modeled 3D C-Frames Using Hybrid Genetic Algorithm'
p1978
sL1559L
S'Robust Design Through the Use of a Hybrid Genetic Algorithm'
p1979
sL1560L
S'Nonlinear Kinematic Tolerance Analysis of Planar Higher Pairs'
p1980
sL1561L
S'Parameter Sensitivity in System Identification of Parallel Mechanisms'
p1981
sL1562L
S'A New Symbolic Method to Determine Base Inertia Parameters for General Spatial Mechanisms'
p1982
sL1563L
S'Redesign of a Spatial Gear Pair Using Configuration Spaces'
p1983
sL1564L
S'Error Sensitivity Analysis for Optimal Calibration of Parallel Kinematic Machines'
p1984
sL1565L
S'Development of an Interactive Web-Based Support System for Gear Design'
p1985
sL1566L
S'An Extensive Simplex Method Mapping the Global Feasibility'
p1986
sL1567L
S'Theoretical Evaluation of the Integrated Structure and Control Design Approach by Optimization Theory'
p1987
sL1568L
S'Finding the Shortest Path for Quality Assurance of Electric Components'
p1988
sL1569L
S'Development of an Automatic Design and Optimization System for Industrial Silencers'
p1989
sL1570L
S'Architectural Optimisation Using Real Options Theory and Dependency Structure Matrices'
p1990
sL1571L
S'Dynamic Analysis and Optimization of Tensioner in Automotive Serpentine Belt Drive Systems'
p1991
sL1572L
S'Configurable and Extensible System for Experimenting With Design Optimization'
p1992
sL1573L
S'On the Entropy of Multi-Objective Design Optimization Solution Sets'
p1993
sL1574L
S'A Sensitivity-Based Pattern Search Algorithm for 3D Component Layout'
p1994
sL1575L
S'Hybrid Approach for Containment Problems'
p1995
sL1576L
S'A Non-Deterministic Approach to Concept Selection Using S-Pareto Frontiers'
p1996
sL1577L
S'Sequential Optimization and Reliability Assessment Method for Efficient Probabilistic Design'
p1997
sL1578L
S'An Investigation of Nonlinearity of Reliability-Based Design Optimization Approaches'
p1998
sL1579L
S'New Concepts in Graphic Visualization of Objective Functions'
p1999
sL1580L
S'Visualization of Multidimensional Design and Optimization Data Using Cloud Visualization'
p2000
sL1581L
S'Design Optimization for Structural-Acoustic Problems Using FEM-BEM'
p2001
sL1583L
S'Dynamic Project Navigation: Modelling, Improving, and Review of Engineering Processes'
p2002
sL1584L
S'Benefit Evaluation of New Technologies'
p2003
sL1585L
S'Smart Assemblies for Robust Design: A Progress Report'
p2004
sL1587L
S'The Evolution of a Layered Manufacturing Interchange Format'
p2005
sL1588L
S'ModelAngelo: A Rapid Prototyping System for Polystyrene'
p2006
sL1589L
S'Automatic Process Planning of a Multi-Axis Hybrid Manufacturing System'
p2007
sL1590L
S'H-ISM: An Implementation of Heterogeneous Implicit Solid Modeling'
p2008
sL1591L
S'Model Validation via Uncertainty Propagation Using Response Surface Models'
p2009
sL1592L
S'Bayesian Evaluation of Engineering Models'
p2010
sL1593L
S'Uncertainty Analysis Using a Constraint Reliability Index'
p2011
sL1594L
S'A Tool Management System for Probabilistic Design Problems'
p2012
sL1595L
S'Evaluation of Conceptual Designs and Maintainability Incorporating Uncertainty'
p2013
sL1596L
S'Computer-Aided Fixture Design Verification: Part II -- Tolerance Analysis'
p2014
sL1597L
S'A Scheme for Transformation of Tolerance Specifications to Generalized Deviation Space for Use in Tolerance Synthesis and Analysis'
p2015
sL1598L
S'Topology Optimization of Compliant Mechanisms Using Evolutionary Algorithm With Design Geometry Encoded as a Graph'
p2016
sL1599L
S'Optimal Embedding in the Topology Design of Structures'
p2017
sL1600L
S'An Evolutionary Multi-Objective Optimization Approach to the Topology Optimization of Auxetic Structures'
p2018
sL1601L
S'Compliant Mechanism Design With Non-Linear Materials Using Topology Optimization'
p2019
sL1602L
S'An Interactive Virtual Environment for 3D Model Assembly With Video Immersion'
p2020
sL1603L
S'Modeling of Hydraulic Hose Paths'
p2021
sL1604L
S'Math-Based Performance Evaluation of an Experimental Car: Frontal Impact Crashworthiness'
p2022
ssb.