ccopy_reg
_reconstructor
p0
(c__main__
CitationNetwork
p1
c__builtin__
object
p2
Ntp3
Rp4
(dp5
S'network_dict'
p6
(dp7
L348L
c__builtin__
set
p8
((lp9
L553L
aL1123L
atp10
Rp11
sL349L
g8
((lp12
tp13
Rp14
sL350L
g8
((lp15
L1601L
atp16
Rp17
sL351L
g8
((lp18
tp19
Rp20
sL352L
g8
((lp21
L1272L
aL1362L
aL1534L
atp22
Rp23
sL353L
g8
((lp24
L497L
aL754L
aL541L
aL861L
aL757L
atp25
Rp26
sL354L
g8
((lp27
L1313L
aL355L
aL1188L
aL1353L
aL1550L
aL497L
aL757L
aL1302L
aL857L
atp28
Rp29
sL355L
g8
((lp30
L857L
aL354L
aL757L
aL497L
atp31
Rp32
sL356L
g8
((lp33
tp34
Rp35
sL357L
g8
((lp36
tp37
Rp38
sL358L
g8
((lp39
tp40
Rp41
sL359L
g8
((lp42
L1073L
aL1577L
atp43
Rp44
sL360L
g8
((lp45
L1200L
aL578L
aL707L
atp46
Rp47
sL361L
g8
((lp48
tp49
Rp50
sL362L
g8
((lp51
tp52
Rp53
sL363L
g8
((lp54
tp55
Rp56
sL364L
g8
((lp57
tp58
Rp59
sL365L
g8
((lp60
tp61
Rp62
sL366L
g8
((lp63
tp64
Rp65
sL367L
g8
((lp66
L680L
aL978L
aL746L
aL740L
aL1282L
atp67
Rp68
sL368L
g8
((lp69
L762L
aL507L
aL876L
atp70
Rp71
sL369L
g8
((lp72
tp73
Rp74
sL377L
g8
((lp75
tp76
Rp77
sL378L
g8
((lp78
tp79
Rp80
sL379L
g8
((lp81
L864L
aL1061L
aL492L
aL490L
aL748L
aL496L
aL1053L
atp82
Rp83
sL381L
g8
((lp84
tp85
Rp86
sL382L
g8
((lp87
tp88
Rp89
sL383L
g8
((lp90
L547L
aL539L
aL861L
aL543L
atp91
Rp92
sL384L
g8
((lp93
tp94
Rp95
sL385L
g8
((lp96
tp97
Rp98
sL386L
g8
((lp99
tp100
Rp101
sL387L
g8
((lp102
L388L
atp103
Rp104
sL388L
g8
((lp105
L387L
atp106
Rp107
sL389L
g8
((lp108
L547L
atp109
Rp110
sL390L
g8
((lp111
L1248L
aL1069L
aL750L
aL753L
aL499L
aL1239L
aL857L
atp112
Rp113
sL391L
g8
((lp114
L858L
atp115
Rp116
sL392L
g8
((lp117
tp118
Rp119
sL393L
g8
((lp120
L752L
aL1557L
aL1069L
atp121
Rp122
sL394L
g8
((lp123
L864L
atp124
Rp125
sL395L
g8
((lp126
tp127
Rp128
sL396L
g8
((lp129
tp130
Rp131
sL397L
g8
((lp132
tp133
Rp134
sL398L
g8
((lp135
tp136
Rp137
sL399L
g8
((lp138
L724L
aL629L
aL725L
atp139
Rp140
sL400L
g8
((lp141
L1393L
atp142
Rp143
sL401L
g8
((lp144
tp145
Rp146
sL404L
g8
((lp147
tp148
Rp149
sL405L
g8
((lp150
tp151
Rp152
sL406L
g8
((lp153
tp154
Rp155
sL407L
g8
((lp156
L1418L
atp157
Rp158
sL408L
g8
((lp159
L1056L
aL552L
aL1010L
aL1107L
aL1559L
atp160
Rp161
sL409L
g8
((lp162
L498L
atp163
Rp164
sL410L
g8
((lp165
L754L
aL503L
aL861L
aL895L
atp166
Rp167
sL411L
g8
((lp168
L716L
atp169
Rp170
sL412L
g8
((lp171
L857L
aL754L
aL757L
aL486L
aL750L
atp172
Rp173
sL413L
g8
((lp174
tp175
Rp176
sL414L
g8
((lp177
tp178
Rp179
sL415L
g8
((lp180
tp181
Rp182
sL416L
g8
((lp183
L644L
aL1135L
atp184
Rp185
sL417L
g8
((lp186
L1589L
aL1413L
atp187
Rp188
sL418L
g8
((lp189
tp190
Rp191
sL420L
g8
((lp192
tp193
Rp194
sL422L
g8
((lp195
tp196
Rp197
sL423L
g8
((lp198
tp199
Rp200
sL424L
g8
((lp201
tp202
Rp203
sL425L
g8
((lp204
L1117L
atp205
Rp206
sL426L
g8
((lp207
L1009L
aL1010L
aL545L
atp208
Rp209
sL427L
g8
((lp210
L537L
atp211
Rp212
sL428L
g8
((lp213
L1543L
aL1204L
aL1271L
atp214
Rp215
sL429L
g8
((lp216
L1010L
aL547L
aL543L
atp217
Rp218
sL430L
g8
((lp219
L549L
aL1287L
aL524L
aL910L
aL1040L
aL664L
atp220
Rp221
sL431L
g8
((lp222
tp223
Rp224
sL434L
g8
((lp225
L793L
aL674L
atp226
Rp227
sL435L
g8
((lp228
L1580L
atp229
Rp230
sL436L
g8
((lp231
tp232
Rp233
sL437L
g8
((lp234
L1010L
atp235
Rp236
sL438L
g8
((lp237
tp238
Rp239
sL439L
g8
((lp240
L1119L
atp241
Rp242
sL440L
g8
((lp243
L504L
aL526L
aL1543L
atp244
Rp245
sL441L
g8
((lp246
L680L
aL1282L
aL1415L
atp247
Rp248
sL442L
g8
((lp249
L546L
aL907L
atp250
Rp251
sL443L
g8
((lp252
L1312L
aL1578L
aL1238L
atp253
Rp254
sL444L
g8
((lp255
tp256
Rp257
sL445L
g8
((lp258
tp259
Rp260
sL446L
g8
((lp261
tp262
Rp263
sL447L
g8
((lp264
tp265
Rp266
sL448L
g8
((lp267
tp268
Rp269
sL449L
g8
((lp270
tp271
Rp272
sL450L
g8
((lp273
tp274
Rp275
sL451L
g8
((lp276
tp277
Rp278
sL452L
g8
((lp279
L452L
atp280
Rp281
sL453L
g8
((lp282
tp283
Rp284
sL454L
g8
((lp285
L1313L
aL1546L
aL1001L
atp286
Rp287
sL455L
g8
((lp288
tp289
Rp290
sL456L
g8
((lp291
L752L
aL1547L
aL1557L
atp292
Rp293
sL457L
g8
((lp294
L1162L
aL1050L
atp295
Rp296
sL458L
g8
((lp297
L560L
aL690L
aL821L
atp298
Rp299
sL459L
g8
((lp300
L568L
aL1078L
atp301
Rp302
sL460L
g8
((lp303
L861L
atp304
Rp305
sL461L
g8
((lp306
tp307
Rp308
sL462L
g8
((lp309
L571L
atp310
Rp311
sL463L
g8
((lp312
L1010L
atp313
Rp314
sL464L
g8
((lp315
L1085L
atp316
Rp317
sL465L
g8
((lp318
L1347L
aL1067L
aL1071L
aL1264L
aL568L
aL1342L
atp319
Rp320
sL466L
g8
((lp321
L1577L
atp322
Rp323
sL467L
g8
((lp324
L1577L
aL467L
atp325
Rp326
sL468L
g8
((lp327
tp328
Rp329
sL469L
g8
((lp330
tp331
Rp332
sL470L
g8
((lp333
L906L
aL574L
atp334
Rp335
sL471L
g8
((lp336
tp337
Rp338
sL472L
g8
((lp339
tp340
Rp341
sL473L
g8
((lp342
tp343
Rp344
sL474L
g8
((lp345
tp346
Rp347
sL475L
g8
((lp348
tp349
Rp350
sL476L
g8
((lp351
tp352
Rp353
sL477L
g8
((lp354
tp355
Rp356
sL478L
g8
((lp357
tp358
Rp359
sL479L
g8
((lp360
tp361
Rp362
sL480L
g8
((lp363
tp364
Rp365
sL481L
g8
((lp366
tp367
Rp368
sL482L
g8
((lp369
tp370
Rp371
sL483L
g8
((lp372
L1416L
aL731L
aL605L
atp373
Rp374
sL484L
g8
((lp375
tp376
Rp377
sL485L
g8
((lp378
tp379
Rp380
sL486L
g8
((lp381
L1313L
aL1353L
aL1550L
aL757L
aL1046L
aL857L
aL412L
atp382
Rp383
sL487L
g8
((lp384
tp385
Rp386
sL488L
g8
((lp387
tp388
Rp389
sL489L
g8
((lp390
L843L
aL847L
atp391
Rp392
sL490L
g8
((lp393
L379L
atp394
Rp395
sL491L
g8
((lp396
L601L
aL1349L
aL639L
atp397
Rp398
sL492L
g8
((lp399
L864L
aL596L
aL379L
aL748L
aL1061L
atp400
Rp401
sL493L
g8
((lp402
L863L
atp403
Rp404
sL495L
g8
((lp405
L864L
aL596L
aL748L
aL1053L
aL749L
atp406
Rp407
sL496L
g8
((lp408
L864L
aL379L
aL1046L
atp409
Rp410
sL497L
g8
((lp411
L353L
aL354L
aL355L
aL754L
aL1108L
aL506L
aL1532L
atp412
Rp413
sL498L
g8
((lp414
L752L
aL409L
atp415
Rp416
sL499L
g8
((lp417
L752L
aL818L
aL1069L
aL750L
aL390L
atp418
Rp419
sL500L
g8
((lp420
tp421
Rp422
sL501L
g8
((lp423
tp424
Rp425
sL502L
g8
((lp426
L1010L
aL1125L
aL1399L
atp427
Rp428
sL503L
g8
((lp429
L410L
atp430
Rp431
sL504L
g8
((lp432
L760L
aL440L
atp433
Rp434
sL505L
g8
((lp435
L1121L
aL761L
atp436
Rp437
sL506L
g8
((lp438
L497L
aL626L
atp439
Rp440
sL507L
g8
((lp441
L368L
aL713L
aL876L
atp442
Rp443
sL508L
g8
((lp444
L770L
aL876L
atp445
Rp446
sL509L
g8
((lp447
tp448
Rp449
sL510L
g8
((lp450
tp451
Rp452
sL511L
g8
((lp453
L1062L
aL638L
aL1358L
atp454
Rp455
sL512L
g8
((lp456
L772L
atp457
Rp458
sL513L
g8
((lp459
tp460
Rp461
sL514L
g8
((lp462
tp463
Rp464
sL515L
g8
((lp465
tp466
Rp467
sL519L
g8
((lp468
L1206L
atp469
Rp470
sL521L
g8
((lp471
tp472
Rp473
sL522L
g8
((lp474
tp475
Rp476
sL523L
g8
((lp477
tp478
Rp479
sL524L
g8
((lp480
L430L
atp481
Rp482
sL525L
g8
((lp483
tp484
Rp485
sL526L
g8
((lp486
L1056L
aL440L
atp487
Rp488
sL527L
g8
((lp489
L1039L
atp490
Rp491
sL528L
g8
((lp492
L1282L
aL740L
aL1415L
aL680L
aL746L
aL1069L
aL750L
aL752L
aL978L
aL1530L
atp493
Rp494
sL529L
g8
((lp495
L1392L
aL1010L
atp496
Rp497
sL530L
g8
((lp498
L1170L
atp499
Rp500
sL531L
g8
((lp501
L1010L
aL1543L
atp502
Rp503
sL532L
g8
((lp504
L1010L
atp505
Rp506
sL533L
g8
((lp507
L802L
aL739L
aL1543L
aL1321L
aL906L
aL1008L
aL1010L
aL1078L
aL1271L
atp508
Rp509
sL534L
g8
((lp510
tp511
Rp512
sL535L
g8
((lp513
L907L
aL636L
atp514
Rp515
sL536L
g8
((lp516
tp517
Rp518
sL537L
g8
((lp519
L538L
aL427L
atp520
Rp521
sL538L
g8
((lp522
L537L
atp523
Rp524
sL539L
g8
((lp525
L383L
atp526
Rp527
sL540L
g8
((lp528
tp529
Rp530
sL541L
g8
((lp531
L353L
aL1250L
atp532
Rp533
sL542L
g8
((lp534
L754L
aL859L
atp535
Rp536
sL543L
g8
((lp537
L429L
aL383L
atp538
Rp539
sL544L
g8
((lp540
tp541
Rp542
sL545L
g8
((lp543
L426L
atp544
Rp545
sL546L
g8
((lp546
L442L
aL907L
aL805L
atp547
Rp548
sL547L
g8
((lp549
L429L
aL389L
aL383L
atp550
Rp551
sL548L
g8
((lp552
L911L
atp553
Rp554
sL549L
g8
((lp555
L1271L
aL430L
aL1071L
aL1201L
aL1078L
aL663L
aL664L
aL953L
atp556
Rp557
sL550L
g8
((lp558
tp559
Rp560
sL551L
g8
((lp561
L1009L
aL1250L
aL1010L
atp562
Rp563
sL552L
g8
((lp564
L1056L
aL408L
aL1559L
aL1580L
aL663L
atp565
Rp566
sL553L
g8
((lp567
L348L
atp568
Rp569
sL554L
g8
((lp570
L925L
aL1054L
atp571
Rp572
sL555L
g8
((lp573
L1002L
aL1162L
aL813L
atp574
Rp575
sL556L
g8
((lp576
L1002L
aL932L
aL938L
aL813L
atp577
Rp578
sL557L
g8
((lp579
L675L
aL1301L
aL1046L
atp580
Rp581
sL558L
g8
((lp582
tp583
Rp584
sL559L
g8
((lp585
L691L
aL572L
aL821L
aL693L
atp586
Rp587
sL560L
g8
((lp588
L690L
aL458L
atp589
Rp590
sL561L
g8
((lp591
L1238L
aL663L
atp592
Rp593
sL562L
g8
((lp594
tp595
Rp596
sL563L
g8
((lp597
L1010L
atp598
Rp599
sL564L
g8
((lp600
L1200L
aL1577L
aL1578L
aL1073L
atp601
Rp602
sL565L
g8
((lp603
tp604
Rp605
sL566L
g8
((lp606
L568L
atp607
Rp608
sL567L
g8
((lp609
L623L
atp610
Rp611
sL568L
g8
((lp612
L465L
aL459L
aL566L
atp613
Rp614
sL569L
g8
((lp615
tp616
Rp617
sL570L
g8
((lp618
L1203L
aL1284L
atp619
Rp620
sL571L
g8
((lp621
L1344L
aL1386L
aL462L
atp622
Rp623
sL572L
g8
((lp624
L691L
aL572L
aL559L
atp625
Rp626
sL573L
g8
((lp627
L632L
atp628
Rp629
sL574L
g8
((lp630
L1080L
aL1393L
aL470L
atp631
Rp632
sL575L
g8
((lp633
L1312L
aL1577L
aL1578L
aL1084L
atp634
Rp635
sL576L
g8
((lp636
L632L
aL698L
aL1021L
atp637
Rp638
sL577L
g8
((lp639
tp640
Rp641
sL578L
g8
((lp642
L1344L
aL360L
aL707L
atp643
Rp644
sL579L
g8
((lp645
tp646
Rp647
sL580L
g8
((lp648
L764L
atp649
Rp650
sL582L
g8
((lp651
tp652
Rp653
sL583L
g8
((lp654
tp655
Rp656
sL584L
g8
((lp657
L1026L
atp658
Rp659
sL585L
g8
((lp660
tp661
Rp662
sL586L
g8
((lp663
tp664
Rp665
sL588L
g8
((lp666
tp667
Rp668
sL589L
g8
((lp669
tp670
Rp671
sL590L
g8
((lp672
L597L
atp673
Rp674
sL591L
g8
((lp675
tp676
Rp677
sL592L
g8
((lp678
L848L
aL879L
atp679
Rp680
sL593L
g8
((lp681
L1403L
aL1123L
aL1516L
aL831L
atp682
Rp683
sL594L
g8
((lp684
L1365L
aL983L
atp685
Rp686
sL595L
g8
((lp687
tp688
Rp689
sL596L
g8
((lp690
L864L
aL495L
aL492L
aL1053L
aL749L
atp691
Rp692
sL597L
g8
((lp693
L590L
atp694
Rp695
sL598L
g8
((lp696
tp697
Rp698
sL599L
g8
((lp699
tp700
Rp701
sL600L
g8
((lp702
tp703
Rp704
sL601L
g8
((lp705
L491L
aL1132L
atp706
Rp707
sL602L
g8
((lp708
L795L
atp709
Rp710
sL604L
g8
((lp711
tp712
Rp713
sL605L
g8
((lp714
L1416L
aL731L
aL483L
atp715
Rp716
sL606L
g8
((lp717
tp718
Rp719
sL607L
g8
((lp720
L1101L
atp721
Rp722
sL608L
g8
((lp723
L1320L
atp724
Rp725
sL609L
g8
((lp726
tp727
Rp728
sL610L
g8
((lp729
tp730
Rp731
sL611L
g8
((lp732
tp733
Rp734
sL612L
g8
((lp735
tp736
Rp737
sL613L
g8
((lp738
tp739
Rp740
sL614L
g8
((lp741
L1040L
aL1287L
atp742
Rp743
sL615L
g8
((lp744
L766L
atp745
Rp746
sL616L
g8
((lp747
tp748
Rp749
sL617L
g8
((lp750
tp751
Rp752
sL618L
g8
((lp753
L1069L
aL750L
aL1287L
atp754
Rp755
sL619L
g8
((lp756
tp757
Rp758
sL620L
g8
((lp759
tp760
Rp761
sL621L
g8
((lp762
tp763
Rp764
sL622L
g8
((lp765
L754L
atp766
Rp767
sL623L
g8
((lp768
L567L
atp769
Rp770
sL624L
g8
((lp771
L754L
aL1532L
aL895L
atp772
Rp773
sL625L
g8
((lp774
L858L
aL751L
aL757L
aL750L
aL895L
atp775
Rp776
sL626L
g8
((lp777
L1108L
aL506L
aL1532L
atp778
Rp779
sL627L
g8
((lp780
tp781
Rp782
sL628L
g8
((lp783
tp784
Rp785
sL629L
g8
((lp786
L399L
aL724L
aL725L
aL727L
atp787
Rp788
sL630L
g8
((lp789
tp790
Rp791
sL631L
g8
((lp792
tp793
Rp794
sL632L
g8
((lp795
L576L
aL573L
aL1393L
aL1203L
aL1174L
aL1080L
aL1082L
aL1021L
atp796
Rp797
sL633L
g8
((lp798
tp799
Rp800
sL634L
g8
((lp801
tp802
Rp803
sL635L
g8
((lp804
tp805
Rp806
sL636L
g8
((lp807
L752L
aL535L
atp808
Rp809
sL637L
g8
((lp810
L842L
atp811
Rp812
sL638L
g8
((lp813
L511L
atp814
Rp815
sL639L
g8
((lp816
L1089L
aL491L
aL1349L
atp817
Rp818
sL640L
g8
((lp819
tp820
Rp821
sL641L
g8
((lp822
tp823
Rp824
sL642L
g8
((lp825
tp826
Rp827
sL643L
g8
((lp828
tp829
Rp830
sL644L
g8
((lp831
L416L
atp832
Rp833
sL645L
g8
((lp834
L920L
atp835
Rp836
sL646L
g8
((lp837
tp838
Rp839
sL647L
g8
((lp840
tp841
Rp842
sL648L
g8
((lp843
L1132L
aL717L
atp844
Rp845
sL649L
g8
((lp846
tp847
Rp848
sL650L
g8
((lp849
tp850
Rp851
sL651L
g8
((lp852
tp853
Rp854
sL652L
g8
((lp855
tp856
Rp857
sL653L
g8
((lp858
L1543L
atp859
Rp860
sL654L
g8
((lp861
tp862
Rp863
sL655L
g8
((lp864
L1010L
atp865
Rp866
sL656L
g8
((lp867
tp868
Rp869
sL657L
g8
((lp870
L1010L
aL1395L
aL1543L
atp871
Rp872
sL658L
g8
((lp873
tp874
Rp875
sL659L
g8
((lp876
tp877
Rp878
sL660L
g8
((lp879
tp880
Rp881
sL661L
g8
((lp882
tp883
Rp884
sL662L
g8
((lp885
tp886
Rp887
sL663L
g8
((lp888
L549L
aL552L
aL1320L
aL1323L
aL1069L
aL561L
atp889
Rp890
sL664L
g8
((lp891
L769L
aL549L
aL1069L
aL430L
aL1200L
aL1010L
aL1271L
aL1080L
aL953L
atp892
Rp893
sL666L
g8
((lp894
tp895
Rp896
sL667L
g8
((lp897
tp898
Rp899
sL668L
g8
((lp900
tp901
Rp902
sL669L
g8
((lp903
L842L
atp904
Rp905
sL670L
g8
((lp906
tp907
Rp908
sL671L
g8
((lp909
tp910
Rp911
sL672L
g8
((lp912
L1115L
atp913
Rp914
sL673L
g8
((lp915
L752L
aL1069L
atp916
Rp917
sL674L
g8
((lp918
L793L
aL434L
atp919
Rp920
sL675L
g8
((lp921
L1301L
aL557L
atp922
Rp923
sL676L
g8
((lp924
L864L
aL1046L
aL927L
atp925
Rp926
sL677L
g8
((lp927
tp928
Rp929
sL678L
g8
((lp930
L1057L
aL812L
aL813L
aL814L
aL815L
atp931
Rp932
sL679L
g8
((lp933
L932L
aL819L
aL1188L
aL813L
atp934
Rp935
sL680L
g8
((lp936
L1282L
aL1415L
aL746L
aL367L
aL528L
aL441L
atp937
Rp938
sL681L
g8
((lp939
tp940
Rp941
sL682L
g8
((lp942
L1301L
atp943
Rp944
sL683L
g8
((lp945
L770L
aL876L
atp946
Rp947
sL684L
g8
((lp948
tp949
Rp950
sL685L
g8
((lp951
L1000L
aL1577L
aL1264L
aL1197L
atp952
Rp953
sL686L
g8
((lp954
tp955
Rp956
sL687L
g8
((lp957
tp958
Rp959
sL688L
g8
((lp960
tp961
Rp962
sL689L
g8
((lp963
L1201L
aL1084L
aL1577L
aL1071L
atp964
Rp965
sL690L
g8
((lp966
L560L
aL458L
aL821L
aL693L
aL943L
atp967
Rp968
sL691L
g8
((lp969
L572L
aL559L
atp970
Rp971
sL692L
g8
((lp972
L1084L
atp973
Rp974
sL693L
g8
((lp975
L559L
aL944L
aL1073L
aL690L
aL821L
aL943L
atp976
Rp977
sL694L
g8
((lp978
tp979
Rp980
sL695L
g8
((lp981
L1200L
atp982
Rp983
sL696L
g8
((lp984
tp985
Rp986
sL697L
g8
((lp987
L1577L
aL1348L
aL1205L
aL1069L
atp988
Rp989
sL698L
g8
((lp990
L576L
aL1393L
aL1085L
atp991
Rp992
sL699L
g8
((lp993
L1320L
aL1203L
atp994
Rp995
sL700L
g8
((lp996
tp997
Rp998
sL701L
g8
((lp999
tp1000
Rp1001
sL702L
g8
((lp1002
tp1003
Rp1004
sL703L
g8
((lp1005
tp1006
Rp1007
sL704L
g8
((lp1008
L1365L
aL846L
aL1407L
atp1009
Rp1010
sL705L
g8
((lp1011
tp1012
Rp1013
sL706L
g8
((lp1014
tp1015
Rp1016
sL707L
g8
((lp1017
L360L
aL1170L
aL578L
atp1018
Rp1019
sL708L
g8
((lp1020
tp1021
Rp1022
sL709L
g8
((lp1023
tp1024
Rp1025
sL710L
g8
((lp1026
tp1027
Rp1028
sL711L
g8
((lp1029
L1010L
aL1580L
aL1418L
atp1030
Rp1031
sL712L
g8
((lp1032
tp1033
Rp1034
sL713L
g8
((lp1035
L1418L
aL507L
aL762L
atp1036
Rp1037
sL714L
g8
((lp1038
tp1039
Rp1040
sL715L
g8
((lp1041
tp1042
Rp1043
sL716L
g8
((lp1044
L411L
atp1045
Rp1046
sL717L
g8
((lp1047
L648L
aL1132L
aL773L
atp1048
Rp1049
sL718L
g8
((lp1050
tp1051
Rp1052
sL719L
g8
((lp1053
tp1054
Rp1055
sL720L
g8
((lp1056
tp1057
Rp1058
sL721L
g8
((lp1059
L854L
atp1060
Rp1061
sL722L
g8
((lp1062
tp1063
Rp1064
sL723L
g8
((lp1065
tp1066
Rp1067
sL724L
g8
((lp1068
L629L
aL399L
atp1069
Rp1070
sL725L
g8
((lp1071
L629L
aL399L
atp1072
Rp1073
sL726L
g8
((lp1074
L1393L
aL1203L
aL1021L
aL1343L
atp1075
Rp1076
sL727L
g8
((lp1077
L629L
atp1078
Rp1079
sL728L
g8
((lp1080
tp1081
Rp1082
sL729L
g8
((lp1083
tp1084
Rp1085
sL730L
g8
((lp1086
tp1087
Rp1088
sL731L
g8
((lp1089
L1416L
aL483L
aL605L
atp1090
Rp1091
sL732L
g8
((lp1092
L1048L
aL857L
aL1301L
aL1089L
atp1093
Rp1094
sL733L
g8
((lp1095
tp1096
Rp1097
sL734L
g8
((lp1098
tp1099
Rp1100
sL735L
g8
((lp1101
L1226L
aL1419L
atp1102
Rp1103
sL736L
g8
((lp1104
tp1105
Rp1106
sL737L
g8
((lp1107
L1414L
atp1108
Rp1109
sL738L
g8
((lp1110
L1577L
atp1111
Rp1112
sL739L
g8
((lp1113
L533L
atp1114
Rp1115
sL740L
g8
((lp1116
L1282L
aL1415L
aL1106L
aL367L
aL528L
aL978L
aL1530L
aL895L
atp1117
Rp1118
sL741L
g8
((lp1119
tp1120
Rp1121
sL743L
g8
((lp1122
tp1123
Rp1124
sL744L
g8
((lp1125
L1039L
atp1126
Rp1127
sL745L
g8
((lp1128
tp1129
Rp1130
sL746L
g8
((lp1131
L1188L
aL680L
aL367L
aL528L
aL1557L
aL911L
atp1132
Rp1133
sL747L
g8
((lp1134
tp1135
Rp1136
sL748L
g8
((lp1137
L379L
aL492L
aL495L
atp1138
Rp1139
sL749L
g8
((lp1140
L864L
aL596L
aL495L
atp1141
Rp1142
sL750L
g8
((lp1143
L528L
aL390L
aL618L
aL1069L
aL752L
aL625L
aL499L
aL857L
aL858L
aL412L
aL895L
atp1144
Rp1145
sL751L
g8
((lp1146
L625L
aL861L
atp1147
Rp1148
sL752L
g8
((lp1149
L673L
aL456L
aL393L
aL1069L
aL750L
aL528L
aL498L
aL499L
aL636L
atp1150
Rp1151
sL753L
g8
((lp1152
L1069L
aL390L
atp1153
Rp1154
sL754L
g8
((lp1155
L353L
aL1532L
aL1034L
aL622L
aL624L
aL497L
aL410L
aL412L
aL861L
aL542L
atp1156
Rp1157
sL756L
g8
((lp1158
tp1159
Rp1160
sL757L
g8
((lp1161
L353L
aL354L
aL355L
aL486L
aL625L
aL1302L
aL857L
aL412L
aL895L
atp1162
Rp1163
sL758L
g8
((lp1164
L895L
atp1165
Rp1166
sL759L
g8
((lp1167
tp1168
Rp1169
sL760L
g8
((lp1170
L504L
atp1171
Rp1172
sL761L
g8
((lp1173
L1121L
aL505L
atp1174
Rp1175
sL762L
g8
((lp1176
L368L
aL713L
aL1010L
atp1177
Rp1178
sL763L
g8
((lp1179
L1418L
atp1180
Rp1181
sL764L
g8
((lp1182
L580L
atp1183
Rp1184
sL765L
g8
((lp1185
L868L
atp1186
Rp1187
sL766L
g8
((lp1188
L1029L
aL615L
atp1189
Rp1190
sL767L
g8
((lp1191
tp1192
Rp1193
sL768L
g8
((lp1194
L982L
atp1195
Rp1196
sL769L
g8
((lp1197
L664L
aL1068L
atp1198
Rp1199
sL770L
g8
((lp1200
L508L
aL683L
aL876L
aL982L
atp1201
Rp1202
sL771L
g8
((lp1203
tp1204
Rp1205
sL772L
g8
((lp1206
L512L
atp1207
Rp1208
sL773L
g8
((lp1209
L717L
atp1210
Rp1211
sL774L
g8
((lp1212
tp1213
Rp1214
sL775L
g8
((lp1215
tp1216
Rp1217
sL777L
g8
((lp1218
L890L
atp1219
Rp1220
sL779L
g8
((lp1221
tp1222
Rp1223
sL780L
g8
((lp1224
tp1225
Rp1226
sL781L
g8
((lp1227
tp1228
Rp1229
sL782L
g8
((lp1230
L891L
atp1231
Rp1232
sL784L
g8
((lp1233
tp1234
Rp1235
sL785L
g8
((lp1236
tp1237
Rp1238
sL786L
g8
((lp1239
tp1240
Rp1241
sL787L
g8
((lp1242
tp1243
Rp1244
sL788L
g8
((lp1245
L1584L
aL1541L
aL1086L
atp1246
Rp1247
sL789L
g8
((lp1248
tp1249
Rp1250
sL790L
g8
((lp1251
tp1252
Rp1253
sL791L
g8
((lp1254
tp1255
Rp1256
sL792L
g8
((lp1257
tp1258
Rp1259
sL793L
g8
((lp1260
L434L
aL674L
atp1261
Rp1262
sL794L
g8
((lp1263
L1181L
atp1264
Rp1265
sL795L
g8
((lp1266
L602L
atp1267
Rp1268
sL796L
g8
((lp1269
L1185L
aL1186L
aL1187L
aL1349L
aL1222L
aL1546L
aL1557L
atp1270
Rp1271
sL797L
g8
((lp1272
L915L
aL1021L
aL1327L
atp1273
Rp1274
sL798L
g8
((lp1275
L898L
atp1276
Rp1277
sL799L
g8
((lp1278
tp1279
Rp1280
sL800L
g8
((lp1281
L1264L
atp1282
Rp1283
sL801L
g8
((lp1284
L1168L
aL1392L
aL1010L
atp1285
Rp1286
sL802L
g8
((lp1287
L1008L
aL533L
atp1288
Rp1289
sL803L
g8
((lp1290
L1238L
aL1197L
aL1366L
aL911L
atp1291
Rp1292
sL804L
g8
((lp1293
tp1294
Rp1295
sL805L
g8
((lp1296
L546L
aL907L
atp1297
Rp1298
sL806L
g8
((lp1299
tp1300
Rp1301
sL807L
g8
((lp1302
tp1303
Rp1304
sL808L
g8
((lp1305
L1537L
aL1287L
aL1384L
aL1321L
aL1040L
aL1577L
aL921L
atp1306
Rp1307
sL809L
g8
((lp1308
tp1309
Rp1310
sL810L
g8
((lp1311
tp1312
Rp1313
sL811L
g8
((lp1314
tp1315
Rp1316
sL812L
g8
((lp1317
L1048L
aL1353L
aL678L
atp1318
Rp1319
sL813L
g8
((lp1320
L932L
aL933L
aL678L
aL679L
aL1418L
aL555L
aL556L
aL1048L
atp1321
Rp1322
sL814L
g8
((lp1323
L1058L
aL678L
atp1324
Rp1325
sL815L
g8
((lp1326
L678L
aL926L
atp1327
Rp1328
sL816L
g8
((lp1329
L1248L
aL1547L
aL932L
aL1054L
atp1330
Rp1331
sL817L
g8
((lp1332
L1353L
aL1057L
atp1333
Rp1334
sL818L
g8
((lp1335
L1001L
aL499L
atp1336
Rp1337
sL819L
g8
((lp1338
L679L
aL1239L
atp1339
Rp1340
sL820L
g8
((lp1341
tp1342
Rp1343
sL821L
g8
((lp1344
L458L
aL690L
aL693L
aL559L
atp1345
Rp1346
sL822L
g8
((lp1347
L1200L
atp1348
Rp1349
sL823L
g8
((lp1350
L1010L
aL903L
atp1351
Rp1352
sL824L
g8
((lp1353
L1200L
aL946L
atp1354
Rp1355
sL825L
g8
((lp1356
L947L
atp1357
Rp1358
sL826L
g8
((lp1359
tp1360
Rp1361
sL828L
g8
((lp1362
tp1363
Rp1364
sL829L
g8
((lp1365
tp1366
Rp1367
sL830L
g8
((lp1368
tp1369
Rp1370
sL831L
g8
((lp1371
L1516L
aL1124L
aL593L
atp1372
Rp1373
sL832L
g8
((lp1374
tp1375
Rp1376
sL833L
g8
((lp1377
tp1378
Rp1379
sL834L
g8
((lp1380
tp1381
Rp1382
sL836L
g8
((lp1383
tp1384
Rp1385
sL837L
g8
((lp1386
tp1387
Rp1388
sL838L
g8
((lp1389
tp1390
Rp1391
sL839L
g8
((lp1392
tp1393
Rp1394
sL840L
g8
((lp1395
tp1396
Rp1397
sL841L
g8
((lp1398
tp1399
Rp1400
sL842L
g8
((lp1401
L669L
aL1037L
aL637L
atp1402
Rp1403
sL843L
g8
((lp1404
L489L
aL973L
atp1405
Rp1406
sL845L
g8
((lp1407
tp1408
Rp1409
sL846L
g8
((lp1410
L704L
atp1411
Rp1412
sL847L
g8
((lp1413
L489L
atp1414
Rp1415
sL848L
g8
((lp1416
L592L
atp1417
Rp1418
sL849L
g8
((lp1419
tp1420
Rp1421
sL850L
g8
((lp1422
tp1423
Rp1424
sL851L
g8
((lp1425
tp1426
Rp1427
sL852L
g8
((lp1428
tp1429
Rp1430
sL853L
g8
((lp1431
tp1432
Rp1433
sL854L
g8
((lp1434
L721L
atp1435
Rp1436
sL855L
g8
((lp1437
tp1438
Rp1439
sL856L
g8
((lp1440
L1532L
atp1441
Rp1442
sL857L
g8
((lp1443
L354L
aL355L
aL390L
aL486L
aL732L
aL750L
aL757L
aL859L
aL412L
atp1444
Rp1445
sL858L
g8
((lp1446
L625L
aL750L
aL391L
atp1447
Rp1448
sL859L
g8
((lp1449
L857L
aL542L
atp1450
Rp1451
sL860L
g8
((lp1452
tp1453
Rp1454
sL861L
g8
((lp1455
L353L
aL460L
aL751L
aL754L
aL410L
aL383L
atp1456
Rp1457
sL862L
g8
((lp1458
tp1459
Rp1460
sL863L
g8
((lp1461
L493L
atp1462
Rp1463
sL864L
g8
((lp1464
L379L
aL676L
aL394L
aL492L
aL749L
aL495L
aL496L
aL596L
aL1046L
aL1055L
aL1053L
aL1503L
atp1465
Rp1466
sL865L
g8
((lp1467
tp1468
Rp1469
sL866L
g8
((lp1470
tp1471
Rp1472
sL867L
g8
((lp1473
tp1474
Rp1475
sL868L
g8
((lp1476
L765L
atp1477
Rp1478
sL869L
g8
((lp1479
tp1480
Rp1481
sL870L
g8
((lp1482
tp1483
Rp1484
sL871L
g8
((lp1485
L1600L
aL1601L
aL1599L
atp1486
Rp1487
sL872L
g8
((lp1488
L1231L
atp1489
Rp1490
sL873L
g8
((lp1491
L1543L
aL1395L
aL1271L
aL1013L
aL1079L
atp1492
Rp1493
sL874L
g8
((lp1494
L1366L
atp1495
Rp1496
sL875L
g8
((lp1497
tp1498
Rp1499
sL876L
g8
((lp1500
L770L
aL683L
aL1196L
aL368L
aL982L
aL507L
aL508L
atp1501
Rp1502
sL877L
g8
((lp1503
tp1504
Rp1505
sL878L
g8
((lp1506
tp1507
Rp1508
sL879L
g8
((lp1509
L592L
aL1516L
atp1510
Rp1511
sL880L
g8
((lp1512
tp1513
Rp1514
sL881L
g8
((lp1515
L971L
atp1516
Rp1517
sL882L
g8
((lp1518
L1553L
aL1134L
atp1519
Rp1520
sL883L
g8
((lp1521
tp1522
Rp1523
sL884L
g8
((lp1524
tp1525
Rp1526
sL885L
g8
((lp1527
tp1528
Rp1529
sL886L
g8
((lp1530
tp1531
Rp1532
sL887L
g8
((lp1533
tp1534
Rp1535
sL888L
g8
((lp1536
tp1537
Rp1538
sL889L
g8
((lp1539
L1024L
atp1540
Rp1541
sL890L
g8
((lp1542
L777L
atp1543
Rp1544
sL891L
g8
((lp1545
L1317L
aL782L
atp1546
Rp1547
sL892L
g8
((lp1548
L1082L
atp1549
Rp1550
sL894L
g8
((lp1551
tp1552
Rp1553
sL895L
g8
((lp1554
L740L
aL758L
aL1255L
aL1034L
aL750L
aL624L
aL625L
aL1108L
aL757L
aL1046L
aL410L
aL1532L
atp1555
Rp1556
sL896L
g8
((lp1557
tp1558
Rp1559
sL897L
g8
((lp1560
L1301L
atp1561
Rp1562
sL898L
g8
((lp1563
L798L
atp1564
Rp1565
sL899L
g8
((lp1566
L1162L
aL1046L
atp1567
Rp1568
sL900L
g8
((lp1569
tp1570
Rp1571
sL901L
g8
((lp1572
L1222L
atp1573
Rp1574
sL902L
g8
((lp1575
L1007L
aL1542L
aL1543L
atp1576
Rp1577
sL903L
g8
((lp1578
L823L
aL1543L
aL1204L
aL1271L
atp1579
Rp1580
sL904L
g8
((lp1581
tp1582
Rp1583
sL905L
g8
((lp1584
tp1585
Rp1586
sL906L
g8
((lp1587
L1543L
aL1321L
aL1327L
aL1393L
aL533L
aL470L
aL1080L
aL1082L
atp1588
Rp1589
sL907L
g8
((lp1590
L546L
aL442L
aL805L
aL1222L
aL535L
atp1591
Rp1592
sL908L
g8
((lp1593
L1577L
aL1203L
atp1594
Rp1595
sL909L
g8
((lp1596
tp1597
Rp1598
sL910L
g8
((lp1599
L1203L
aL1284L
aL1197L
aL1238L
aL430L
atp1600
Rp1601
sL911L
g8
((lp1602
L746L
aL803L
aL548L
aL933L
aL911L
atp1603
Rp1604
sL912L
g8
((lp1605
L1177L
atp1606
Rp1607
sL913L
g8
((lp1608
tp1609
Rp1610
sL914L
g8
((lp1611
tp1612
Rp1613
sL915L
g8
((lp1614
L1170L
aL797L
atp1615
Rp1616
sL916L
g8
((lp1617
tp1618
Rp1619
sL917L
g8
((lp1620
L1006L
atp1621
Rp1622
sL918L
g8
((lp1623
tp1624
Rp1625
sL919L
g8
((lp1626
tp1627
Rp1628
sL920L
g8
((lp1629
L645L
atp1630
Rp1631
sL921L
g8
((lp1632
L808L
atp1633
Rp1634
sL922L
g8
((lp1635
tp1636
Rp1637
sL923L
g8
((lp1638
tp1639
Rp1640
sL924L
g8
((lp1641
L1435L
aL1119L
atp1642
Rp1643
sL925L
g8
((lp1644
L1050L
aL554L
aL1189L
atp1645
Rp1646
sL926L
g8
((lp1647
L1057L
aL815L
atp1648
Rp1649
sL927L
g8
((lp1650
L1057L
aL1418L
aL676L
atp1651
Rp1652
sL928L
g8
((lp1653
tp1654
Rp1655
sL929L
g8
((lp1656
L1049L
atp1657
Rp1658
sL930L
g8
((lp1659
L1001L
aL1046L
atp1660
Rp1661
sL931L
g8
((lp1662
L1530L
aL1107L
atp1663
Rp1664
sL932L
g8
((lp1665
L816L
aL813L
aL556L
aL933L
aL679L
atp1666
Rp1667
sL933L
g8
((lp1668
L1313L
aL1188L
aL1353L
aL1546L
aL1547L
aL813L
aL911L
aL1557L
aL932L
atp1669
Rp1670
sL934L
g8
((lp1671
tp1672
Rp1673
sL935L
g8
((lp1674
L1184L
aL1557L
atp1675
Rp1676
sL936L
g8
((lp1677
tp1678
Rp1679
sL937L
g8
((lp1680
L1353L
aL1251L
aL1188L
aL1191L
atp1681
Rp1682
sL938L
g8
((lp1683
L556L
aL1239L
atp1684
Rp1685
sL939L
g8
((lp1686
tp1687
Rp1688
sL940L
g8
((lp1689
tp1690
Rp1691
sL941L
g8
((lp1692
L1084L
aL1068L
atp1693
Rp1694
sL942L
g8
((lp1695
L1201L
aL1339L
atp1696
Rp1697
sL943L
g8
((lp1698
L690L
aL1341L
aL693L
atp1699
Rp1700
sL944L
g8
((lp1701
L1067L
aL1341L
aL693L
atp1702
Rp1703
sL945L
g8
((lp1704
tp1705
Rp1706
sL946L
g8
((lp1707
L1200L
aL824L
aL1085L
atp1708
Rp1709
sL947L
g8
((lp1710
L825L
atp1711
Rp1712
sL948L
g8
((lp1713
L1084L
aL1205L
atp1714
Rp1715
sL949L
g8
((lp1716
tp1717
Rp1718
sL950L
g8
((lp1719
L1080L
aL1203L
aL1205L
atp1720
Rp1721
sL951L
g8
((lp1722
tp1723
Rp1724
sL952L
g8
((lp1725
L1264L
aL1577L
aL1250L
aL1395L
atp1726
Rp1727
sL953L
g8
((lp1728
L664L
aL1577L
aL549L
atp1729
Rp1730
sL954L
g8
((lp1731
tp1732
Rp1733
sL955L
g8
((lp1734
tp1735
Rp1736
sL956L
g8
((lp1737
tp1738
Rp1739
sL957L
g8
((lp1740
tp1741
Rp1742
sL958L
g8
((lp1743
tp1744
Rp1745
sL960L
g8
((lp1746
tp1747
Rp1748
sL961L
g8
((lp1749
tp1750
Rp1751
sL962L
g8
((lp1752
tp1753
Rp1754
sL963L
g8
((lp1755
tp1756
Rp1757
sL964L
g8
((lp1758
tp1759
Rp1760
sL965L
g8
((lp1761
tp1762
Rp1763
sL966L
g8
((lp1764
tp1765
Rp1766
sL967L
g8
((lp1767
tp1768
Rp1769
sL968L
g8
((lp1770
tp1771
Rp1772
sL969L
g8
((lp1773
L1186L
aL1187L
aL1428L
aL1222L
atp1774
Rp1775
sL970L
g8
((lp1776
L1132L
aL1222L
atp1777
Rp1778
sL971L
g8
((lp1779
L881L
atp1780
Rp1781
sL972L
g8
((lp1782
tp1783
Rp1784
sL973L
g8
((lp1785
L843L
atp1786
Rp1787
sL974L
g8
((lp1788
L1550L
aL1255L
atp1789
Rp1790
sL975L
g8
((lp1791
tp1792
Rp1793
sL976L
g8
((lp1794
tp1795
Rp1796
sL977L
g8
((lp1797
tp1798
Rp1799
sL978L
g8
((lp1800
L528L
aL740L
aL1238L
aL367L
atp1801
Rp1802
sL979L
g8
((lp1803
tp1804
Rp1805
sL980L
g8
((lp1806
L1414L
atp1807
Rp1808
sL981L
g8
((lp1809
tp1810
Rp1811
sL982L
g8
((lp1812
L768L
aL876L
aL770L
aL1196L
atp1813
Rp1814
sL983L
g8
((lp1815
L594L
atp1816
Rp1817
sL984L
g8
((lp1818
tp1819
Rp1820
sL985L
g8
((lp1821
tp1822
Rp1823
sL986L
g8
((lp1824
L1110L
aL1422L
atp1825
Rp1826
sL987L
g8
((lp1827
L1141L
atp1828
Rp1829
sL988L
g8
((lp1830
tp1831
Rp1832
sL989L
g8
((lp1833
tp1834
Rp1835
sL990L
g8
((lp1836
tp1837
Rp1838
sL991L
g8
((lp1839
L1134L
atp1840
Rp1841
sL992L
g8
((lp1842
tp1843
Rp1844
sL993L
g8
((lp1845
L1317L
atp1846
Rp1847
sL994L
g8
((lp1848
L1368L
atp1849
Rp1850
sL995L
g8
((lp1851
L1368L
atp1852
Rp1853
sL996L
g8
((lp1854
tp1855
Rp1856
sL997L
g8
((lp1857
tp1858
Rp1859
sL998L
g8
((lp1860
tp1861
Rp1862
sL999L
g8
((lp1863
L1346L
atp1864
Rp1865
sL1000L
g8
((lp1866
L1169L
aL685L
atp1867
Rp1868
sL1001L
g8
((lp1869
L818L
aL930L
aL454L
atp1870
Rp1871
sL1002L
g8
((lp1872
L1162L
aL555L
aL556L
atp1873
Rp1874
sL1003L
g8
((lp1875
tp1876
Rp1877
sL1004L
g8
((lp1878
tp1879
Rp1880
sL1005L
g8
((lp1881
tp1882
Rp1883
sL1006L
g8
((lp1884
L1106L
aL917L
atp1885
Rp1886
sL1007L
g8
((lp1887
L1010L
aL902L
aL1542L
atp1888
Rp1889
sL1008L
g8
((lp1890
L802L
aL1543L
aL1250L
aL1327L
aL533L
aL1271L
atp1891
Rp1892
sL1009L
g8
((lp1893
L426L
aL551L
atp1894
Rp1895
sL1010L
g8
((lp1896
L1542L
aL655L
aL1168L
aL657L
aL531L
aL532L
aL533L
aL664L
aL1007L
aL801L
aL551L
aL1321L
aL426L
aL1580L
aL429L
aL563L
aL437L
aL823L
aL1341L
aL711L
aL463L
aL1250L
aL529L
aL408L
aL1391L
aL502L
aL762L
atp1897
Rp1898
sL1012L
g8
((lp1899
L1012L
atp1900
Rp1901
sL1013L
g8
((lp1902
L1592L
aL873L
aL1271L
atp1903
Rp1904
sL1014L
g8
((lp1905
tp1906
Rp1907
sL1015L
g8
((lp1908
tp1909
Rp1910
sL1016L
g8
((lp1911
tp1912
Rp1913
sL1017L
g8
((lp1914
tp1915
Rp1916
sL1018L
g8
((lp1917
tp1918
Rp1919
sL1019L
g8
((lp1920
tp1921
Rp1922
sL1020L
g8
((lp1923
tp1924
Rp1925
sL1021L
g8
((lp1926
L632L
aL576L
aL797L
aL726L
atp1927
Rp1928
sL1022L
g8
((lp1929
tp1930
Rp1931
sL1023L
g8
((lp1932
tp1933
Rp1934
sL1024L
g8
((lp1935
L1553L
aL889L
atp1936
Rp1937
sL1025L
g8
((lp1938
L1515L
atp1939
Rp1940
sL1026L
g8
((lp1941
L584L
atp1942
Rp1943
sL1027L
g8
((lp1944
tp1945
Rp1946
sL1028L
g8
((lp1947
tp1948
Rp1949
sL1029L
g8
((lp1950
L766L
aL1367L
atp1951
Rp1952
sL1030L
g8
((lp1953
L1134L
aL1367L
atp1954
Rp1955
sL1031L
g8
((lp1956
tp1957
Rp1958
sL1032L
g8
((lp1959
tp1960
Rp1961
sL1033L
g8
((lp1962
tp1963
Rp1964
sL1034L
g8
((lp1965
L754L
aL895L
atp1966
Rp1967
sL1035L
g8
((lp1968
tp1969
Rp1970
sL1036L
g8
((lp1971
L1182L
atp1972
Rp1973
sL1037L
g8
((lp1974
L842L
atp1975
Rp1976
sL1038L
g8
((lp1977
tp1978
Rp1979
sL1039L
g8
((lp1980
L744L
aL1222L
aL527L
atp1981
Rp1982
sL1040L
g8
((lp1983
L808L
aL430L
aL614L
aL1287L
atp1984
Rp1985
sL1041L
g8
((lp1986
L1366L
atp1987
Rp1988
sL1042L
g8
((lp1989
tp1990
Rp1991
sL1043L
g8
((lp1992
L1366L
atp1993
Rp1994
sL1044L
g8
((lp1995
tp1996
Rp1997
sL1045L
g8
((lp1998
tp1999
Rp2000
sL1046L
g8
((lp2001
L864L
aL930L
aL899L
aL676L
aL486L
aL1547L
aL557L
aL496L
aL1048L
aL895L
atp2002
Rp2003
sL1048L
g8
((lp2004
L1547L
aL812L
aL813L
aL1046L
aL732L
aL1183L
atp2005
Rp2006
sL1049L
g8
((lp2007
L929L
atp2008
Rp2009
sL1050L
g8
((lp2010
L925L
aL1057L
aL1189L
aL457L
atp2011
Rp2012
sL1052L
g8
((lp2013
L1248L
aL1313L
aL1060L
aL1349L
aL1546L
aL1547L
aL1557L
aL1052L
atp2014
Rp2015
sL1053L
g8
((lp2016
L864L
aL1196L
aL495L
aL596L
aL1109L
aL1239L
aL379L
aL1557L
atp2017
Rp2018
sL1054L
g8
((lp2019
L1353L
aL1546L
aL1547L
aL1548L
aL1550L
aL816L
aL1557L
aL554L
atp2020
Rp2021
sL1055L
g8
((lp2022
L864L
atp2023
Rp2024
sL1056L
g8
((lp2025
L552L
aL408L
aL526L
aL1366L
atp2026
Rp2027
sL1057L
g8
((lp2028
L817L
aL1050L
aL678L
aL926L
aL927L
atp2029
Rp2030
sL1058L
g8
((lp2031
L814L
atp2032
Rp2033
sL1059L
g8
((lp2034
L1416L
atp2035
Rp2036
sL1060L
g8
((lp2037
L1248L
aL1251L
aL1190L
aL1191L
aL1193L
aL1557L
aL1353L
aL1052L
atp2038
Rp2039
sL1061L
g8
((lp2040
L379L
aL492L
atp2041
Rp2042
sL1062L
g8
((lp2043
L1358L
aL511L
atp2044
Rp2045
sL1063L
g8
((lp2046
tp2047
Rp2048
sL1064L
g8
((lp2049
L1589L
aL1358L
atp2050
Rp2051
sL1065L
g8
((lp2052
tp2053
Rp2054
sL1066L
g8
((lp2055
tp2056
Rp2057
sL1067L
g8
((lp2058
L1200L
aL944L
aL1577L
aL1264L
aL465L
aL1267L
aL1342L
atp2059
Rp2060
sL1068L
g8
((lp2061
L1201L
aL941L
aL1390L
aL769L
atp2062
Rp2063
sL1069L
g8
((lp2064
L673L
aL390L
aL393L
aL618L
aL750L
aL528L
aL753L
aL499L
aL1366L
aL663L
aL664L
aL697L
aL752L
atp2065
Rp2066
sL1070L
g8
((lp2067
L1072L
aL1201L
atp2068
Rp2069
sL1071L
g8
((lp2070
L549L
aL465L
aL1577L
aL1264L
aL689L
aL1342L
atp2071
Rp2072
sL1072L
g8
((lp2073
L1070L
atp2074
Rp2075
sL1073L
g8
((lp2076
L1264L
aL1577L
aL564L
aL693L
aL359L
atp2077
Rp2078
sL1074L
g8
((lp2079
L1348L
atp2080
Rp2081
sL1075L
g8
((lp2082
tp2083
Rp2084
sL1076L
g8
((lp2085
tp2086
Rp2087
sL1077L
g8
((lp2088
tp2089
Rp2090
sL1078L
g8
((lp2091
L549L
aL1577L
aL459L
aL1264L
aL533L
aL1342L
atp2092
Rp2093
sL1079L
g8
((lp2094
L873L
aL1271L
atp2095
Rp2096
sL1080L
g8
((lp2097
L906L
aL632L
aL664L
aL950L
aL1080L
aL574L
atp2098
Rp2099
sL1081L
g8
((lp2100
tp2101
Rp2102
sL1082L
g8
((lp2103
L632L
aL906L
aL892L
atp2104
Rp2105
sL1083L
g8
((lp2106
tp2107
Rp2108
sL1084L
g8
((lp2109
L692L
aL575L
aL948L
aL941L
aL689L
atp2110
Rp2111
sL1085L
g8
((lp2112
L464L
aL1286L
aL1200L
aL946L
aL1205L
aL698L
atp2113
Rp2114
sL1086L
g8
((lp2115
L788L
atp2116
Rp2117
sL1087L
g8
((lp2118
tp2119
Rp2120
sL1088L
g8
((lp2121
L1301L
atp2122
Rp2123
sL1089L
g8
((lp2124
L732L
aL639L
atp2125
Rp2126
sL1090L
g8
((lp2127
tp2128
Rp2129
sL1091L
g8
((lp2130
tp2131
Rp2132
sL1092L
g8
((lp2133
tp2134
Rp2135
sL1093L
g8
((lp2136
tp2137
Rp2138
sL1094L
g8
((lp2139
tp2140
Rp2141
sL1095L
g8
((lp2142
L1326L
atp2143
Rp2144
sL1096L
g8
((lp2145
L1282L
aL1399L
aL1325L
aL1238L
aL1415L
atp2146
Rp2147
sL1097L
g8
((lp2148
tp2149
Rp2150
sL1098L
g8
((lp2151
tp2152
Rp2153
sL1099L
g8
((lp2154
tp2155
Rp2156
sL1100L
g8
((lp2157
tp2158
Rp2159
sL1101L
g8
((lp2160
L607L
atp2161
Rp2162
sL1102L
g8
((lp2163
tp2164
Rp2165
sL1103L
g8
((lp2166
tp2167
Rp2168
sL1104L
g8
((lp2169
tp2170
Rp2171
sL1105L
g8
((lp2172
tp2173
Rp2174
sL1106L
g8
((lp2175
L740L
aL1006L
atp2176
Rp2177
sL1107L
g8
((lp2178
L408L
aL1530L
aL931L
atp2179
Rp2180
sL1108L
g8
((lp2181
L497L
aL626L
aL895L
atp2182
Rp2183
sL1109L
g8
((lp2184
L1053L
atp2185
Rp2186
sL1110L
g8
((lp2187
L986L
aL1422L
atp2188
Rp2189
sL1111L
g8
((lp2190
tp2191
Rp2192
sL1112L
g8
((lp2193
tp2194
Rp2195
sL1113L
g8
((lp2196
tp2197
Rp2198
sL1114L
g8
((lp2199
tp2200
Rp2201
sL1115L
g8
((lp2202
L672L
aL1250L
atp2203
Rp2204
sL1116L
g8
((lp2205
L1282L
atp2206
Rp2207
sL1117L
g8
((lp2208
L425L
atp2209
Rp2210
sL1118L
g8
((lp2211
tp2212
Rp2213
sL1119L
g8
((lp2214
L1435L
aL924L
aL439L
atp2215
Rp2216
sL1120L
g8
((lp2217
tp2218
Rp2219
sL1121L
g8
((lp2220
L505L
aL761L
atp2221
Rp2222
sL1122L
g8
((lp2223
tp2224
Rp2225
sL1123L
g8
((lp2226
L1124L
aL348L
aL593L
atp2227
Rp2228
sL1124L
g8
((lp2229
L1403L
aL1123L
aL831L
atp2230
Rp2231
sL1125L
g8
((lp2232
L502L
atp2233
Rp2234
sL1126L
g8
((lp2235
tp2236
Rp2237
sL1127L
g8
((lp2238
tp2239
Rp2240
sL1128L
g8
((lp2241
tp2242
Rp2243
sL1129L
g8
((lp2244
tp2245
Rp2246
sL1130L
g8
((lp2247
tp2248
Rp2249
sL1131L
g8
((lp2250
tp2251
Rp2252
sL1132L
g8
((lp2253
L648L
aL601L
aL970L
aL717L
atp2254
Rp2255
sL1133L
g8
((lp2256
L1321L
aL1327L
aL1543L
atp2257
Rp2258
sL1134L
g8
((lp2259
L1553L
aL882L
aL1030L
aL991L
atp2260
Rp2261
sL1135L
g8
((lp2262
L416L
atp2263
Rp2264
sL1136L
g8
((lp2265
tp2266
Rp2267
sL1137L
g8
((lp2268
L1137L
atp2269
Rp2270
sL1138L
g8
((lp2271
L1269L
atp2272
Rp2273
sL1139L
g8
((lp2274
L1252L
atp2275
Rp2276
sL1140L
g8
((lp2277
tp2278
Rp2279
sL1141L
g8
((lp2280
L987L
atp2281
Rp2282
sL1142L
g8
((lp2283
tp2284
Rp2285
sL1143L
g8
((lp2286
tp2287
Rp2288
sL1144L
g8
((lp2289
tp2290
Rp2291
sL1145L
g8
((lp2292
tp2293
Rp2294
sL1146L
g8
((lp2295
tp2296
Rp2297
sL1147L
g8
((lp2298
tp2299
Rp2300
sL1148L
g8
((lp2301
tp2302
Rp2303
sL1149L
g8
((lp2304
tp2305
Rp2306
sL1150L
g8
((lp2307
tp2308
Rp2309
sL1151L
g8
((lp2310
L1427L
atp2311
Rp2312
sL1152L
g8
((lp2313
tp2314
Rp2315
sL1153L
g8
((lp2316
tp2317
Rp2318
sL1155L
g8
((lp2319
tp2320
Rp2321
sL1156L
g8
((lp2322
tp2323
Rp2324
sL1157L
g8
((lp2325
tp2326
Rp2327
sL1158L
g8
((lp2328
tp2329
Rp2330
sL1159L
g8
((lp2331
L1367L
atp2332
Rp2333
sL1160L
g8
((lp2334
tp2335
Rp2336
sL1161L
g8
((lp2337
tp2338
Rp2339
sL1162L
g8
((lp2340
L457L
aL1002L
aL899L
aL555L
aL1239L
atp2341
Rp2342
sL1163L
g8
((lp2343
tp2344
Rp2345
sL1164L
g8
((lp2346
tp2347
Rp2348
sL1165L
g8
((lp2349
tp2350
Rp2351
sL1166L
g8
((lp2352
L1271L
atp2353
Rp2354
sL1167L
g8
((lp2355
tp2356
Rp2357
sL1168L
g8
((lp2358
L801L
aL1010L
atp2359
Rp2360
sL1169L
g8
((lp2361
L1000L
atp2362
Rp2363
sL1170L
g8
((lp2364
L530L
aL915L
aL707L
atp2365
Rp2366
sL1171L
g8
((lp2367
tp2368
Rp2369
sL1172L
g8
((lp2370
tp2371
Rp2372
sL1173L
g8
((lp2373
tp2374
Rp2375
sL1174L
g8
((lp2376
L632L
atp2377
Rp2378
sL1175L
g8
((lp2379
tp2380
Rp2381
sL1176L
g8
((lp2382
tp2383
Rp2384
sL1177L
g8
((lp2385
L1232L
aL912L
atp2386
Rp2387
sL1178L
g8
((lp2388
L1385L
aL1271L
aL1319L
atp2389
Rp2390
sL1179L
g8
((lp2391
L1288L
aL1406L
atp2392
Rp2393
sL1180L
g8
((lp2394
tp2395
Rp2396
sL1181L
g8
((lp2397
L794L
atp2398
Rp2399
sL1182L
g8
((lp2400
L1036L
atp2401
Rp2402
sL1183L
g8
((lp2403
L1048L
atp2404
Rp2405
sL1184L
g8
((lp2406
L1248L
aL1309L
aL935L
atp2407
Rp2408
sL1185L
g8
((lp2409
L796L
aL1239L
atp2410
Rp2411
sL1186L
g8
((lp2412
L969L
aL1187L
aL796L
aL1222L
atp2413
Rp2414
sL1187L
g8
((lp2415
L969L
aL1186L
aL1428L
aL796L
atp2416
Rp2417
sL1188L
g8
((lp2418
L1313L
aL354L
aL1251L
aL933L
aL679L
aL937L
aL1546L
aL746L
atp2419
Rp2420
sL1189L
g8
((lp2421
L1248L
aL925L
aL1050L
aL1349L
aL1239L
atp2422
Rp2423
sL1190L
g8
((lp2424
L1328L
aL1060L
atp2425
Rp2426
sL1191L
g8
((lp2427
L937L
aL1546L
aL1547L
aL1060L
atp2428
Rp2429
sL1192L
g8
((lp2430
L1557L
atp2431
Rp2432
sL1193L
g8
((lp2433
L1251L
aL1060L
atp2434
Rp2435
sL1194L
g8
((lp2436
L1239L
atp2437
Rp2438
sL1195L
g8
((lp2439
tp2440
Rp2441
sL1196L
g8
((lp2442
L876L
aL1053L
aL982L
atp2443
Rp2444
sL1197L
g8
((lp2445
L803L
aL1577L
aL1578L
aL685L
aL910L
aL1264L
atp2446
Rp2447
sL1198L
g8
((lp2448
L1250L
aL1395L
aL1339L
aL1341L
aL1342L
aL1343L
atp2449
Rp2450
sL1199L
g8
((lp2451
L1220L
aL1577L
aL1264L
aL1493L
aL1307L
aL1342L
atp2452
Rp2453
sL1200L
g8
((lp2454
L360L
aL1578L
aL1067L
aL664L
aL946L
aL1267L
aL564L
aL822L
aL695L
aL824L
aL1085L
atp2455
Rp2456
sL1201L
g8
((lp2457
L549L
aL1068L
aL1070L
aL1264L
aL689L
aL942L
aL1342L
atp2458
Rp2459
sL1202L
g8
((lp2460
L1264L
aL1577L
aL1343L
aL1295L
atp2461
Rp2462
sL1203L
g8
((lp2463
L1284L
aL950L
aL1577L
aL908L
aL910L
aL726L
aL1366L
aL632L
aL570L
aL699L
atp2464
Rp2465
sL1204L
g8
((lp2466
L1337L
aL903L
aL428L
aL1271L
atp2467
Rp2468
sL1205L
g8
((lp2469
L1347L
aL1284L
aL1577L
aL1264L
aL948L
aL950L
aL1559L
aL697L
aL1085L
atp2470
Rp2471
sL1206L
g8
((lp2472
L519L
aL1271L
atp2473
Rp2474
sL1207L
g8
((lp2475
tp2476
Rp2477
sL1208L
g8
((lp2478
tp2479
Rp2480
sL1209L
g8
((lp2481
tp2482
Rp2483
sL1210L
g8
((lp2484
tp2485
Rp2486
sL1211L
g8
((lp2487
tp2488
Rp2489
sL1212L
g8
((lp2490
tp2491
Rp2492
sL1213L
g8
((lp2493
tp2494
Rp2495
sL1214L
g8
((lp2496
tp2497
Rp2498
sL1215L
g8
((lp2499
tp2500
Rp2501
sL1216L
g8
((lp2502
tp2503
Rp2504
sL1217L
g8
((lp2505
tp2506
Rp2507
sL1218L
g8
((lp2508
tp2509
Rp2510
sL1219L
g8
((lp2511
tp2512
Rp2513
sL1220L
g8
((lp2514
L1348L
aL1493L
aL1199L
atp2515
Rp2516
sL1221L
g8
((lp2517
tp2518
Rp2519
sL1222L
g8
((lp2520
L1186L
aL901L
aL969L
aL970L
aL907L
aL1039L
aL796L
atp2521
Rp2522
sL1223L
g8
((lp2523
L1515L
atp2524
Rp2525
sL1224L
g8
((lp2526
tp2527
Rp2528
sL1225L
g8
((lp2529
tp2530
Rp2531
sL1226L
g8
((lp2532
L1414L
aL735L
atp2533
Rp2534
sL1228L
g8
((lp2535
tp2536
Rp2537
sL1229L
g8
((lp2538
tp2539
Rp2540
sL1230L
g8
((lp2541
tp2542
Rp2543
sL1231L
g8
((lp2544
L872L
atp2545
Rp2546
sL1232L
g8
((lp2547
L1177L
atp2548
Rp2549
sL1233L
g8
((lp2550
L1398L
atp2551
Rp2552
sL1234L
g8
((lp2553
tp2554
Rp2555
sL1236L
g8
((lp2556
tp2557
Rp2558
sL1237L
g8
((lp2559
tp2560
Rp2561
sL1238L
g8
((lp2562
L803L
aL1096L
aL910L
aL561L
aL978L
aL443L
atp2563
Rp2564
sL1239L
g8
((lp2565
L1185L
aL1189L
aL390L
aL938L
aL1053L
aL819L
aL1194L
aL1239L
aL1162L
atp2566
Rp2567
sL1240L
g8
((lp2568
tp2569
Rp2570
sL1241L
g8
((lp2571
L1399L
atp2572
Rp2573
sL1242L
g8
((lp2574
tp2575
Rp2576
sL1243L
g8
((lp2577
L1553L
atp2578
Rp2579
sL1244L
g8
((lp2580
tp2581
Rp2582
sL1245L
g8
((lp2583
tp2584
Rp2585
sL1246L
g8
((lp2586
tp2587
Rp2588
sL1247L
g8
((lp2589
tp2590
Rp2591
sL1248L
g8
((lp2592
L1184L
aL1060L
aL1189L
aL390L
aL1352L
aL816L
aL1052L
atp2593
Rp2594
sL1249L
g8
((lp2595
tp2596
Rp2597
sL1250L
g8
((lp2598
L551L
aL1198L
aL1008L
aL1010L
aL952L
aL1115L
aL541L
atp2599
Rp2600
sL1251L
g8
((lp2601
L1193L
aL1060L
aL1188L
aL1349L
aL937L
atp2602
Rp2603
sL1252L
g8
((lp2604
L1368L
aL1139L
atp2605
Rp2606
sL1253L
g8
((lp2607
L1540L
atp2608
Rp2609
sL1254L
g8
((lp2610
tp2611
Rp2612
sL1255L
g8
((lp2613
L974L
aL895L
atp2614
Rp2615
sL1256L
g8
((lp2616
tp2617
Rp2618
sL1257L
g8
((lp2619
L1410L
atp2620
Rp2621
sL1258L
g8
((lp2622
tp2623
Rp2624
sL1259L
g8
((lp2625
tp2626
Rp2627
sL1260L
g8
((lp2628
tp2629
Rp2630
sL1261L
g8
((lp2631
L1422L
atp2632
Rp2633
sL1262L
g8
((lp2634
L1376L
aL1382L
atp2635
Rp2636
sL1263L
g8
((lp2637
tp2638
Rp2639
sL1264L
g8
((lp2640
L800L
aL1199L
aL1284L
aL1073L
aL1201L
aL1577L
aL1067L
aL1071L
aL685L
aL1197L
aL1295L
aL465L
aL1202L
aL1205L
aL1078L
aL952L
aL1307L
aL1308L
atp2641
Rp2642
sL1265L
g8
((lp2643
tp2644
Rp2645
sL1266L
g8
((lp2646
tp2647
Rp2648
sL1267L
g8
((lp2649
L1200L
aL1067L
atp2650
Rp2651
sL1268L
g8
((lp2652
tp2653
Rp2654
sL1269L
g8
((lp2655
L1138L
atp2656
Rp2657
sL1270L
g8
((lp2658
L1353L
aL1547L
atp2659
Rp2660
sL1271L
g8
((lp2661
L549L
aL1543L
aL873L
aL903L
aL428L
aL1166L
aL1008L
aL1395L
aL1204L
aL533L
aL1206L
aL1079L
aL664L
aL1178L
aL1013L
atp2662
Rp2663
sL1272L
g8
((lp2664
L352L
aL1362L
aL1534L
atp2665
Rp2666
sL1273L
g8
((lp2667
tp2668
Rp2669
sL1274L
g8
((lp2670
L1590L
atp2671
Rp2672
sL1275L
g8
((lp2673
tp2674
Rp2675
sL1276L
g8
((lp2676
tp2677
Rp2678
sL1277L
g8
((lp2679
L1278L
atp2680
Rp2681
sL1278L
g8
((lp2682
L1277L
atp2683
Rp2684
sL1279L
g8
((lp2685
L1577L
aL1391L
aL1393L
atp2686
Rp2687
sL1280L
g8
((lp2688
L1531L
atp2689
Rp2690
sL1281L
g8
((lp2691
L1530L
atp2692
Rp2693
sL1282L
g8
((lp2694
L740L
aL1415L
aL680L
aL367L
aL528L
aL1096L
aL441L
aL1116L
atp2695
Rp2696
sL1283L
g8
((lp2697
tp2698
Rp2699
sL1284L
g8
((lp2700
L1577L
aL910L
aL1264L
aL1203L
aL1205L
aL570L
atp2701
Rp2702
sL1285L
g8
((lp2703
tp2704
Rp2705
sL1286L
g8
((lp2706
L1085L
aL1591L
atp2707
Rp2708
sL1287L
g8
((lp2709
L614L
aL808L
aL618L
aL430L
aL1040L
aL1494L
atp2710
Rp2711
sL1288L
g8
((lp2712
L1179L
aL1406L
atp2713
Rp2714
sL1289L
g8
((lp2715
tp2716
Rp2717
sL1290L
g8
((lp2718
L1422L
atp2719
Rp2720
sL1291L
g8
((lp2721
tp2722
Rp2723
sL1292L
g8
((lp2724
tp2725
Rp2726
sL1293L
g8
((lp2727
L1489L
atp2728
Rp2729
sL1294L
g8
((lp2730
tp2731
Rp2732
sL1295L
g8
((lp2733
L1264L
aL1577L
aL1202L
aL1339L
aL1308L
atp2734
Rp2735
sL1296L
g8
((lp2736
L1500L
atp2737
Rp2738
sL1297L
g8
((lp2739
tp2740
Rp2741
sL1298L
g8
((lp2742
tp2743
Rp2744
sL1299L
g8
((lp2745
L1365L
atp2746
Rp2747
sL1300L
g8
((lp2748
L1574L
atp2749
Rp2750
sL1301L
g8
((lp2751
L1088L
aL897L
aL675L
aL682L
aL557L
aL732L
atp2752
Rp2753
sL1302L
g8
((lp2754
L1400L
aL354L
aL1548L
aL757L
atp2755
Rp2756
sL1303L
g8
((lp2757
tp2758
Rp2759
sL1304L
g8
((lp2760
tp2761
Rp2762
sL1305L
g8
((lp2763
L1541L
atp2764
Rp2765
sL1306L
g8
((lp2766
tp2767
Rp2768
sL1307L
g8
((lp2769
L1264L
aL1577L
aL1308L
aL1199L
atp2770
Rp2771
sL1308L
g8
((lp2772
L1264L
aL1577L
aL1307L
aL1295L
atp2773
Rp2774
sL1309L
g8
((lp2775
L1352L
aL1184L
aL1349L
atp2776
Rp2777
sL1310L
g8
((lp2778
tp2779
Rp2780
sL1311L
g8
((lp2781
L1516L
atp2782
Rp2783
sL1312L
g8
((lp2784
L443L
aL575L
atp2785
Rp2786
sL1313L
g8
((lp2787
L354L
aL1347L
aL1188L
aL1349L
aL1350L
aL486L
aL1352L
aL454L
aL1547L
aL1550L
aL1052L
aL933L
atp2788
Rp2789
sL1315L
g8
((lp2790
tp2791
Rp2792
sL1316L
g8
((lp2793
L1577L
atp2794
Rp2795
sL1317L
g8
((lp2796
L891L
aL993L
aL1411L
atp2797
Rp2798
sL1318L
g8
((lp2799
tp2800
Rp2801
sL1319L
g8
((lp2802
L1178L
aL1390L
atp2803
Rp2804
sL1320L
g8
((lp2805
L608L
aL1323L
aL699L
aL663L
atp2806
Rp2807
sL1321L
g8
((lp2808
L1573L
aL808L
aL906L
aL1133L
aL1010L
aL533L
atp2809
Rp2810
sL1322L
g8
((lp2811
tp2812
Rp2813
sL1323L
g8
((lp2814
L1320L
aL663L
atp2815
Rp2816
sL1324L
g8
((lp2817
tp2818
Rp2819
sL1325L
g8
((lp2820
L1096L
atp2821
Rp2822
sL1326L
g8
((lp2823
L1095L
atp2824
Rp2825
sL1327L
g8
((lp2826
L1008L
aL906L
aL797L
aL1133L
aL1543L
atp2827
Rp2828
sL1328L
g8
((lp2829
L1190L
atp2830
Rp2831
sL1329L
g8
((lp2832
tp2833
Rp2834
sL1330L
g8
((lp2835
tp2836
Rp2837
sL1331L
g8
((lp2838
tp2839
Rp2840
sL1332L
g8
((lp2841
L1367L
atp2842
Rp2843
sL1333L
g8
((lp2844
tp2845
Rp2846
sL1334L
g8
((lp2847
tp2848
Rp2849
sL1335L
g8
((lp2850
tp2851
Rp2852
sL1336L
g8
((lp2853
tp2854
Rp2855
sL1337L
g8
((lp2856
L1204L
atp2857
Rp2858
sL1338L
g8
((lp2859
tp2860
Rp2861
sL1339L
g8
((lp2862
L1577L
aL942L
aL1198L
aL1295L
atp2863
Rp2864
sL1340L
g8
((lp2865
L1530L
aL1579L
aL1580L
atp2866
Rp2867
sL1341L
g8
((lp2868
L944L
aL1010L
aL1198L
aL943L
atp2869
Rp2870
sL1342L
g8
((lp2871
L1201L
aL1577L
aL1067L
aL1198L
aL1071L
aL465L
aL1078L
aL1199L
atp2872
Rp2873
sL1343L
g8
((lp2874
L1577L
aL1202L
aL1198L
aL726L
atp2875
Rp2876
sL1344L
g8
((lp2877
L578L
aL571L
atp2878
Rp2879
sL1345L
g8
((lp2880
tp2881
Rp2882
sL1346L
g8
((lp2883
L999L
atp2884
Rp2885
sL1347L
g8
((lp2886
L465L
aL1205L
aL1313L
atp2887
Rp2888
sL1348L
g8
((lp2889
L697L
aL1074L
aL1220L
aL1493L
atp2890
Rp2891
sL1349L
g8
((lp2892
L1313L
aL491L
aL1189L
aL1052L
aL1546L
aL1547L
aL1549L
aL1550L
aL1251L
aL1557L
aL1529L
aL796L
aL1309L
aL639L
atp2893
Rp2894
sL1350L
g8
((lp2895
L1313L
atp2896
Rp2897
sL1351L
g8
((lp2898
tp2899
Rp2900
sL1352L
g8
((lp2901
L1248L
aL1313L
aL1309L
atp2902
Rp2903
sL1353L
g8
((lp2904
L354L
aL1060L
aL933L
aL486L
aL812L
aL937L
aL1547L
aL1548L
aL817L
aL1270L
aL1054L
atp2905
Rp2906
sL1354L
g8
((lp2907
tp2908
Rp2909
sL1355L
g8
((lp2910
tp2911
Rp2912
sL1356L
g8
((lp2913
tp2914
Rp2915
sL1357L
g8
((lp2916
tp2917
Rp2918
sL1358L
g8
((lp2919
L1064L
aL1589L
aL1062L
aL511L
atp2920
Rp2921
sL1359L
g8
((lp2922
tp2923
Rp2924
sL1360L
g8
((lp2925
tp2926
Rp2927
sL1361L
g8
((lp2928
L1537L
aL1534L
atp2929
Rp2930
sL1362L
g8
((lp2931
L1272L
aL352L
aL1534L
atp2932
Rp2933
sL1363L
g8
((lp2934
tp2935
Rp2936
sL1364L
g8
((lp2937
tp2938
Rp2939
sL1365L
g8
((lp2940
L704L
aL594L
aL1299L
atp2941
Rp2942
sL1366L
g8
((lp2943
L1056L
aL803L
aL1203L
aL874L
aL1548L
aL1069L
aL1041L
aL1043L
atp2944
Rp2945
sL1367L
g8
((lp2946
L1332L
aL1029L
aL1030L
aL1159L
atp2947
Rp2948
sL1368L
g8
((lp2949
L994L
aL995L
aL1252L
atp2950
Rp2951
sL1370L
g8
((lp2952
tp2953
Rp2954
sL1371L
g8
((lp2955
tp2956
Rp2957
sL1372L
g8
((lp2958
tp2959
Rp2960
sL1373L
g8
((lp2961
tp2962
Rp2963
sL1374L
g8
((lp2964
tp2965
Rp2966
sL1375L
g8
((lp2967
tp2968
Rp2969
sL1376L
g8
((lp2970
L1262L
atp2971
Rp2972
sL1377L
g8
((lp2973
L1515L
atp2974
Rp2975
sL1378L
g8
((lp2976
tp2977
Rp2978
sL1380L
g8
((lp2979
tp2980
Rp2981
sL1381L
g8
((lp2982
L1524L
aL1549L
atp2983
Rp2984
sL1382L
g8
((lp2985
L1262L
atp2986
Rp2987
sL1383L
g8
((lp2988
tp2989
Rp2990
sL1384L
g8
((lp2991
L808L
atp2992
Rp2993
sL1385L
g8
((lp2994
L1178L
atp2995
Rp2996
sL1386L
g8
((lp2997
L571L
aL1581L
atp2998
Rp2999
sL1387L
g8
((lp3000
tp3001
Rp3002
sL1388L
g8
((lp3003
tp3004
Rp3005
sL1389L
g8
((lp3006
tp3007
Rp3008
sL1390L
g8
((lp3009
L1068L
aL1319L
atp3010
Rp3011
sL1391L
g8
((lp3012
L1393L
aL1010L
aL1279L
atp3013
Rp3014
sL1392L
g8
((lp3015
L529L
aL801L
atp3016
Rp3017
sL1393L
g8
((lp3018
L906L
aL1391L
aL400L
aL726L
aL632L
aL698L
aL574L
aL1279L
atp3019
Rp3020
sL1394L
g8
((lp3021
tp3022
Rp3023
sL1395L
g8
((lp3024
L1543L
aL873L
aL1198L
aL657L
aL1271L
aL952L
atp3025
Rp3026
sL1396L
g8
((lp3027
tp3028
Rp3029
sL1397L
g8
((lp3030
L1500L
atp3031
Rp3032
sL1398L
g8
((lp3033
L1233L
atp3034
Rp3035
sL1399L
g8
((lp3036
L1096L
aL1241L
aL502L
atp3037
Rp3038
sL1400L
g8
((lp3039
L1548L
aL1302L
atp3040
Rp3041
sL1401L
g8
((lp3042
tp3043
Rp3044
sL1402L
g8
((lp3045
tp3046
Rp3047
sL1403L
g8
((lp3048
L1600L
aL593L
aL1124L
atp3049
Rp3050
sL1404L
g8
((lp3051
tp3052
Rp3053
sL1405L
g8
((lp3054
tp3055
Rp3056
sL1406L
g8
((lp3057
L1288L
aL1179L
atp3058
Rp3059
sL1407L
g8
((lp3060
L704L
aL1601L
atp3061
Rp3062
sL1408L
g8
((lp3063
L1598L
atp3064
Rp3065
sL1409L
g8
((lp3066
tp3067
Rp3068
sL1410L
g8
((lp3069
L1257L
atp3070
Rp3071
sL1411L
g8
((lp3072
L1525L
aL1317L
atp3073
Rp3074
sL1412L
g8
((lp3075
tp3076
Rp3077
sL1413L
g8
((lp3078
L417L
atp3079
Rp3080
sL1414L
g8
((lp3081
L737L
aL1226L
aL980L
atp3082
Rp3083
sL1415L
g8
((lp3084
L1282L
aL740L
aL680L
aL528L
aL1096L
aL441L
atp3085
Rp3086
sL1416L
g8
((lp3087
L1059L
aL605L
aL731L
aL483L
atp3088
Rp3089
sL1417L
g8
((lp3090
tp3091
Rp3092
sL1418L
g8
((lp3093
L711L
aL713L
aL813L
aL407L
aL763L
aL927L
atp3094
Rp3095
sL1419L
g8
((lp3096
L735L
atp3097
Rp3098
sL1420L
g8
((lp3099
tp3100
Rp3101
sL1421L
g8
((lp3102
tp3103
Rp3104
sL1422L
g8
((lp3105
L986L
aL1290L
aL1261L
aL1110L
atp3106
Rp3107
sL1423L
g8
((lp3108
tp3109
Rp3110
sL1424L
g8
((lp3111
tp3112
Rp3113
sL1425L
g8
((lp3114
tp3115
Rp3116
sL1426L
g8
((lp3117
tp3118
Rp3119
sL1427L
g8
((lp3120
L1151L
atp3121
Rp3122
sL1428L
g8
((lp3123
L969L
aL1187L
atp3124
Rp3125
sL1429L
g8
((lp3126
tp3127
Rp3128
sL1430L
g8
((lp3129
tp3130
Rp3131
sL1431L
g8
((lp3132
tp3133
Rp3134
sL1432L
g8
((lp3135
tp3136
Rp3137
sL1433L
g8
((lp3138
tp3139
Rp3140
sL1434L
g8
((lp3141
tp3142
Rp3143
sL1435L
g8
((lp3144
L924L
aL1119L
atp3145
Rp3146
sL1436L
g8
((lp3147
tp3148
Rp3149
sL1437L
g8
((lp3150
tp3151
Rp3152
sL1438L
g8
((lp3153
tp3154
Rp3155
sL1439L
g8
((lp3156
tp3157
Rp3158
sL1441L
g8
((lp3159
tp3160
Rp3161
sL1442L
g8
((lp3162
tp3163
Rp3164
sL1443L
g8
((lp3165
tp3166
Rp3167
sL1444L
g8
((lp3168
tp3169
Rp3170
sL1445L
g8
((lp3171
tp3172
Rp3173
sL1446L
g8
((lp3174
L1449L
atp3175
Rp3176
sL1447L
g8
((lp3177
tp3178
Rp3179
sL1448L
g8
((lp3180
tp3181
Rp3182
sL1449L
g8
((lp3183
L1446L
atp3184
Rp3185
sL1450L
g8
((lp3186
tp3187
Rp3188
sL1451L
g8
((lp3189
tp3190
Rp3191
sL1452L
g8
((lp3192
tp3193
Rp3194
sL1453L
g8
((lp3195
tp3196
Rp3197
sL1454L
g8
((lp3198
tp3199
Rp3200
sL1455L
g8
((lp3201
tp3202
Rp3203
sL1456L
g8
((lp3204
tp3205
Rp3206
sL1457L
g8
((lp3207
tp3208
Rp3209
sL1458L
g8
((lp3210
tp3211
Rp3212
sL1459L
g8
((lp3213
tp3214
Rp3215
sL1460L
g8
((lp3216
tp3217
Rp3218
sL1461L
g8
((lp3219
tp3220
Rp3221
sL1462L
g8
((lp3222
tp3223
Rp3224
sL1463L
g8
((lp3225
tp3226
Rp3227
sL1464L
g8
((lp3228
tp3229
Rp3230
sL1465L
g8
((lp3231
tp3232
Rp3233
sL1466L
g8
((lp3234
tp3235
Rp3236
sL1467L
g8
((lp3237
tp3238
Rp3239
sL1468L
g8
((lp3240
tp3241
Rp3242
sL1469L
g8
((lp3243
tp3244
Rp3245
sL1470L
g8
((lp3246
tp3247
Rp3248
sL1471L
g8
((lp3249
tp3250
Rp3251
sL1472L
g8
((lp3252
tp3253
Rp3254
sL1473L
g8
((lp3255
tp3256
Rp3257
sL1474L
g8
((lp3258
tp3259
Rp3260
sL1475L
g8
((lp3261
tp3262
Rp3263
sL1476L
g8
((lp3264
tp3265
Rp3266
sL1477L
g8
((lp3267
tp3268
Rp3269
sL1478L
g8
((lp3270
tp3271
Rp3272
sL1479L
g8
((lp3273
tp3274
Rp3275
sL1480L
g8
((lp3276
tp3277
Rp3278
sL1481L
g8
((lp3279
tp3280
Rp3281
sL1482L
g8
((lp3282
tp3283
Rp3284
sL1483L
g8
((lp3285
tp3286
Rp3287
sL1484L
g8
((lp3288
tp3289
Rp3290
sL1486L
g8
((lp3291
tp3292
Rp3293
sL1488L
g8
((lp3294
tp3295
Rp3296
sL1489L
g8
((lp3297
L1293L
atp3298
Rp3299
sL1490L
g8
((lp3300
tp3301
Rp3302
sL1491L
g8
((lp3303
tp3304
Rp3305
sL1492L
g8
((lp3306
tp3307
Rp3308
sL1493L
g8
((lp3309
L1348L
aL1220L
aL1199L
atp3310
Rp3311
sL1494L
g8
((lp3312
L1287L
atp3313
Rp3314
sL1495L
g8
((lp3315
tp3316
Rp3317
sL1496L
g8
((lp3318
tp3319
Rp3320
sL1497L
g8
((lp3321
tp3322
Rp3323
sL1498L
g8
((lp3324
tp3325
Rp3326
sL1499L
g8
((lp3327
tp3328
Rp3329
sL1500L
g8
((lp3330
L1296L
aL1397L
atp3331
Rp3332
sL1501L
g8
((lp3333
tp3334
Rp3335
sL1502L
g8
((lp3336
tp3337
Rp3338
sL1503L
g8
((lp3339
L864L
atp3340
Rp3341
sL1504L
g8
((lp3342
tp3343
Rp3344
sL1505L
g8
((lp3345
tp3346
Rp3347
sL1506L
g8
((lp3348
tp3349
Rp3350
sL1507L
g8
((lp3351
tp3352
Rp3353
sL1508L
g8
((lp3354
tp3355
Rp3356
sL1509L
g8
((lp3357
tp3358
Rp3359
sL1510L
g8
((lp3360
tp3361
Rp3362
sL1511L
g8
((lp3363
tp3364
Rp3365
sL1512L
g8
((lp3366
tp3367
Rp3368
sL1513L
g8
((lp3369
tp3370
Rp3371
sL1515L
g8
((lp3372
L1377L
aL1025L
aL1223L
atp3373
Rp3374
sL1516L
g8
((lp3375
L879L
aL593L
aL831L
aL1311L
atp3376
Rp3377
sL1517L
g8
((lp3378
tp3379
Rp3380
sL1518L
g8
((lp3381
L1603L
atp3382
Rp3383
sL1519L
g8
((lp3384
tp3385
Rp3386
sL1520L
g8
((lp3387
tp3388
Rp3389
sL1521L
g8
((lp3390
tp3391
Rp3392
sL1522L
g8
((lp3393
tp3394
Rp3395
sL1523L
g8
((lp3396
tp3397
Rp3398
sL1524L
g8
((lp3399
L1381L
atp3400
Rp3401
sL1525L
g8
((lp3402
L1411L
atp3403
Rp3404
sL1526L
g8
((lp3405
tp3406
Rp3407
sL1527L
g8
((lp3408
L1604L
atp3409
Rp3410
sL1528L
g8
((lp3411
tp3412
Rp3413
sL1529L
g8
((lp3414
L1349L
atp3415
Rp3416
sL1530L
g8
((lp3417
L1281L
aL931L
aL740L
aL528L
aL1107L
aL1340L
atp3418
Rp3419
sL1531L
g8
((lp3420
L1280L
atp3421
Rp3422
sL1532L
g8
((lp3423
L626L
aL624L
aL497L
aL754L
aL856L
aL895L
atp3424
Rp3425
sL1533L
g8
((lp3426
tp3427
Rp3428
sL1534L
g8
((lp3429
L1272L
aL352L
aL1362L
aL1534L
aL1361L
atp3430
Rp3431
sL1535L
g8
((lp3432
tp3433
Rp3434
sL1536L
g8
((lp3435
tp3436
Rp3437
sL1537L
g8
((lp3438
L808L
aL1361L
atp3439
Rp3440
sL1538L
g8
((lp3441
tp3442
Rp3443
sL1539L
g8
((lp3444
tp3445
Rp3446
sL1540L
g8
((lp3447
L1253L
atp3448
Rp3449
sL1541L
g8
((lp3450
L1305L
aL788L
atp3451
Rp3452
sL1542L
g8
((lp3453
L1010L
aL902L
aL1007L
atp3454
Rp3455
sL1543L
g8
((lp3456
L653L
aL902L
aL903L
aL873L
aL906L
aL428L
aL1133L
aL1327L
aL1008L
aL657L
aL1395L
aL533L
aL531L
aL1271L
aL440L
atp3457
Rp3458
sL1544L
g8
((lp3459
tp3460
Rp3461
sL1545L
g8
((lp3462
tp3463
Rp3464
sL1546L
g8
((lp3465
L1188L
aL1349L
aL454L
aL1191L
aL1052L
aL796L
aL1054L
aL933L
atp3466
Rp3467
sL1547L
g8
((lp3468
L1313L
aL1270L
aL1349L
aL1191L
aL456L
aL1353L
aL816L
aL1046L
aL1048L
aL1052L
aL1054L
aL933L
atp3469
Rp3470
sL1548L
g8
((lp3471
L1400L
aL1353L
aL1054L
aL1302L
aL1366L
atp3472
Rp3473
sL1549L
g8
((lp3474
L1349L
aL1381L
atp3475
Rp3476
sL1550L
g8
((lp3477
L1313L
aL354L
aL1349L
aL486L
aL974L
aL1054L
atp3478
Rp3479
sL1551L
g8
((lp3480
tp3481
Rp3482
sL1552L
g8
((lp3483
tp3484
Rp3485
sL1553L
g8
((lp3486
L1024L
aL882L
aL1243L
aL1134L
atp3487
Rp3488
sL1554L
g8
((lp3489
tp3490
Rp3491
sL1555L
g8
((lp3492
tp3493
Rp3494
sL1556L
g8
((lp3495
tp3496
Rp3497
sL1557L
g8
((lp3498
L1060L
aL1349L
aL935L
aL1192L
aL1052L
aL746L
aL456L
aL393L
aL796L
aL1053L
aL1054L
aL933L
atp3499
Rp3500
sL1558L
g8
((lp3501
tp3502
Rp3503
sL1559L
g8
((lp3504
L552L
aL408L
aL1205L
atp3505
Rp3506
sL1560L
g8
((lp3507
tp3508
Rp3509
sL1561L
g8
((lp3510
tp3511
Rp3512
sL1562L
g8
((lp3513
tp3514
Rp3515
sL1563L
g8
((lp3516
tp3517
Rp3518
sL1564L
g8
((lp3519
tp3520
Rp3521
sL1565L
g8
((lp3522
tp3523
Rp3524
sL1566L
g8
((lp3525
tp3526
Rp3527
sL1567L
g8
((lp3528
tp3529
Rp3530
sL1568L
g8
((lp3531
tp3532
Rp3533
sL1569L
g8
((lp3534
tp3535
Rp3536
sL1570L
g8
((lp3537
tp3538
Rp3539
sL1571L
g8
((lp3540
tp3541
Rp3542
sL1572L
g8
((lp3543
tp3544
Rp3545
sL1573L
g8
((lp3546
L1321L
atp3547
Rp3548
sL1574L
g8
((lp3549
L1300L
atp3550
Rp3551
sL1575L
g8
((lp3552
tp3553
Rp3554
sL1576L
g8
((lp3555
tp3556
Rp3557
sL1577L
g8
((lp3558
L1284L
aL908L
aL1197L
aL1199L
aL1308L
aL1307L
aL1316L
aL689L
aL808L
aL1067L
aL685L
aL1071L
aL1073L
aL1202L
aL1203L
aL564L
aL1205L
aL1078L
aL952L
aL953L
aL1339L
aL1342L
aL575L
aL466L
aL467L
aL697L
aL1295L
aL738L
aL359L
aL1264L
aL1343L
aL1279L
atp3559
Rp3560
sL1578L
g8
((lp3561
L1200L
aL443L
aL564L
aL1197L
aL575L
atp3562
Rp3563
sL1579L
g8
((lp3564
L1340L
atp3565
Rp3566
sL1580L
g8
((lp3567
L552L
aL1010L
aL435L
aL1340L
aL711L
atp3568
Rp3569
sL1581L
g8
((lp3570
L1386L
atp3571
Rp3572
sL1583L
g8
((lp3573
tp3574
Rp3575
sL1584L
g8
((lp3576
L788L
atp3577
Rp3578
sL1585L
g8
((lp3579
tp3580
Rp3581
sL1587L
g8
((lp3582
tp3583
Rp3584
sL1588L
g8
((lp3585
tp3586
Rp3587
sL1589L
g8
((lp3588
L1064L
aL417L
aL1358L
atp3589
Rp3590
sL1590L
g8
((lp3591
L1274L
atp3592
Rp3593
sL1591L
g8
((lp3594
L1286L
atp3595
Rp3596
sL1592L
g8
((lp3597
L1013L
atp3598
Rp3599
sL1593L
g8
((lp3600
tp3601
Rp3602
sL1594L
g8
((lp3603
tp3604
Rp3605
sL1595L
g8
((lp3606
tp3607
Rp3608
sL1596L
g8
((lp3609
tp3610
Rp3611
sL1597L
g8
((lp3612
tp3613
Rp3614
sL1598L
g8
((lp3615
L1408L
atp3616
Rp3617
sL1599L
g8
((lp3618
L871L
atp3619
Rp3620
sL1600L
g8
((lp3621
L1403L
aL871L
atp3622
Rp3623
sL1601L
g8
((lp3624
L1407L
aL350L
aL871L
atp3625
Rp3626
sL1602L
g8
((lp3627
tp3628
Rp3629
sL1603L
g8
((lp3630
L1518L
atp3631
Rp3632
sL1604L
g8
((lp3633
L1527L
atp3634
Rp3635
ssS'names'
p3636
(dp3637
L348L
S'Elastohydrodynamic Ball Bearing Optimization Using Genetic Algorithm and Heuristic Gradient Projection'
p3638
sL349L
S'PipeSynth: An Algorithm for Automated Topological and Parametric Design and Optimization of Pipe Networks'
p3639
sL350L
S'Compliant Mechanism Design Using a Strain Based Topology Optimization Method'
p3640
sL351L
S'Optimizing the Shear Beam of a Non-Pneumatic Wheel for Low Rolling Resistance'
p3641
sL352L
S'Decomposition Templates and Joint Morphing Operators for Genetic Algorithm Optimization of Multi-Component Topology'
p3642
sL353L
S'On Usage Context of Hybrid Electric Vehicles in Choice Studies'
p3643
sL354L
S'Exploring Heterogeneity of Customer Preference to Balance Commonality and Market Coverage'
p3644
sL355L
S'Exploring Differences in Preference Heterogeneity Representation and Their Influence in Product Family Design'
p3645
sL356L
S'A Modified Formulation for Automatic Synthesis of Planar Linkage Mechanisms'
p3646
sL357L
S'Isogeometric Shape Design Sensitivity Analysis Using Mixed Transformation Method for Kronecker Delta Property'
p3647
sL358L
S'Adjoint Design Sensitivity Analysis of Fracture Mechanics Using Molecular-Continuum Multiscale Approach'
p3648
sL359L
S'Decomposition of System Level Reliability-Based Design Optimization to Reduce the Number of Simulations'
p3649
sL360L
S'Random Field Characterization With Insufficient Data Sets for Probability Analysis and Design'
p3650
sL361L
S'Conditions of Equivalence Between Continuum and Discrete Sensitivities'
p3651
sL362L
S'An Asymmetric Dimension-Adaptive Tensor-Product Method for Reliability Analysis'
p3652
sL363L
S'Robust Design Optimization of Ball Grid Array Packaging'
p3653
sL364L
S'Topology Optimization of Spacers for Maximizing Permeate Flux on Membrane Surface in Reverse Osmosis Channel'
p3654
sL365L
S'An Early-Stage Tool to Evaluate the Product Redesign Impact'
p3655
sL366L
S'A New Framework for Collaborative Set-Based Design: Application to the Design Problem of a Hollow Cylindrical Cantilever Beam'
p3656
sL367L
S'Incorporating Process Architecture in the Evaluation of Stability in Distributed Design'
p3657
sL368L
S'Probability of User Fit for Spatially Optimized Products'
p3658
sL369L
S'Granularity Enhancement of Extracted Preferential Probabilities From Design Team Discussion'
p3659
sL377L
S'Towards Parametric Environmental Profiles of Complex Industrial Systems in Preliminary Design Stage'
p3660
sL378L
S'Development of an Ontology for the Automatic Reconfiguration of a Vise-Type Fixture Device'
p3661
sL379L
S'A Function Based Approach for Product Integration'
p3662
sL381L
S'A Modular Design Approach to Improve the Life Cycle Performance Derived From Optimized Closed-Loop Supply Chain'
p3663
sL382L
S'Multi-Discipline Design of a Wind Turbine'
p3664
sL383L
S'A New Model for Wind Farm Layout Optimization With Landowner Decisions'
p3665
sL384L
S'Optimal Hybridization of Battery, Engine and Motor for PHEV20'
p3666
sL385L
S'Developing Innovative Energy Harvesting Approaches for Infrastructure Health Monitoring Systems'
p3667
sL386L
S'Optimal Component Sizing and Forward-Looking Dispatch of an Electrical Microgrid for Energy Storage Planning'
p3668
sL387L
S'Optimal Scheduling of Parabolic Heliostats Aim Targets in a Mini-Tower Solar Concentrator System'
p3669
sL388L
S'Optimization of Parabolic Heliostat Focal Lengths in a Mini-Tower Solar Concentrator System'
p3670
sL389L
S'Characterizing the Influence of Land Configuration on the Optimal Wind Farm Performance'
p3671
sL390L
S'Customer Driven Optimal Design for Convergence Products'
p3672
sL391L
S'Defining Technology-Adoption Indifference Curves for Residential Solar Electricity Generation Using Stated Preference Experiments'
p3673
sL392L
S'Customer-Driven Product Design Selection Using Web Based User-Generated Content'
p3674
sL393L
S'Robust Design for Profit Maximization Under Uncertainty of Consumer Choice Model Parameters Using the Delta Method'
p3675
sL394L
S'A Method for Designing Collaborative Products With Application to Poverty Alleviation'
p3676
sL395L
S'Principles of Mechanical Design for the Developing World: A Case Study Approach'
p3677
sL396L
S'A Method for Identifying Design Principles for the Developing World'
p3678
sL397L
S'Understanding Rural Village Energy Needs and Design Constraints'
p3679
sL398L
S'Managing Uncertainty in Multiscale Systems via Simulation Model Refinement'
p3680
sL399L
S'Loci Surface Guided Crystal Phase Transition Pathway Search'
p3681
sL400L
S'Microstructure Reconstruction for Stochastic Multiscale Material Design'
p3682
sL401L
S'Identifying Product Scaling Principles: A Tool for Bioinspired Design and Beyond'
p3683
sL404L
S'Study of the Sequential Constraint-Handling Technique for Evolutionary Optimization With Application to Structural Problems'
p3684
sL405L
S'Comparison of Gene Expression Programming and Common Metamodeling Techniques in Engineering Design'
p3685
sL406L
S'Methodology for Pipeline Route Selection Using the NSGA II and Distance Transform Algorithms'
p3686
sL407L
S'Interactive Modular Optimization Strategy for Layout Problems'
p3687
sL408L
S'Assessing the Effectiveness of Using Graveyard Data for Generating Design Alternatives'
p3688
sL409L
S'Global Product Family Design: A Mathematical Model for Simultaneous Decision of Module Commonalization and Supply Chain Configuration'
p3689
sL410L
S'Design Preference Elicitation Using Efficient Global Optimization'
p3690
sL411L
S'Learning Stylistic Desires and Generating Preferred Designs of Consumers Using Neural Networks and Genetic Algorithms'
p3691
sL412L
S'Exploring Marketing to Engineering Information Mapping in Mass Customization: A Presentation of Ideas, Challenges and Resulting Questions'
p3692
sL413L
S'Prospect of Design for Mass Customization and Personalization'
p3693
sL414L
S'Structural Topology Optimization for Forced Vibration Problem Using Level Set Method'
p3694
sL415L
S'Modeling of Geometric Variations for Line-Profiles'
p3695
sL416L
S'An Approach to Automated Conversion From Design Feature Model to Analysis Feature Model'
p3696
sL417L
S'Generic Visual Simulation of Manufacturing Equipment'
p3697
sL418L
S'Conceptual Design of Freeform Surfaces From Unstructured Point Sets Using Neural Network Regression'
p3698
sL420L
S'Shape and Topology Optimization With Medial Zones'
p3699
sL422L
S'Evaluating Genetic Algorithms on Welding Sequence Optimization With Respect to Dimensional Variation and Cycle Time'
p3700
sL423L
S'Approximate Surfacing of Curve Clouds for Conceptual Shape Creation and Evaluation'
p3701
sL424L
S'APIX: Analysis From Pixellated Inputs in Early Design Using a Pen-Based Interface'
p3702
sL425L
S'A Rational Design Approach to Gaussian Process Modeling for Variable Fidelity Models'
p3703
sL426L
S'An Improved Support Vector Domain Description Method for Modeling Valid Search Domains in Engineering Design Problems'
p3704
sL427L
S'Convex Estimators for Optimization of Kriging Model Problems'
p3705
sL428L
S'On Using Kriging Models for Complex Design'
p3706
sL429L
S'Surrogate Modeling of Complex Systems Using Adaptive Hybrid Functions'
p3707
sL430L
S'Fundamental Concepts for Product Designs Based on Pareto Optimum Solutions'
p3708
sL431L
S'Tracing the Envelope of the Objective-Space in Multi-Objective Topology Optimization'
p3709
sL434L
S'Simultaneous Requirement and Design Optimization of an Industrial Robot Family Using Multi-Objective Optimization'
p3710
sL435L
S'LIVE: A Work-Centered Approach to Support Visual Analytics of Multi-Dimensional Engineering Design Data With Interactive Visualization and Data-Mining'
p3711
sL436L
S'Multidisciplinary Design Optimization for Complex Engineered Systems Design: State of the Research and State of the Practice--Report From a National Science Foundation Workshop'
p3712
sL437L
S'Multidisciplinary Design Optimization of Ship Hull Forms Using Metamodels'
p3713
sL438L
S'Visually Exploring a Design Space Through the Use of Multiple Contextual Self-Organizing Maps'
p3714
sL439L
S'Multidisciplinary Design Optimization of Modular Industrial Robots'
p3715
sL440L
S'Sequential Sampling With Kernel-Based Bayesian Network Classifiers'
p3716
sL441L
S'Quantifying the Convergence Time of Distributed Design Processes'
p3717
sL442L
S'Co-Design of an Active Suspension Using Simultaneous Dynamic Optimization'
p3718
sL443L
S'Bounded Target Cascading in Hierarchical Design Optimization'
p3719
sL444L
S'Structural Optimization of Lattice Materials'
p3720
sL445L
S'Multiscale Design and Multiobjective Optimization of Orthopaedic Cellular Hip Implants'
p3721
sL446L
S'Shape Design of Periodic Cellular Materials Under Cyclic Loading'
p3722
sL447L
S'Optimization of Honeycomb Cellular Meso-Structures for High Speed Impact Energy Absorption'
p3723
sL448L
S'Shear Compliant Hexagonal Cellular Solids With a Shape Memory Alloy'
p3724
sL449L
S'Return on Investment Analysis for Implementing Barriers to Reverse Engineering'
p3725
sL450L
S'A Novel Search Algorithm for Interactive Automated Conceptual Design Generator (ACDG)'
p3726
sL451L
S'Object-Oriented Modeling of Industrial Manipulators With Application to Energy Optimal Trajectory Scaling'
p3727
sL452L
S'Analysis and Design of an In-Pipe System for Water Leak Detection'
p3728
sL453L
S'A Design Exploration of Genetically Engineered Myosin Motors'
p3729
sL454L
S'Identification of Product Family Platforms Using Pattern Recognition'
p3730
sL455L
S'Recent Advancements in Product Family Design and Platform-Based Product Development: A Literature Review'
p3731
sL456L
S'Platform Strategy for Product Family Design Using Particle Swarm Optimization'
p3732
sL457L
S'A Platform Selection Approach Based on Product Family Ontology Modeling'
p3733
sL458L
S'An Importance Sampling Approach for Time-Dependent Reliability'
p3734
sL459L
S'A Variable-Size Local Domain Approach for Concurrent Design Optimization and Model Validation Using Parametric Bootstrap'
p3735
sL460L
S'Addressing Limitations of Pareto Front in Design Under Uncertainty'
p3736
sL461L
S'Robustness of Residual Stresses in Brake Discs by Metamodeling'
p3737
sL462L
S'Equivalent Standard Deviation to Convert High-Reliability Model to Low-Reliability Model for Efficiency of Sampling-Based RBDO'
p3738
sL463L
S'Adaptive Virtual Support Vector Machine for the Reliability Analysis of High-Dimensional Problems'
p3739
sL464L
S'Robustness Metrics for Time-Dependent Quality Characteristics'
p3740
sL465L
S'Quantifying Model Uncertainty Using Measurement Uncertainty Standards'
p3741
sL466L
S'Multi-Stage Uncertainty Quantification for Verifying the Correctness of Complex System Designs'
p3742
sL467L
S'Resilience-Driven System Design of Complex Engineered Systems'
p3743
sL468L
S'Reliable Kinetic Monte Carlo Simulation Based on Random Set Sampling'
p3744
sL469L
S'Hybrid Power Generation System Design Optimization Based on a Markovian Reliability Analysis Approach'
p3745
sL470L
S'Improving Identifiability in Model Calibration Using Multiple Responses'
p3746
sL471L
S'Robust Structural Design Optimization Under Non-Probabilistic Uncertainties'
p3747
sL472L
S'Finite Element Modeling and Analysis of Orthotropic Butt Welds'
p3748
sL473L
S'Theoretical and Experimental Characterization of the 34.6 2D Lattice Material'
p3749
sL474L
S'A Viscoelastic Based Mechanism for Improving Spring-In Angle Predictions in Compression Molded Thermoplastic Matrix Composites'
p3750
sL475L
S'The Effect of Carbon Nanotubes on the Natural Frequencies of Microcantilever Beams'
p3751
sL476L
S'Experimental Damage Characterization of Hexagonal Honeycombs Subjected to In-Plane Shear Loading'
p3752
sL477L
S'Design of Chiral Honeycomb Meso-Structures for High Shear Flexure'
p3753
sL478L
S'A Study of the Effect of Geometry Changes on the Structural Stiffness of a Composite D-Spar'
p3754
sL479L
S'Low-Velocity Impact Behavior of Aluminum-Fiber/Epoxy Laminates: A Comprehensive Experimental Study'
p3755
sL480L
S'Safety of Spur Gear Design Under Non-Ideal Conditions With Uncertainty'
p3756
sL481L
S'Subfunctions as Parts of Functions: Some Formal Problems'
p3757
sL482L
S'Development and Application of a Patent-Based Design Around Process'
p3758
sL483L
S'A Port-Based Agent Approach to Guiding Concept Generation for Customizing Modular Varieties'
p3759
sL484L
S'Requirement Change Propagation Prediction Approach: Results From an Industry Case Study'
p3760
sL485L
S'A Graph Theory Based Method for Functional Decoupling of a Design With Complex Interaction Structure'
p3761
sL486L
S'Mass Customization: A Review of the Paradigm Across Marketing, Engineering and Distribution Domains'
p3762
sL487L
S'Automated Concept Generation Using Branched Functional Models'
p3763
sL488L
S'Development of Game Theoretic Protocols for Multilevel Design'
p3764
sL489L
S'Exploring Automated Concept Generator Output Through Principal Component Analysis'
p3765
sL490L
S'Concept Opportunity Diagrams: A Visual Modeling Method to Find Multifunctional Design Concepts'
p3766
sL491L
S'Modular Product Configuration: An Automatic Tool for Eliciting Design Knowledge From Parametric CAD Models'
p3767
sL492L
S'Reconfigurable Products and Their Means of Reconfiguration'
p3768
sL493L
S'Optimal Adaptable Design Considering Changes of Requirements, Configurations and Parameters in the Whole Product Life-Cycle'
p3769
sL495L
S'State Transition in Reconfigurable Systems'
p3770
sL496L
S'An Engineering Design Strategy for Reconfigurable Products That Support Poverty Alleviation'
p3771
sL497L
S'A Framework for Choice Modeling in Usage Context-Based Design'
p3772
sL498L
S'Product Family Deployment Through Optimal Resource Allocation Under Market System'
p3773
sL499L
S'Strategic Product Design Decisions for Uncertain Market Systems Using an Agent Based Approach'
p3774
sL500L
S'A Method for Supporting Service Design Based on Multiple Domain Knowledge'
p3775
sL501L
S'Parallel Biogeography-Based Optimization With GPU Acceleration for Nonlinear Optimization'
p3776
sL502L
S'Constraint Importance Mode Pursuing Sampling for Continuous Global Optimization'
p3777
sL503L
S'Design Preference Elicitation, Derivative-Free Optimization and Support Vector Machine Search'
p3778
sL504L
S'Protocol-Based Multi-Agent Systems: Examining the Effect of Diversity, Dynamism, and Cooperation in Heuristic Optimization Approaches'
p3779
sL505L
S'A Hybrid Biomimetic Genetic Algorithm Using a Local Fuzzy Simplex Search'
p3780
sL506L
S'Computation of the Usage Contexts Coverage of a Jigsaw With CSP Techniques'
p3781
sL507L
S'Visual Analysis of User Accommodation'
p3782
sL508L
S'Considering Secular and Demographic Trends in Designing for Present and Future Populations'
p3783
sL509L
S'Augmented Reality Visualization of Automobile Air Conditioning Using Optical Tracking Tools'
p3784
sL510L
S'Reverse Engineering for Spotting of Sheet Metal Forming Parts'
p3785
sL511L
S'2-D Path Planning for Direct Laser Deposition Process'
p3786
sL512L
S'A Multi-Axis Slicing Method for Direct Laser Deposition Process'
p3787
sL513L
S'Basic Study of Autologous-Bone-Replaceable Artificial Bone Fabrication With Porosity Distribution Using Electrolysis'
p3788
sL514L
S'Additive Manufacturing Based on Multiple Calibrated Projectors and Its Mask Image Planning'
p3789
sL515L
S'The Automated Planning for Fixture Location Based on Process Requirement'
p3790
sL519L
S'Robustness Analysis of Airfoil Performance'
p3791
sL521L
S'Symmetry Plane Detection for 3D CAD Volumes'
p3792
sL522L
S'Collision-Free Locating of Mobile Cranes in 3D Lifting System'
p3793
sL523L
S'A Fast Grid Deformation Algorithm for Aerodynamic Shape Optimization'
p3794
sL524L
S'Fundamental Concepts for Collaboratively Obtaining Optimum Product Designs'
p3795
sL525L
S'Investigation of Design Tools as Complexity Management Techniques'
p3796
sL526L
S'Bayesian Network Classifiers for Set-Based Collaborative Design'
p3797
sL527L
S'Functional Decomposition of the Clustering Approach for Matrix-Based Structuring'
p3798
sL528L
S'Examining Interactions Between Solution Architecture and Designer Mistakes'
p3799
sL529L
S'Support Vector Regression Modeling for Design and Analysis of Mechanical Snubbing'
p3800
sL530L
S'A Simulation-Based Robust Concept Exploration Method'
p3801
sL531L
S'Making the Most Out of Surrogate Models: Tricks of the Trade'
p3802
sL532L
S'Turning Black-Box Into White Functions'
p3803
sL533L
S'Improving Multi-Response Metamodels With Upper/Lower Bound Information Using Multi-Stage, Non-Stationary Covariance Functions'
p3804
sL534L
S'A MINLP Model for Global Optimization of Plug-In Hybrid Vehicle Design and Allocation to Minimize Life Cycle Greenhouse Gas Emissions'
p3805
sL535L
S'Hybrid Power/Energy Generation System Design Through Multistage Design Optimization Problem With Complementarity Constraints'
p3806
sL536L
S'Design and Analysis of Hybrid Guideway Heating System for Morgantown Personal Rapid Transit'
p3807
sL537L
S'Design Optimization of Reverse Osmosis Water Desalination Systems via Genetic Algorithms'
p3808
sL538L
S'Studies on the Design of Reverse Osmosis Water Desalination Systems for Cost and Energy Efficiency'
p3809
sL539L
S'An Extended Pattern Search Approach to Wind Farm Layout Optimization'
p3810
sL540L
S'Design of an Extended-Range Electric Vehicle for the EcoCAR Challenge'
p3811
sL541L
S'Plug-In Hybrid Electric Vehicle Battery Selection for Optimum Economic and Environmental Benefits Using Pareto Set Points and PSAT(tm)'
p3812
sL542L
S'An Investigation of Sustainability, Preference, and Profitability in Design Optimization'
p3813
sL543L
S'Response Surface Based Cost Model for Onshore Wind Farms Using Extended Radial Basis Functions'
p3814
sL544L
S'Optimal Camera Path Planning for the Inspection of Printed Circuit Boards Using a Two Stepped Optimization Approach'
p3815
sL545L
S'Constraint Management of Reduced Representation Variables in Decomposition-Based Design Optimization'
p3816
sL546L
S'Combined Plant and Controller Design Using Decomposition-Based Design Optimization and the Minimum Principle'
p3817
sL547L
S'Optimizing the Unrestricted Placement of Turbines of Differing Rotor Diameters in a Wind Farm for Maximum Power Generation'
p3818
sL548L
S'A Cutting Plane Method for Analytical Target Cascading With Augmented Lagrangian Coordination'
p3819
sL549L
S'Reducible Uncertain Interval Design (RUID) by Kriging Meta-Model Assisted Multi-Objective Optimization'
p3820
sL550L
S'Multi-Objective Optimization in Industrial Robotic Cell Design'
p3821
sL551L
S'An Improved Kriging Assisted Multi-Objective Genetic Algorithm'
p3822
sL552L
S'Investigating the Significance of "One-to-Many" Mappings in Multiobjective Optimization'
p3823
sL553L
S'Ball Bearing Fatigue and Wear Life Optimization Using Elastohydrodynamic and Genetic Algorithm'
p3824
sL554L
S'Development of a Product Family Analysis Toolkit for Systematic Benchmarking'
p3825
sL555L
S'User Interface Design for Interactive Product Family Analysis and Variants Derivation'
p3826
sL556L
S'Validating the Generational Variety Index (GVI) Through Product Family Optimization: A Preliminary Study'
p3827
sL557L
S'Universal Product Family Design Valuation in an Uncertain Market Environment'
p3828
sL558L
S'Designing a Product Package Platform'
p3829
sL559L
S'System RBDO With Correlated Variables Using Probabilistic Re-Analysis and Local Metamodels'
p3830
sL560L
S'A Simulation-Based Random Process Method for Time-Dependent Reliability of Dynamic Systems'
p3831
sL561L
S'Multi-Objective Design and Tolerance Allocation for Single- and Multi-Level Systems'
p3832
sL562L
S'Modified Reduced Gradient With Realizations Sorting for Hard Equality Constraints in Reliability-Based Design Optimization'
p3833
sL563L
S'Probabilistic Design Optimization of Frequency Dispersion for Rotating Blades'
p3834
sL564L
S'Second-Order Reliability Method With First-Order Efficiency'
p3835
sL565L
S'A Joint Probability Approach to Multiobjective Optimization Under Uncertainty'
p3836
sL566L
S'Parameter Screening in Dynamic Computer Model Calibration Using Global Sensitivities'
p3837
sL567L
S'Trending Mining for Predictive Product Design'
p3838
sL568L
S'Validating Designs Through Sequential Simulation-Based Optimization'
p3839
sL569L
S'Risk Management in Product Design: Current State, Conceptual Model and Future Research'
p3840
sL570L
S'Model-Based Method to Translate System Level Customer Need to Part Specification'
p3841
sL571L
S'Sampling-Based Stochastic Sensitivity Analysis Using Score Functions for RBDO Problems With Correlated Random Variables'
p3842
sL572L
S'Reliability-Based Design Optimization With Confidence Level for Non-Gaussian Distributions Using Bootstrap Method'
p3843
sL573L
S'Multiscale Variability and Uncertainty Quantification Based on a Generalized Multiscale Markov Model'
p3844
sL574L
S'Updating Predictive Models: Calibration, Bias Correction and Identifiability'
p3845
sL575L
S'A Hybrid Reliability Approach for Reliability-Based Design Optimization'
p3846
sL576L
S'Enabling Integrated Material and Product Design Under Uncertainty Through Stochastic Constitutive Relations'
p3847
sL577L
S'Tolerance Allocation of Assemblies Using Fuzzy Comprehensive Evaluation and Decision Support Processes'
p3848
sL578L
S'Effective Random Field Characterization Considering Statistical Dependence for Probability Analysis and Design'
p3849
sL579L
S'Validation of Computational Fluid Structure Interaction Models for Shape Optimization Under Blast Impact'
p3850
sL580L
S'A Modified Continuous Reactive Tabu Search for Damage Detection in Beams'
p3851
sL582L
S'An Efficient Tradeoff Approach for Topology Optimization With Manufacturing Constraints'
p3852
sL583L
S'Optimum Design of an Anchoring System for Percutaneous Mitral Valve Repair'
p3853
sL584L
S'Tracing Pareto-Optimal Frontiers in Topology Optimization'
p3854
sL585L
S'Topology Optimization of Piezoelectric Energy Harvesting Devices Subjected to Stochastic Excitation'
p3855
sL586L
S'Fastener Pattern Optimization of an Eccentrically Loaded Multi-Fastener Connection'
p3856
sL588L
S'The Mathematical Model of a Procedure for Percutaneous Annuloplasty'
p3857
sL589L
S'Using Level Set Method in Order to Design Structures Against Buckling'
p3858
sL590L
S'An Optimization Model for Parabolic-Trough Solar Power Generation Systems'
p3859
sL591L
S'Integrated Decision Model for Interrelated Sub-Problems of Part Design or Selection, Machine Loading and Machining Optimization'
p3860
sL592L
S'Automated Synthesis and Optimization of Gear Train Topologies'
p3861
sL593L
S'Hybrid General Heuristic Gradient Projection for Frame Optimization of Micro and Macro Applications'
p3862
sL594L
S'Automated Vehicle Structural Crashworthiness Design via a Crash Mode Matching Algorithm'
p3863
sL595L
S'System Dynamics Through Graphical Dimensional Analysis'
p3864
sL596L
S'Development of a Changeable Airfoil Optimization Model for Use in the Multidisciplinary Design of Unmanned Aerial Vehicles'
p3865
sL597L
S'Design Optimization of a Special Class of Steel Structures via Genetic Algorithms and Stochastic Sampling'
p3866
sL598L
S'Variable Fidelity Modeling as Applied to Trajectory Optimization for a Hydraulic Backhoe'
p3867
sL599L
S'Creating Polytope Representation of Design Spaces for Visual Exploration Using Consistency Technique'
p3868
sL600L
S'Modular Product Design Using Cyberinfrastructure for Global Manufacturing'
p3869
sL601L
S'A Method and Software Tool for Automated Gearbox Synthesis'
p3870
sL602L
S'Genetic Evolution for the Development of Robust Artificial Neural Network Logic Gates'
p3871
sL604L
S'Early Design Modeling and Simulation of Behaviors: Case Study of Mobile Work Machine'
p3872
sL605L
S'Port-Based Ontology Semantic Similarities for Module Concept Creation'
p3873
sL606L
S'A Study of Different Metamodeling Techniques for Conceptual Design'
p3874
sL607L
S'Automatic Virtual Entity Simulation of the Symbolic Schemes Generated in Conceptual Design Processes'
p3875
sL608L
S'A Hybrid Sensitivity Analysis for Use in Early Design'
p3876
sL609L
S'Integrated Pahl and Beitz and the Theory of Inventive Problem Solving for the Conceptual Design of Multi-Domain Systems'
p3877
sL610L
S'Empirical Analysis of Transformers in the Development of a Storyboarding Methodology'
p3878
sL611L
S'A Function-Based Strategy for Analysis of Energy Systems in Transportation Vehicles'
p3879
sL612L
S'2D Multi-Objective Placement Algorithm for Free-Form Components'
p3880
sL613L
S'OPAS: Ontology Processing for Assisted Synthesis of Conceptual Design Solutions'
p3881
sL614L
S'Optimization of Machine Product Designs From Deeper Level Characteristics Using Collaboration Theory Concepts'
p3882
sL615L
S'The Effect of Reward Interdependence of Strategies in Evolutionary Multi-Agent Systems'
p3883
sL616L
S'Approach to Evaluate and Implement Information Systems That Satisfy Your Goals'
p3884
sL617L
S'Bayesian Networks for Set-Based Collaborative Design'
p3885
sL618L
S'Separating Design Optimization Problems for Bounded Rational Designers'
p3886
sL619L
S'Interactive Functional Reparameterization of Geometric Models'
p3887
sL620L
S'Entropic Method for Sequencing Discrete Design Decisions'
p3888
sL621L
S'Integration of Supply Chain Decisions at the Conceptual Design Stage: A Repository Enabled Decision Tool'
p3889
sL622L
S'Bayesian Hierarchical Choice Modeling Framework for Capturing Heterogeneous Preferences in Engineering System Design'
p3890
sL623L
S'A Comparative Study of Data-Intensive Demand Modeling Techniques in Relation to Product Design and Development'
p3891
sL624L
S'A Mixed Logit Choice Modeling Approach Using Customer Satisfaction Surveys to Support Engineering Design'
p3892
sL625L
S'Methods for Evaluating Suitability of Econometric Demand Models in Design for Market Systems'
p3893
sL626L
S'Usage Coverage Model for Choice Modeling: Principles'
p3894
sL627L
S'Assessing Fusibility in Enrichment Methods for Disparate Customer Data Sets'
p3895
sL628L
S'A Multi-Scale Design for a Robust Hydrogen Storage Tank'
p3896
sL629L
S'Metamorphosis of Periodic Surface Models'
p3897
sL630L
S'A Design Exploration Method for Adaptive Design Systems'
p3898
sL631L
S'Microstructure-Mediated Integration of Material and Product Design: Undersea Submersible'
p3899
sL632L
S'A Multiscale Design Methodology for Designing Hierarchical Multiscale Systems Considering Random Field Uncertainty'
p3900
sL633L
S'Parallel Population Based Incremental Learning With GPU Acceleration for Nonlinear Optimization'
p3901
sL634L
S'On the Application of Multi-Objective Parallel Asynchronous Particle Swarm Optimization to Engineering Design Problems'
p3902
sL635L
S'Particle Swarm Methodologies for Engineering Design Optimization'
p3903
sL636L
S'A Regularized Inexact Penalty Decomposition Algorithm for Multidisciplinary Design Optimization Problem With Complementarity Constraints'
p3904
sL637L
S'Hierarchical Optimization-Based Approach for Two-Dimensional Rectangular Layout Design Problems'
p3905
sL638L
S'Optimized Mask Image Projection for Solid Freeform Fabrication'
p3906
sL639L
S'An Approach to Support the Implementation of Product Configuration Tools'
p3907
sL640L
S'Shapley Value Based Attribute Selection for Configurators'
p3908
sL641L
S'The Effect of Toolpath Intersection Angle in Metal Deposition'
p3909
sL642L
S'Selection of Part Orientation for Multi-Axis Hybrid Manufacturing Process'
p3910
sL643L
S'Modeling of Geometric Variations Within a Tolerance-Zone for Circular Runout'
p3911
sL644L
S'Representation and Automated Generation of Analysis Feature Model for Finite Element Analysis'
p3912
sL645L
S'Neutral Definition and Recognition of Assembly Features for Legacy Systems Reverse Engineering'
p3913
sL646L
S'Modeling and Virtual Reality Realization of Coupled Processes in Integrated Open-Die Forging Plant'
p3914
sL647L
S'Path Planning in Topologically Evolving Planar Environments'
p3915
sL648L
S'An Application of Shape Grammars to Planning for CNC Machining'
p3916
sL649L
S'Design Language for Airplane Geometries Using the Unified Modeling Language'
p3917
sL650L
S'Recognizing Network-Like Hand-Drawn Sketches: A Convolutional Neural Network Approach'
p3918
sL651L
S'Learning Geometric Design Knowledge From Conceptual Sketches and Its Utilization in Shape Creation and Optimization'
p3919
sL652L
S'A Text Understanding Interface for Physical System Modeling and Simulation'
p3920
sL653L
S'Performance Comparison of Metamodeling Methods From the Perspective of Sample Quality Merits'
p3921
sL654L
S'Response Surface Algorithms for Engine Mount Optimization in Motorcycles'
p3922
sL655L
S'Development of Adaptive RBF-HDMR Model for Approximating High Dimensional Problems'
p3923
sL656L
S'Conservative Prediction via Safety Margin: Design Through Cross-Validation and Benefits of Multiple Surrogates'
p3924
sL657L
S'Hybrid and Adaptive Metamodel Based Global Optimization'
p3925
sL658L
S'Ensemble of Meta-Models Based on Local Error Measure Using Cross-Validation'
p3926
sL659L
S'Empirical Similarity Analysis Using Adaptive Trigonometric Functions'
p3927
sL660L
S'Valuable Theoretical Lessons Learned From the Application of Metamodels to a Variety of Industrial Problems'
p3928
sL661L
S'Design of Honeycomb Meta-Materials for High Shear Flexure'
p3929
sL662L
S'Optimal Design of a 3-DOF Parallel Micromanipulator'
p3930
sL663L
S'Interval Uncertainty Reduction and Single-Disciplinary Sensitivity Analysis With Multi-Objective Optimization'
p3931
sL664L
S'Design Improvement by Sensitivity Analysis (DISA) Under Interval Uncertainty Using Multi-Objective Optimization'
p3932
sL666L
S'A Comparison of Metamodel-Assisted Pre-Screening Criteria for Multi-Objective Genetic Algorithms'
p3933
sL667L
S'Analysis of Avoided Carbon-Dioxide Due to Photovoltaic and Wind Turbine Technologies Displacing Electrical Peaking Facilities'
p3934
sL668L
S'A Structural Optimization Method for Universal Design of Compliant Mechanism Scissors'
p3935
sL669L
S'Integrated Optimization for Supporting Functional and Layout Designs During Conceptual Design Phase'
p3936
sL670L
S'Simulation and Optimization of the Water-Jet Cleaning Process'
p3937
sL671L
S'Optimal Plug-in Hybrid Electric Vehicle Design and Allocation for Diverse Charging Patterns'
p3938
sL672L
S'Customer-Centric Product Modeling for Rapid Product Identification in One-of-a-Kind Production'
p3939
sL673L
S'Designing Product Families With Competition: A Design for Market Systems Approach'
p3940
sL674L
S'Automated Design of an Industrial Robot Family'
p3941
sL675L
S'A Design Method for Developing a Universal Product Family in a Dynamic Market Environment'
p3942
sL676L
S'Analysis of Product Flexibility for Future Evolution Based on Design Guidelines and a High-Definition Design Structure Matrix'
p3943
sL677L
S'Product Modular Design Using Atomic Theory'
p3944
sL678L
S'Shape Commonalization to Develop Common Platform for Product Family'
p3945
sL679L
S'Product Platform Selection in Lower-Dimensional Manifold Spaces'
p3946
sL680L
S'Are We There Yet? Investigating the Role of Design Process Architecture in Convergence Time'
p3947
sL681L
S'A Context-Aware Information Model for Elderly Homecare Services in a Smart Home'
p3948
sL682L
S'A Strategic Platform Design Method for Developing Customized Families of Services'
p3949
sL683L
S'Optimization of Tool Handle Shape for a Target User Population'
p3950
sL684L
S'Requirement Analysis and Negotiation for Feasible Service Development'
p3951
sL685L
S'A Filter-Based Sample Average SQP for Optimization Problems With Highly Nonlinear Probabilistic Constraints'
p3952
sL686L
S'Probabilistic Analysis of Manufacturing Uncertainty in Turbine Blades'
p3953
sL687L
S'Variation Analysis of Position, Velocity, and Acceleration of Two-Dimensional Mechanisms by the Direct Linearization Method'
p3954
sL688L
S'Robustness of Residual Stresses in Castings and an Improved Process Window'
p3955
sL689L
S'Reliable Design Optimization Under Aleatory and Epistemic Uncertainties'
p3956
sL690L
S'Design for Lifecycle Cost Using Time-Dependent Reliability'
p3957
sL691L
S'Reliability-Based Design Optimization With Confidence Level Under Input Model Uncertainty'
p3958
sL692L
S'Comparison Study Between Probabilistic and Possibilistic Approach for Problems With Correlated Input and Lack of Input Statistical Information'
p3959
sL693L
S'A Simulation-Based RBDO Method Using Probabilistic Re-Analysis and a Trust Region Approach'
p3960
sL694L
S'Designing MEMS Disk Resonator Based Biological Mass Sensors Under Fabrication Uncertainty'
p3961
sL695L
S'Response Surface Method Using Sequential Sampling for Reliability-Based Design Optimization'
p3962
sL696L
S'Reliability-Based Design Optimization Using Enhanced Dimension Reduction Method With Variable Sampling Points'
p3963
sL697L
S'Improving Multi-Objective Robust Optimization Under Interval Uncertainty Using Worst Possible Point Constraint Cuts'
p3964
sL698L
S'A New Sparse Grid Based Method for Uncertainty Propagation'
p3965
sL699L
S'An Extended Hierarchical Statistical Sensitivity Analysis Method for Multilevel Systems With Shared Variables'
p3966
sL700L
S'A Hierarchical Model Validation of Predictive Models for Engineering Product Development'
p3967
sL701L
S'Adaptive-Sparse Polynomial Chaos Expansion for Reliability Analysis and Design of Complex Engineering Systems'
p3968
sL702L
S'A Modified Reliability Index Approach for Reliability-Based Design Optimization'
p3969
sL703L
S'Topology Optimization of Non-Linear Elastic Structures by Using SLP'
p3970
sL704L
S'Strain-Based Topology Optimization for Crashworthiness Using Hybrid Cellular Automata'
p3971
sL705L
S'Level Set-Based Topology Optimization Method for Thermal Problems Considering Design-Dependent Boundary Effects'
p3972
sL706L
S'Topology Optimization of Piezoelectric Energy Harvesting Strap Buckle'
p3973
sL707L
S'Level Set Based Robust Shape and Topology Optimization Under Random Field Uncertainties'
p3974
sL708L
S'Numerical Experiments in Using Voronoi Cell Finite Elements for Topology Optimization'
p3975
sL709L
S'Characterization and Performance Optimization of 2D Lattice Materials With Hexagonal Bravais Lattice Symmetry'
p3976
sL710L
S'Metrics-Based Approach for VR Technology Evaluation in Styling Product Design'
p3977
sL711L
S'Supporting Trade Space Exploration of Multi-Dimensional Data With Interactive Multi-Scale Nested Clustering and Aggregation'
p3978
sL712L
S'A Virtual Reality Interface for the Design of Compliant Mechanisms'
p3979
sL713L
S"A Preliminary Study of Novice and Expert Users' Decision-Making Procedures During Visual Trade Space Exploration"
p3980
sL714L
S'Development of a Haptic Modeling and Simulation System for Handheld Product Design and Evaluation'
p3981
sL715L
S'Automatically Generating Form Concepts According to Consumer Preference: A Shape Grammar Implementation With Software Agents'
p3982
sL716L
S'Evolutive Design of Car Silhouettes'
p3983
sL717L
S'Generative Design and CNC Fabrication Using Shape Grammars'
p3984
sL718L
S'Pultrusion Process Analysis Using Knowledge-Based System'
p3985
sL719L
S'Causal Design Knowledge Acquisition by Constructing BBN Through FCM'
p3986
sL720L
S'Rough Set-Based Design Rule Selection for Collaborative Assembly Design'
p3987
sL721L
S'Agent Based Variation Propagation for Collaborative Top-Down Assembly Design'
p3988
sL722L
S'Integrating Assembly Design, Sequence Optimization, and Advanced Path Planning'
p3989
sL723L
S'Assembly and Variety Considerations During Conceptual Design'
p3990
sL724L
S'A Review of Recent Phase Transition Simulation Methods: Transition Path Search'
p3991
sL725L
S'A Review of Recent Phase Transition Simulation Methods: Saddle Point Search'
p3992
sL726L
S'A Multiscale Design Approach With Random Field Representation of Material Uncertainty'
p3993
sL727L
S'Feature-Based Crystal Construction in Computer-Aided Nano-Design'
p3994
sL728L
S'An Approach to Automate Concept Generation of Sheet Metal Parts Based on Manufacturing Operations'
p3995
sL729L
S'Energy Characteristic State Model for Automated Conceptual Design of Hydraulic System'
p3996
sL730L
S'A Growth Design Approach for Tolerancing'
p3997
sL731L
S'Port-Based Ontology Modeling for Product Conceptual Design'
p3998
sL732L
S'Customizing Products Using Functional Component Matrices'
p3999
sL733L
S'Exploiting the Features of ISO GPS Standards to Enhance a Knowledge-Based Method for Product Redesign and Process Reconfiguration'
p4000
sL734L
S'Lagrangian Relaxation for Decentralized Decision Making in Engineering Design'
p4001
sL735L
S'Design Achievement Model for Planning Creative and Concurrent Design Process'
p4002
sL736L
S'Product Realization in the Age of Mass Collaboration'
p4003
sL737L
S'A Proposed Taxonomy for Physical Prototypes: Structure and Validation'
p4004
sL738L
S'An Effective Random Field Characterization for Probability Analysis and Design'
p4005
sL739L
S'Bayesian Reliability Analysis With Evolving, Insufficient, and Subjective Data Sets'
p4006
sL740L
S'Planning on Mistakes: An Approach to Incorporate Error Checking Into the Design Process'
p4007
sL741L
S'Development of a Probabilistic Model for Mechanistic Evaluation of Reliability of Oil Pipelines Subject to Corrosion-Fatigue Cracking'
p4008
sL743L
S'Relating Two Domains via a Third: An Approach to Overcome Ambiguous Attributions Using Multiple Domain Matrices'
p4009
sL744L
S'A Unified Framework for Decomposition of Design Structure Matrix and Domain Mapping Matrix'
p4010
sL745L
S'Towards Rules for Functional Composition'
p4011
sL746L
S'A Deterministic Lagrangian-Based Global Optimization Approach for Large Scale Decomposable Problems'
p4012
sL747L
S'A Structure-Based Approach to Measuring Adaptability of Product Design'
p4013
sL748L
S'Transformation Facilitators: A Quantitative Analysis of Reconfigurable Products and Their Characteristics'
p4014
sL749L
S'Towards Adaptable Architecture'
p4015
sL750L
S'Should Designers Worry About Market Systems?'
p4016
sL751L
S'A Pareto Approach to Aligning Public and Private Objectives in Vehicle Design'
p4017
sL752L
S'Optimal Product Design Under Price Competition'
p4018
sL753L
S'Multi-Category Design of Bundled Products for Retail Channels Considering Demand Uncertainty and Competition'
p4019
sL754L
S'Optimal Experimental Design of Human Appraisals for Modeling Consumer Preferences in Engineering Design'
p4020
sL756L
S"Elicitation and Modeling of Customers' Preferences in Industrial Design: A Comparative Study on Vehicle Front End"
p4021
sL757L
S'Choice Model Specification in Market-Based Engineering Design'
p4022
sL758L
S'Establishing Correspondence Between Value Functions Used in Market-Based Engineering Design'
p4023
sL759L
S'Fuzzy Controlled Hooke-Jeeves Optimization Search Algorithm'
p4024
sL760L
S'Evolutionary Multi-Agent Systems: An Adaptive Approach to Optimization in Dynamic Environments'
p4025
sL761L
S'Incorporating Twinkling in Genetic Algorithms for Global Optimization'
p4026
sL762L
S'Evaluating the Performance of Visual Steering Commands for User-Guided Pareto Frontier Sampling During Trade Space Exploration'
p4027
sL763L
S'Improving the Performance of Visual Steering Commands for Multi-Dimensional Trade Space Exploration'
p4028
sL764L
S'Finite Element Model Updating Approach to Damage Identification in Beams Using Particle Swarm Optimization'
p4029
sL765L
S'Enhanced Multi-Agent Normal Sampling Technique for Global Optimization'
p4030
sL766L
S'A Fast and Efficient Compact Packing Algorithm for Free-Form Objects'
p4031
sL767L
S'Analytical Robust Design of Mechanical Systems'
p4032
sL768L
S'Modeling Variability in Torso Shape for Chair and Seat Design'
p4033
sL769L
S'A General Approach to Robustness Assessment for Multidisciplinary Systems'
p4034
sL770L
S'Predicting 5th and 95th Percentile Anthropometric Segment Lengths From Population Stature'
p4035
sL771L
S'An Integrated Process Planning System Architecture for Machining and On-Machine Inspection'
p4036
sL772L
S'Direct 3D Layer Metal Deposition and Toolpath Generation'
p4037
sL773L
S'A Method and Software Prototype to Support On-Line Planning on CNC Machines'
p4038
sL774L
S'Locating Precision of Fit Datums'
p4039
sL775L
S'Identifying Feature Handles of Freeform Shapes'
p4040
sL777L
S'Contact Analysis Between a Moving Solid and the Boundary of Its Swept Volume'
p4041
sL779L
S'A Hybrid Models Deformation Tool for Free-Form Shapes Manipulation'
p4042
sL780L
S'Interval Extensions of Signed Distance Functions: Uniform Samplings and the Range of Associated Implicit Objects'
p4043
sL781L
S'Shape Optimization of a Camoid Follower Surface'
p4044
sL782L
S'Euclidean Symmetry Detection From Scanned Meshes Based on a Combination of ICP and Region Growing Algorithms'
p4045
sL784L
S'A Measure of the Information Loss for Inspection Point Reduction'
p4046
sL785L
S'A Comparison of Virtual Condition Cylinder Evaluation Methods in Coordinate Metrology'
p4047
sL786L
S'A Subdivision Scheme for Discrete Motion Generation and Swept Volume Analysis'
p4048
sL787L
S'Novel Design of a 3-DOF Parallel Manipulator for Materials Handling'
p4049
sL788L
S'Benefit Evaluation for Manufacturing of Marine Propellers'
p4050
sL789L
S'An Industrial Trial of a Set-Based Approach to Collaborative Design'
p4051
sL790L
S'A Finite Element Approach for the Implementation of Magnetostrictive Material Terfenol-D in CNG Fuel Injection Actuation'
p4052
sL791L
S'Parametric Modeling and Optimization of Chemical Vapor Deposition Process'
p4053
sL792L
S'Optimization Design of a Spatial Six-Degree-of-Freedom Parallel Manipulator Based on Genetic Algorithms and Neural Networks'
p4054
sL793L
S'Optimal Kinematics Design of an Industrial Robot Family'
p4055
sL794L
S'Topology and Dimensional Synthesis of Linkage Mechanism Based on the Constrained Superposition Method'
p4056
sL795L
S'Genetic Programming of an Artificial Neural Network for Robust Control of a 2-D Path Following Robot'
p4057
sL796L
S'Decision Support for Strategic Redesign'
p4058
sL797L
S'Designing Embodiment Design Processes Using a Value-of-Information-Based Approach With Applications for Integrated Product and Materials Design'
p4059
sL798L
S'Knowledge Management for Fault Tree Analysis Based on Quantity Dimension Indexing'
p4060
sL799L
S'Using Multiple Surrogates for Minimization of the RMS Error in Meta-Modeling'
p4061
sL800L
S'Optimization of Engine Torque Management Under Uncertainty for Vehicle Driveline Clunk Using Time-Dependent Metamodels'
p4062
sL801L
S'A Practical Robust and Efficient RBF Metamodel Method for Typical Engineering Problems'
p4063
sL802L
S'A Study of Covariance Functions for Multi-Response Metamodeling for Simulation-Based Design and Optimization'
p4064
sL803L
S'A Sequential Linearization Technique for Analytical Target Cascading'
p4065
sL804L
S'Parallel Implementation of Particle Swarm Optimization (PSO) Through Digital Pheromone Sharing'
p4066
sL805L
S'Consistency Constraint Allocation in Augmented Lagrangian Coordination'
p4067
sL806L
S'Enhanced Collaborative Optimization: A Decomposition-Based Method for Multidisciplinary Design'
p4068
sL807L
S'Multiobjective Optimization Method for Lifecycle Design of Machine Products'
p4069
sL808L
S'Fundamental Strategies for System Optimization of Machine Product Designs'
p4070
sL809L
S'Multi-Objective Optimization of Product Configuration'
p4071
sL810L
S'Plug-In Hybrid Vehicle Simulation: How Battery Weight and Charging Patterns Impact Cost, Fuel Consumption, and CO2 Emissions'
p4072
sL811L
S'Heat Compensation in Buildings Using Thermoelectric Windows: An Energy Efficient Window Technology'
p4073
sL812L
S'The Application of Product Platform Design to the Reuse of Electronic Components Subject to Long-Term Supply Chain Disruptions'
p4074
sL813L
S'Product Family Commonality Selection Through Interactive Visualization'
p4075
sL814L
S'Assessing Functional and Shape Differentiation Within a Family of Products'
p4076
sL815L
S'Product Family Design: Strategic Principles to Choose Between Product-Driven and Platform-Driven Processes'
p4077
sL816L
S'Improving Cost Effectiveness in an Existing Product Line Using Component Product Platforms'
p4078
sL817L
S'Focused Product Family Improvement'
p4079
sL818L
S'A Strategic Module-Based Platform Design Method for Developing Customized Products in Dynamic and Uncertain Market Environments'
p4080
sL819L
S'Functional Part Families and Design Change for Mechanical Assemblies'
p4081
sL820L
S'Optimal Design of Product Family Throughout Commonalization, Customization and Lineup Arrangement'
p4082
sL821L
S'An Efficient Re-Analysis Methodology for Probabilistic Vibration of Large-Scale Structures'
p4083
sL822L
S'Uncertainty Analysis of Damage Evolution Computed Through Microstructure-Property Relations'
p4084
sL823L
S'Reliability-Based Shape Optimization of a Pressure Tank Under Random and Stochastic Environments'
p4085
sL824L
S'Sensitivity Analyses of FORM-Based and DRM-Based Performance Measure Approach for Reliability-Based Design Optimization'
p4086
sL825L
S'Selection of Copula to Generate Input Joint CDF for RBDO'
p4087
sL826L
S'Topology Optimization for Steady-State Heat Transfer Problems Including Design-Dependent Effects'
p4088
sL828L
S'Topology Optimization of Multiple Parts in Dynamic Controlled Systems'
p4089
sL829L
S'An Improved Initial Population Strategy for Compliant Mechanism Designs Using Evolutionary Optimization'
p4090
sL830L
S'On Pattern Recognition in Rule-Based Topology Modification'
p4091
sL831L
S'Topology Optimization of a MEMS Resonator Using Hybrid Fuzzy Techniques'
p4092
sL832L
S'Topology Optimization of Poroelastic Structures to Minimize Mean Sound Pressure Levels'
p4093
sL833L
S'Design of Compliant Thermal Actuators Using Structural Optimization Based on the Level Set Method'
p4094
sL834L
S'Design Automation Tools as a Support for Knowledge Management in Topology Optimization'
p4095
sL836L
S'Topology Synthesis of Multi-Component Structural Assemblies in Continuum Domains'
p4096
sL837L
S'Layer Separation for Optimization of Composite Laminates'
p4097
sL838L
S'Model Validation and Error Modeling to Support Sequential Sampling'
p4098
sL839L
S'Regression Modeling for Computer Model Validation With Functional Responses'
p4099
sL840L
S'A Comprehensive Metric for Comparing Time Histories in Validation of Simulation Models With Emphasis on Vehicle Safety Applications'
p4100
sL841L
S'Overlapped Grouping Genetic Algorithm for Optimization of Reels Cutting Planning Problems'
p4101
sL842L
S'A Perspective of Hierarchical Layout Design Optimization for Highly Packaged Equipments'
p4102
sL843L
S'A Genetic Algorithm Based Procedure for Extracting Optimal Solutions From a Morphological Chart'
p4103
sL845L
S'A Variable Fidelity Model Management Framework for Multiscale Computational Design of Continuous Fiber SiC-Si3N4 Ceramic Composites'
p4104
sL846L
S'Topology Optimization for Synthesizing Extrusion Based Nonlinear Transient Designs'
p4105
sL847L
S'An Intelligent and Efficient Tree Search Algorithm for Computer-Aided Component Selection'
p4106
sL848L
S'A Graph Grammar Approach to Generate Neural Network Topologies'
p4107
sL849L
S'A Learning Algorithm for Optimal Internal Combustion Engine Calibration in Real Time'
p4108
sL850L
S'A Simplified Systematic Method of Acquiring Design Specifications From Customer Requirements'
p4109
sL851L
S'Towards a Reference Ontology for Functional Knowledge Interoperability'
p4110
sL852L
S'Fuzzy Analytical Hierarchy Process-Based Assembly Unit Partition for Complex Products'
p4111
sL853L
S'PDM Implementation in Indian Industries: An Impact Study on Technology Adoption'
p4112
sL854L
S'A Framework for Collaborative Top-Down Assembly Design'
p4113
sL855L
S'A Design Strategy for Collaborative Decision Making in a Distributed Environment'
p4114
sL856L
S'An Approach to Improved Decentralized Design: The Modified Approximation-Based Decentralized Design (MADD) Framework'
p4115
sL857L
S'Design Optimization of a Laptop Computer Using Aggregate and Mixed Logit Demand Models With Consumer Survey Data'
p4116
sL858L
S'A Game-Theoretic Approach to Finding Market Equilibria for Automotive Design Under Environmental Regulation'
p4117
sL859L
S'Measurement of Headlight Form Preference Using a Choice Based Conjoint Analysis'
p4118
sL860L
S'Conjoint-HoQ: A Quantitative Methodology for Consumer-Driven Design'
p4119
sL861L
S'Preference Inconsistency in Multidisciplinary Design Decision Making'
p4120
sL862L
S'Theoretical Design and Control Analysis of Reconfigurable Parallel Kinematic Machine Tools'
p4121
sL863L
S'Design for Product Adaptability'
p4122
sL864L
S'Flexible and Reconfigurable Systems: Nomenclature and Review'
p4123
sL865L
S'Adaptive Complex Method for Efficient Design Optimization'
p4124
sL866L
S'Approximated Unimodal Region Elimination Based Global Optimization Method for Engineering Design'
p4125
sL867L
S'Bayesian Analysis of Adaptive One-Factor-at-a-Time Experimentation'
p4126
sL868L
S'Multi Agent Normal Sampling Technique (MANST) for Global Optimization'
p4127
sL869L
S'Non-Dominated Sorting Genetic Quantum Algorithm for Multi-Objective Optimization'
p4128
sL870L
S'Optimization of a Vehicle Space Frame Under Ballistic Impact Loading'
p4129
sL871L
S'Optimization of Bicycle Frames Using Genetic Algorithms'
p4130
sL872L
S'Generalization of Topological Sensitivity and Its Application to Defeaturing'
p4131
sL873L
S'A Hybrid Method for Surrogate Model Updating in Engineering Design Optimization'
p4132
sL874L
S'Pseudo-Hierarchical Multistage Model for System of Systems Design and Operations'
p4133
sL875L
S'Finite Element Analysis Applied to Ergonomic Design of 2-Piece Aluminum Beverage Cans and Bottles'
p4134
sL876L
S'Including Preference in Anthropometry-Driven Models for Design'
p4135
sL877L
S'Evaluation Method of Drinking Ease for Aluminum Beverage Bottles'
p4136
sL878L
S'Adaptive Deposition Coverage Toolpath Planning for Metal Deposition Process'
p4137
sL879L
S'Automated Synthesis of MEMS Fabrication Sequences Using Graph Grammars'
p4138
sL880L
S'Adaptive Slicing of Moving Least Squares Surfaces: Toward Direct Manufacturing of Point Set Surfaces'
p4139
sL881L
S'Product Reverse Engineering Based on Growth Design Process'
p4140
sL882L
S'High Performance Dirichlet Parametrization Through Triangular Bezier Surface Interpolation for Deformation of CAE Meshes'
p4141
sL883L
S'Curve Shape Modification and Fairness Evaluation'
p4142
sL884L
S'Application of Interactive Deformation to Assembled Mesh Models for CAE Analysis'
p4143
sL885L
S'Pre-Programmed Failure Behavior Using Biology-Inspired Structures'
p4144
sL886L
S'Finding All Undercut-Free Parting Directions for Solids of Revolution'
p4145
sL887L
S'Wavelet SDF-Reps: Solid Modeling With Volumetric Scans'
p4146
sL888L
S'Matching Geometric Shapes in 4D Space Incorporating Curvature Information'
p4147
sL889L
S'Motion-Based Shape Deformation of Solid Models'
p4148
sL890L
S'A Point Membership Classification for Sweeping Solids'
p4149
sL891L
S'Quasi-Optimal Mesh Segmentation Via Region Growing/Merging'
p4150
sL892L
S'Development of Validation Metrics for Vehicle Frontal Impact Simulation'
p4151
sL894L
S'A Development Methodology for Parametric Synthesis Tools'
p4152
sL895L
S'Incorporating Customer Preferences and Market Trends in Vehicle Package Design'
p4153
sL896L
S'A Case Study of Design Process and Development of a Design Enabling Tool for Wright Metal Products'
p4154
sL897L
S'A Process Model and Data Mining to Support Designing Families of Services'
p4155
sL898L
S'Quantity Dimension Indexing for Design Knowledge Management'
p4156
sL899L
S'Representation and Analysis Challenges in Design for Part-Reuse: An Automotive Case Study'
p4157
sL900L
S'Empirical Models for Non-Deterministic Simulation-Based Robust Design'
p4158
sL901L
S'Managing Design Process Complexity: A Value-of-Information Based Approach for Scale and Decision Decoupling'
p4159
sL902L
S'Q2S2: Merging Qualitative Information in Sequential DOE'
p4160
sL903L
S'Using Maximum Likelihood Estimation to Estimate Kriging Model Parameters'
p4161
sL904L
S'Reducing the Number of Variables in a Response Surface Approximation: Application to Thermal Design'
p4162
sL905L
S'Reduction of Non-Monomial Basis in the Dimensional Analysis of a Dynamical System'
p4163
sL906L
S'A New Variable Fidelity Optimization Framework Based on Model Fusion and Objective-Oriented Sequential Sampling'
p4164
sL907L
S'Optimal Partitioning and Coordination Decisions in Decomposition-Based Design Optimization'
p4165
sL908L
S'Multiobjective Collaborative Robust Optimization (McRO) With Interval Uncertainty and Interdisciplinary Uncertainty Propagation'
p4166
sL909L
S'Integrated Structure Decomposition, Optimization and Control Design'
p4167
sL910L
S'A Sequential Linear Programming Coordination Algorithm for Analytical Target Cascading'
p4168
sL911L
S'Diagonal Quadratic Approximation for Parallelization of Analytical Target Cascading'
p4169
sL912L
S'A Concept for a Material That Softens With Frequency'
p4170
sL913L
S'A Template-Based Approach for Multilevel Blast Resistant Panel Design'
p4171
sL914L
S'Predictive Carbon Nanotube Models Using the Eigenvector Dimension Reduction (EDR) Method'
p4172
sL915L
S'A Function-Based Approach for Integrated Design of Material and Product Concepts'
p4173
sL916L
S'A Dual Environment for 3D Modeling With User-Defined Free Form Features'
p4174
sL917L
S'Reverse Engineering of Geometric Surfaces Using Tabu Search Optimization Technique'
p4175
sL918L
S'Correspondences Matching on 3D Mesh Models'
p4176
sL919L
S'Procedural Design of Imprint Rolls for Fluid Pathway Fabrication'
p4177
sL920L
S'OAM+: An Assembly Data Model for Legacy Systems Engineering'
p4178
sL921L
S'Robust Product Design Optimization Method Using Hierarchical Representations of Characteristics'
p4179
sL922L
S'An Optimal Design Method for Reducing Brake Squeal in Disc Brake Systems'
p4180
sL923L
S'Cycle-Based Robot Drive Train Optimization Utilizing SVD Analysis'
p4181
sL924L
S'A Component Based Optimization Approach for Modular Robot Design'
p4182
sL925L
S'A Method for Benchmarking Product Family Design Alternatives'
p4183
sL926L
S'Recommending a Platform Leveraging Strategy Based on the Homogeneous or Heterogeneous Nature of a Product Line'
p4184
sL927L
S'Three Dimensional Design Structure Matrix With Cross-Module and Cross-Interface Analyses'
p4185
sL928L
S'A Product Platform Development Method Using QFD'
p4186
sL929L
S'A Customer-Driven Approach to One-of-a-Kind Product Design'
p4187
sL930L
S'Product Family Concept Generation and Validation Through Predictive Decision Tree Data Mining and Multi-Level Optimization'
p4188
sL931L
S'Robust Product Family Consolidation and Selection Using the Hypothetical Equivalents and Inequivalents Method'
p4189
sL932L
S'An Extension of the Commonality Index for Product Family Optimization'
p4190
sL933L
S'A Single-Stage Gradient-Based Approach for Solving the Joint Product Family Platform Selection and Design Problem Using Decomposition'
p4191
sL934L
S'An Investigation of the Impact of Assembly Sequencing on the Product Family Design Outcomes'
p4192
sL935L
S'Switchgear Component Commonality Design Method Considering Delivery Lead-Time and Inventory Level'
p4193
sL936L
S'Process Platform Formation for Product Families'
p4194
sL937L
S'Application of Product Platform Design for Engineered System'
p4195
sL938L
S'A Framework for Designing Balanced Product Platforms by Estimating Versatility of Components'
p4196
sL939L
S'Function Block Design to Enable Adaptive Job Shop Operations'
p4197
sL940L
S'Improving Confidence in Simulation-Based Design Through Error Functions'
p4198
sL941L
S'Interval Reliability Analysis'
p4199
sL942L
S'Evidence Theory-Based Reliability Analysis and Optimization in Engineering Design'
p4200
sL943L
S'Reliability Estimation for Time-Dependent Problems Using a Niching Genetic Algorithm'
p4201
sL944L
S'A Monte Carlo Reliability Assessment for Multiple Failure Region Problems Using Approximate Metamodels'
p4202
sL945L
S'Supervised Bayesian Models to Carry Out Kansei Engineering of Car Dashbaords'
p4203
sL946L
S'A New Inverse Reliability Analysis Method Using MPP-Based Dimension Reduction Method (DRM)'
p4204
sL947L
S'Reliability Based Design Optimization With Correlated Input Variables Using Copulas'
p4205
sL948L
S'Robust Design Concept in Possibility Theory and Optimization for System With Both Random and Fuzzy Input Variables'
p4206
sL949L
S'Updating Uncertainty Assessments: A Comparison of Statistical Approaches'
p4207
sL950L
S'Decision Making and Constraint Tradeoff Visualization for Design Under Uncertainty'
p4208
sL951L
S'Conservative Estimations of Reliability With Limited Sampling'
p4209
sL952L
S'Reliable Space Pursuing for RBDO With Black-Box Performance Functions'
p4210
sL953L
S'Bayesian Reliability Based Design Optimization Using Eigenvector Dimension Reduction (EDR) Method'
p4211
sL954L
S'A Hierarchical Statistical Sensitivity Analysis Method for Complex Engineering Systems'
p4212
sL955L
S'A Comparative Study of Uncertainty Propagation Methods for Black-Box Type Functions'
p4213
sL956L
S'Complementary Interaction Method (CIM) for System Reliability Analysis'
p4214
sL957L
S'Innovative Six Sigma Design Using the Eigenvector Dimension-Reduction (EDR) Method'
p4215
sL958L
S'Sensitivity-Free Approach for Reliability-Based Robust Design Optimization'
p4216
sL960L
S'Differential Evolution Applied to the Design of a Three-Dimensional Vehicular Structure'
p4217
sL961L
S'On Optimization of 2D Compliant Mechanisms Using Honeycomb Discretization With Material-Mask Overlay Strategy'
p4218
sL962L
S'Design of Piezoelectric Actuator With In-Plane Motion Using Topology Optimization'
p4219
sL963L
S'Indirect Encoding of Structures for Evolutionary Design'
p4220
sL964L
S'Interactive Mesh-Free Stress Analysis for Mechanical Design Assembly With Haptics'
p4221
sL965L
S'Visual Steering Commands for Trade Space Exploration: User-Guided Sampling With Example'
p4222
sL966L
S'Virtual Reality Systems: A Method to Evaluate the Applicability Based on the Design Context'
p4223
sL967L
S'Representing Historically Based Component-Function Relationships Through Design Templates'
p4224
sL968L
S'Immersive Product Configurator for Conceptual Design'
p4225
sL969L
S'Pattern-Based Reasoning in Critical Parameter Management (CPM) for Rapid Redesign'
p4226
sL970L
S'Topological Synthesis of Shell Structures'
p4227
sL971L
S'Growth Design Modeling'
p4228
sL972L
S'Fuzzy Preference Evaluation for Hierarchical Co-Evolutionary Design Concept Generation'
p4229
sL973L
S'Application of a Genetic Algorithm to Concept Variant Selection'
p4230
sL974L
S'A Hybrid Method for Parametric Conceptual Vehicle Design Using Legacy Components and Parametric Surfaces'
p4231
sL975L
S'Exploiting Shape Similarity in Engineering Analysis'
p4232
sL976L
S'Issues of Similarity in Engineering Design'
p4233
sL977L
S'Enabling Local Risk Assessment to Support Global Collaboration in a Distributed Environment'
p4234
sL978L
S'Enhanced Convergence in Distributed Design Processes'
p4235
sL979L
S'Investigating Different Approaches for Front-Loading Problem Solving in Product Development: Evidence From Engine Engineering'
p4236
sL980L
S'Case Study Instrument Development for Studying Collaborative Design'
p4237
sL981L
S'Topology and Classical Shape Optimization of a Lower Control Arm: A Case Study'
p4238
sL982L
S'Improved Head Restraint Design for Safety and Compliance'
p4239
sL983L
S'An Efficient Algorithm for Vehicle Crashworthiness Design Via Crash Mode Matching'
p4240
sL984L
S'Crashworthiness Design Using a Hybrid Cellular Automaton Algorithm'
p4241
sL985L
S'Preliminary Results on Generating Assembly Sequences for Shape Display'
p4242
sL986L
S'Process Planning Support System Considering Product Quality'
p4243
sL987L
S'Optimum Disassembly Process With Genetic Algorithms for a Compressor'
p4244
sL988L
S'Multiobjective Optimization for Integrated Tolerance Allocation and Fixture Layout Design in Multistation Assembly'
p4245
sL989L
S'Visibility for Determining the Rotational Axis CNC Rapid Prototyping and Rapid Manufacturing'
p4246
sL990L
S'Stereolithography Mock-Up With Internal Camera for Automatic Usability Data Acquisition and Functional Simulation'
p4247
sL991L
S'Determine Mesh Orientation by Voxel-Based Principal Component Analysis'
p4248
sL992L
S'Introducing Hierarchical Particle Swarm Optimization to Optimal Part Orientation in Fused Deposition Modeling'
p4249
sL993L
S'High Accuracy Laser Scanned View Registration Method for Reverse Engineering Using a CMM Generated CAD Model'
p4250
sL994L
S'Using Tolerance-Maps to Generate Frequency Distributions of Clearance for Pin-Hole Assemblies'
p4251
sL995L
S'Semantic Tolerance Modeling'
p4252
sL996L
S'Geometric Construction of Piecewise Line-Symmetric Spherical Motions Using Quaternion Biarcs'
p4253
sL997L
S'Aeronautical Planar Flank Milling Automation: Computing the G-Zones'
p4254
sL998L
S'Aerodynamic Shape Optimization and Knowledge Mining of Centrifugal Fans Using Simulated Annealing Coupled With a Neural Network'
p4255
sL999L
S'Optimal Tolerance Allocation of Automotive Pneumatic Control Valves Based on Product and Process Simulations'
p4256
sL1000L
S'Optimization of Chemical Vapor Deposition Process'
p4257
sL1001L
S'Data Mining and Fuzzy Clustering to Support Product Family Design'
p4258
sL1002L
S'Knowledge Model for Managing Product Variety and Its Reflective Design Process'
p4259
sL1003L
S'Design Information Support Tool (DIST): Its Development and Effectiveness Investigation'
p4260
sL1004L
S'Automating Redesign of Sheet-Metal Parts in Automotive Industry Using KBE and CBR'
p4261
sL1005L
S'Verve: A General Purpose Open Source Reinforcement Learning Toolkit'
p4262
sL1006L
S'Augmenting Tools for Reverse Engineering Methods'
p4263
sL1007L
S'Qualitative and Quantitative Sequential Sampling'
p4264
sL1008L
S'On Adaptive Sampling for Single and Multi-Response Bayesian Surrogate Models'
p4265
sL1009L
S'A Kriging Metamodel Assisted Multi-Objective Genetic Algorithm for Design Optimization'
p4266
sL1010L
S'Review of Metamodeling Techniques in Support of Engineering Design Optimization'
p4267
sL1012L
S'An Improved Genetic Algorithm for the Optimization of Composite Structures'
p4268
sL1013L
S'Surrogate Model Updating Using Clustering in a Genetic Algorithm Setup'
p4269
sL1014L
S'Exploration in the Preliminary Mechanical Design of Trade-Offs Between Automotive Architectural Constraints and Aggregate Noise Performances'
p4270
sL1015L
S'Heterogeneous Design Optimization From the Microstructure'
p4271
sL1016L
S'Parametric Structural Shape and Topology Optimization Method With Radial Basis Functions and Level-Set Method'
p4272
sL1017L
S'FEA-Based Design of Heterogeneous Objects'
p4273
sL1018L
S'Material Property Identification and Sensitivity Analysis Using Indentation and FEM'
p4274
sL1019L
S'Topology Optimization of Micromachined Structures With Surface Micromachining Manufacturing Constraints'
p4275
sL1020L
S'Multifunctional Topology Design of Cellular Material Structures'
p4276
sL1021L
S'Designing Design Processes for Integrated Materials and Products Realization: A Multifunctional Energetic Structural Material Example'
p4277
sL1022L
S'Exploring the Advantages of Materials Design in a Product Design Process'
p4278
sL1023L
S'Free-Form Feature Representation and Comparison'
p4279
sL1024L
S'Parametric Solid Modeling'
p4280
sL1025L
S'Poisson Based Reuse of Freeform Features'
p4281
sL1026L
S'Parametric and Topological Control in Shape Optimization'
p4282
sL1027L
S'Topology Synthesis and Classification of Low-Mobility Parallel Mechanisms'
p4283
sL1028L
S'Coupling Degree of Mechanism and Its Application'
p4284
sL1029L
S'A Survey of Various Encoding Schemes and Associated Placement Algorithms Applied to Packing and Layout Problems'
p4285
sL1030L
S'Vehicle Component Layout With Shape Morphing: An Initial Study'
p4286
sL1031L
S'Simultaneous Geometry Optimization and Material Selection for Truss Structures'
p4287
sL1032L
S'A Two-Stage Design Method for Compliant Mechanisms Having Specified Non-Linear Output Paths'
p4288
sL1033L
S'A Multicriteria System-Based Method for Simulation-Driven Design Synthesis'
p4289
sL1034L
S'Design and Verification of a New Computer Controlled Seating Buck'
p4290
sL1035L
S'An Efficient Method for Detecting Packaging Supporting Space'
p4291
sL1036L
S'Topology Optimization Considering Gravitational and Centrifugal Forces'
p4292
sL1037L
S'BB-ATC: Analytical Target Cascading Using Branch and Bound for Mixed-Integer Nonlinear Programming'
p4293
sL1038L
S'Applying the Mahalanobis-Taguchi System to Vehicle Handling'
p4294
sL1039L
S'Model-Based Decomposition Using Non-Binary Dependency Analysis and Heuristic Partitioning Analysis'
p4295
sL1040L
S'Product Optimization Incorporating Discrete Design Variables Based on Decomposition of Performance Characteristics'
p4296
sL1041L
S'Development of Distributed Computing Framework for Parallel Multi-Disciplinary Optimization'
p4297
sL1042L
S'Ontologies for Supporting Engineering Design Optimization'
p4298
sL1043L
S'Two-Stage System of Systems Model by Linking System Design With Resource Allocation'
p4299
sL1044L
S'Optimization of a PEM Fuel Cell System for Low-Speed Hybrid Electric Vehicles'
p4300
sL1045L
S"A Multidisciplinary and Multiobjective System Analysis and Optimization Methodology for Embedding Integrated Systems Health Management (ISHM) Into NASA's Complex Systems"
p4301
sL1046L
S'Flexible Product Platforms: Framework and Case Study'
p4302
sL1048L
S'Platform-Based Design and Development: Current Trends and Needs in Industry'
p4303
sL1049L
S'Two Methodologies for Identifying Product Platform Elements Within an Existing Set of Products'
p4304
sL1050L
S'A Comprehensive Metric for Evaluating Component Commonality in a Product Family'
p4305
sL1052L
S'Towards a Suite of Problems for Comparison of Product Platform Design Methods: A Proposed Classification'
p4306
sL1053L
S'Selection-Integrated Optimization (SIO) Methodology for Optimal Design of Adaptive Systems'
p4307
sL1054L
S'A Method to Improve Platform Leveraging in a Market Segmentation Grid for an Existing Product Line'
p4308
sL1055L
S'An Enhanced Change Modes and Effects Analysis (CMEA) Tool for Measuring Product Flexibility With Applications to Consumer Products'
p4309
sL1056L
S'Determination of Ranged Sets of Design Specifications by Incorporating Heterogeneous Design Capability Information'
p4310
sL1057L
S'Assessing and Improving Commonality and Diversity Within a Product Family'
p4311
sL1058L
S'Assessing and Increasing Product and Family Differentiation in the Market'
p4312
sL1059L
S'Module Interface Representation'
p4313
sL1060L
S'Product Platform Problem Taxonomy: Classification and Identification of Benchmark Problems'
p4314
sL1061L
S'Adapted Concept Generation and Computational Techniques for the Application of a Transformer Design Theory'
p4315
sL1062L
S'2-D Deposition Pattern and Strategy Study on Rapid Manufacturing'
p4316
sL1063L
S'Ruled Layer Generation Between Two Freeform Curves by Normal and Distance Matching'
p4317
sL1064L
S'Spiral-Like Path Planning Without Gap for Material Deposition Processes'
p4318
sL1065L
S'Fast Layered Manufacturing Support Volume Computation on GPUs'
p4319
sL1066L
S'A Sensitivity Analysis of Shot Peening Parameters'
p4320
sL1067L
S'Reliability-Based Design Using Saddlepoint Approximation'
p4321
sL1068L
S'Uncertainty Analysis With Probability and Evidence Theories'
p4322
sL1069L
S'Engineering Product Design Optimization for Retail Channel Acceptance'
p4323
sL1070L
S'A Comparison of Probability Bounds Analysis and Sensitivity Analysis in Environmentally Benign Design and Manufacture'
p4324
sL1071L
S'A Sequential Algorithm for Possibility-Based Design Optimization'
p4325
sL1072L
S'Numerical Methods for Propagating Imprecise Uncertainty'
p4326
sL1073L
S'A Single-Loop Approach for System Reliability-Based Design Optimization'
p4327
sL1074L
S'Robust Design of Compressor Blades Against Manufacturing Variations'
p4328
sL1075L
S'The Risk in Early Design (RED) Method: Likelihood and Consequence Formulations'
p4329
sL1076L
S'Optimal Design With Non-Normally Distributed Random Parameters, Conditional Probability, and Joint Constraint Reliabilities: A Case Study in Vehicle Emissions Regulations to Achieve Ambient Air Quality Standards'
p4330
sL1077L
S'Simulation Model Refinement for Decision Making Via a Value-of-Information Based Metric'
p4331
sL1078L
S'A Bayesian Approach to Reliability-Based Optimization With Incomplete Information'
p4332
sL1079L
S'Modeling Implications in Simulation-Based Design of Stents'
p4333
sL1080L
S'Understanding the Effects of Model Uncertainty in Robust Design With Computer Experiments'
p4334
sL1081L
S'A Function-Based Methodology for Analyzing Critical Events'
p4335
sL1082L
S'Some Metrics and a Bayesian Procedure for Validating Predictive Models in Engineering Design'
p4336
sL1083L
S'Multi-Disciplinary Conceptual Modeling and Optimization With Uncertainty Effects Consideration'
p4337
sL1084L
S'An Inverse Analysis Method for Design Optimization With Both Statistical and Fuzzy Uncertainties'
p4338
sL1085L
S'Alternative Methods for Reliability-Based Robust Design Optimization Including Dimension Reduction Method'
p4339
sL1086L
S'INSIDES: A New Design and Simulation Platform for Virtual Prototyping in Automotive and Aerospace Industry'
p4340
sL1087L
S'Development of Evaluation System for Style Design Using Mixed Reality Technology'
p4341
sL1088L
S'A Graphical Modeling Environment for Configuring Modular Product Families and Platforms'
p4342
sL1089L
S'Visual Representations as an Aid to Concept Generation'
p4343
sL1090L
S'Style Design Method Based on Form Impressions'
p4344
sL1091L
S'Automated Concept Generation: A Co-Evolutionary Approach'
p4345
sL1092L
S'Knowledge Sharing Between Designers and Accidentologists for the Development of Road Safety Systems'
p4346
sL1093L
S'A Method for Inferring Design Rules With Explicit Bounds of Applicability'
p4347
sL1094L
S'Using Q-Learning and Genetic Algorithms to Improve the Efficiency of Weight Adjustments for Optimal Control and Design Problems'
p4348
sL1095L
S'A Web-Enabled Engineering Object Modeling Environment to Support Interoperability and Intelligent Services in Collaborative Design'
p4349
sL1096L
S'Handling Multiple Objectives in Decentralized Design'
p4350
sL1097L
S'Facilitating Collaborative Design: A Review on Design Representations and Workstations'
p4351
sL1098L
S'Acquisition of Product Design Guidelines Considering User Kansei Data Pertaining to Product Environments'
p4352
sL1099L
S'Computational Methods Applied to Modelica Simulation Models in a Web Based Framework'
p4353
sL1100L
S'Evaluation of Modular Design Concepts of Complex Mechatronic Systems'
p4354
sL1101L
S'Modeling of Evolutionary Design Database'
p4355
sL1102L
S'On Performance Enhancement of Parallel Kinematic Machine'
p4356
sL1103L
S'An Information Theoretical Perspective on Performance, Refinement and Cost'
p4357
sL1104L
S'A Graph-Based Method for Mechanical Product Family Modeling and Functional Tolerancing'
p4358
sL1105L
S'A Cost Based Methodology for Design Optimization'
p4359
sL1106L
S'Can a House Without a Foundation Support Design?'
p4360
sL1107L
S'A Decision Support Formulation for Design Teams: A Study in Preference Aggregation and Handling Unequal Group Members'
p4361
sL1108L
S'Manufacturing Investment and Allocation in Product Line Design Decision-Making'
p4362
sL1109L
S'An Optimization Based Methodology to Design Flexible Systems Subjected to Changing Operating Conditions'
p4363
sL1110L
S'A Conceptual Design Tool With Error Warning'
p4364
sL1111L
S'Analyzing Accidents of Jamming Body Parts in Doors'
p4365
sL1112L
S'Organizational Applications of Failure Knowledge Management'
p4366
sL1113L
S'Development of a Robust Design Process Using a New Robustness Index'
p4367
sL1114L
S'On Providing Formal Manufacturability Information to Upstream Product Development Processes: Methodology and Case Study'
p4368
sL1115L
S'Modeling of Non-Linear Relations Among Different Design Evaluation Measures for Multi-Objective Design Optimization'
p4369
sL1116L
S'On the Impact of Coupling Strength on Complex System Optimization for Single-Level Formulations'
p4370
sL1117L
S'Feasibility Assessment in Preliminary Design Using Pareto Sets'
p4371
sL1118L
S'PSO Driven Genetic Range Genetic Algorithms'
p4372
sL1119L
S'Methods for Discrete Design Optimization'
p4373
sL1120L
S'Design Optimization by Integration of Evolutionary Search and Cumulative Approximation'
p4374
sL1121L
S'Twinkling a Random Search Algorithm for Design Optimization'
p4375
sL1122L
S'Pipe Route Design Using Variable Topography Distance Transforms'
p4376
sL1123L
S'Heuristic Gradient Projection for 3D Space Frame Optimization'
p4377
sL1124L
S'Fuzzy Heuristic Gradient Projection for Frame Topology Optimization'
p4378
sL1125L
S'Faster Generation of Feasible Design Points'
p4379
sL1126L
S'Methodology to Reach Optimal Design of CHP Plants'
p4380
sL1127L
S'A Comparison of Optimized Stacked-Ply Flywheel Designs That Are Based on Different Failure Criteria'
p4381
sL1128L
S'Roles and Observations of a Graduate Design Coach'
p4382
sL1129L
S'Low Cost Demonstrator as a Mean for Rapid Product Realization With an Electric Motorcycle Application'
p4383
sL1130L
S'Synthesis of Structural Symmetry Driven by Cost Savings'
p4384
sL1131L
S'An Interval-Based Focalization Method for Decision-Making in Decentralized, Multi-Functional Design'
p4385
sL1132L
S'A Parallel Grammar for Simulation-Driven Mechanical Design Synthesis'
p4386
sL1133L
S'A Study of Factor Effects in Data From Factorial Experiments'
p4387
sL1134L
S'Geometric Surface Features Applied to Volumetric CAE Mesh Models'
p4388
sL1135L
S'A CAD-Integrated System for Automated Idealization of CAD-Models for Finite Element Analysis'
p4389
sL1136L
S'A Method for Integrating Form Errors Into Geometric Tolerance Analysis'
p4390
sL1137L
S'Shape Recovery From Medical Image Data Using Extended Superquadrics'
p4391
sL1138L
S'Insertion of Planar Areas Into Free-Form Surfaces in Early Product Design'
p4392
sL1139L
S'Tolerance-Maps Applied to a Point-Line Cluster of Features'
p4393
sL1140L
S'Allocating Tolerances Statistically With Tolerance-Maps and Beta Distributions: The Target a Planar Face'
p4394
sL1141L
S'Design for Product-Embedded Disassembly'
p4395
sL1142L
S'Filleting and Rounding Using a Point-Based Method'
p4396
sL1143L
S'Recognition of Interacting Turning Features for Mill/Turn Parts'
p4397
sL1144L
S'A Packing Genetic Algorithm for Configuration Design'
p4398
sL1145L
S'Polygon Offsetting by Computing Winding Numbers'
p4399
sL1146L
S'Mesh Processing for Computerized Anthropometry'
p4400
sL1147L
S'A Complete Variation Algorithm for Slot and Tab Features for 3D Simulation-Based Tolerance Analysis'
p4401
sL1148L
S'On Tolerance Information Extraction of Feature Model in Automotive Engine CAPP System'
p4402
sL1149L
S'Hole-Making on a Bent Thick Plate'
p4403
sL1150L
S'Design and Experimental Research of Magneto-Rheological Fluid Fan Clutch'
p4404
sL1151L
S'Continuum-Based Design Sensitivity Analysis and Optimization of Springback in Stamping Process'
p4405
sL1152L
S'Design of an Automobile Seat With Regulations Using Axiomatic Design'
p4406
sL1153L
S'Design Optimization of Continuous Caster Refractory Components'
p4407
sL1155L
S'Methodology for Market Analysis of CHP Systems'
p4408
sL1156L
S'Integrating a Vision System With a Coordinate Measuring Machine to Automate the Datum Alignment Process'
p4409
sL1157L
S'A Study on the Feed Rate Optimization of a Ball Screw Feed Drive System for Minimum Vibrations'
p4410
sL1158L
S'Occupant Restraint System Design Under Uncertainty Using Analytical Uncertainty Propagation Via Metamodels'
p4411
sL1159L
S'Packing Optimization by Enhanced Rubber Band Analogy'
p4412
sL1160L
S'Automating Error Attenuation of Cutting Tools Using Smart Material'
p4413
sL1161L
S'Knowledge Based Design Method for Fibre Metal Laminate Fuselage Panels'
p4414
sL1162L
S'A Unified Information Model for Product Family Design Management'
p4415
sL1163L
S'Analysis of Information Complexity During Product Development'
p4416
sL1164L
S'Integrated Feature Modeller for Certain Manufacturing Processes'
p4417
sL1165L
S'Extended Radial Basis Functions for Metamodeling: A Comparative Study'
p4418
sL1166L
S'Selecting an Appropriate Metamodel: The Case for NURBs Metamodels'
p4419
sL1167L
S'A Hybrid Method Using Response Surface and Pattern Search for Design Optimization'
p4420
sL1168L
S'Gaussian Process Meta-Models for Efficient Probabilistic Design in Complex Engineering Design Spaces'
p4421
sL1169L
S'A Compromise Method for the Design of Parametric Polynomial Surrogate Models'
p4422
sL1170L
S'Robust Design of Cellular Materials With Topological and Dimensional Imperfections'
p4423
sL1171L
S'Microstructure Design for a Rotating Disk: With Application to Turbine Engines'
p4424
sL1172L
S'Design of Functionally Graded Structures for Enhanced Thermal Behavior'
p4425
sL1173L
S'A Strategy for Simulation-Based Multiscale, Multi-Functional Products and Associated Design Processes'
p4426
sL1174L
S'An Inductive Design Exploration Method for the Integrated Design of Multi-Scale Materials and Products'
p4427
sL1175L
S'The Generalized Cahn-Hilliard Equations of Multiphase Transition for Structural Topology Optimization'
p4428
sL1176L
S'A Topology Optimization Problem in Control of Structures Using Modal Disparity'
p4429
sL1177L
S'Synthesis of Bistable Periodic Structures Using Topology Optimization and a Genetic Algorithm'
p4430
sL1178L
S'Vehicle Crashworthiness Design Via a Surrogate Model Ensemble and a Co-Evolutionary Genetic Algorithm'
p4431
sL1179L
S'Structural Topology Optimization Using Frame Elements Based on the Complementary Strain Energy Concept for Eigen-Frequency Maximization'
p4432
sL1180L
S'Optimisation of a Robotic Workcell Layout Using Genetic Algorithms'
p4433
sL1181L
S'Topological Synthesis for Linkage Mechanism Design Using the Minimum Potential Energy Principle'
p4434
sL1182L
S'Structural Topology Optimization Under Design-Dependent Loads'
p4435
sL1183L
S'A Review of Software Solutions for the Management of New Product Development and Product Family Planning'
p4436
sL1184L
S'An Activity-Based Costing Method for Product Family Design in the Early Stages of Development'
p4437
sL1185L
S'Product Family Representation and Redesign: Increasing Commonality Using Formal Concept Analysis'
p4438
sL1186L
S'Towards Rapid Redesign: Pattern-Based Design Diagnostics for Large-Scale and Complex Redesign Problems'
p4439
sL1187L
S'Towards Rapid Redesign: Pattern-Based Redesign Planning for Large-Scale and Complex Redesign Problems'
p4440
sL1188L
S'Multi-Objective Design Optimization for Product Platform and Product Family Design Using Genetic Algorithms'
p4441
sL1189L
S'A Methodology to Support Product Family Redesign Using Genetic Algorithm and Commonality Indices'
p4442
sL1190L
S'Assembly Process Selection to Minimize Existing Assembly System Modification Cost During New Product Family Member Design'
p4443
sL1191L
S'Designing Product Families for a Changing Market Space'
p4444
sL1192L
S'A Group Technology Based Representation for Product Portfolios'
p4445
sL1193L
S'Customer Need Driven Function-Behavior Platform Formation'
p4446
sL1194L
S'Product Configuration Design Based on Extensible Product Family for Mass Customization'
p4447
sL1195L
S'Process Platform-Based Production Configuration'
p4448
sL1196L
S'Robust Truck Cabin Layout Optimization Using Advanced Driver Variance Models'
p4449
sL1197L
S'An Adaptive Sequential Linear Programming Algorithm for Optimal Design Problems With Probabilistic Constraints'
p4450
sL1198L
S'Reliability Assessment Based on the Concept of Failure Surface Frontier'
p4451
sL1199L
S'Reliability Optimization Involving Mixed Continuous-Discrete Uncertainties'
p4452
sL1200L
S'Uncertainty Analysis by Dimension Reduction Integration and Saddlepoint Approximations'
p4453
sL1201L
S'A Design Optimization Method Using Evidence Theory'
p4454
sL1202L
S'Enhanced Sequential Optimization and Reliability Assessment Method for Changing Design Variance'
p4455
sL1203L
S'Probabilistic Analytical Target Cascading: A Moment Matching Formulation for Multilevel Optimization Under Uncertainty'
p4456
sL1204L
S'A Methodology to Manage Uncertainty During System-Level Conceptual Design'
p4457
sL1205L
S'A Methodology for Trading-Off Performance and Robustness Under Uncertainty'
p4458
sL1206L
S'Efficient Genetic Algoritm Based Robust Design Method for Compressor Fan Blades'
p4459
sL1207L
S'A New Approach to Probabilistic Risk Analysis in Concurrent and Distributed Design of Aerospace Systems'
p4460
sL1208L
S'Effects of Uncertainty Reduction on Weight of Composite Laminates at Cryogenic Temperatures'
p4461
sL1209L
S'A New Deterministic Approach Using Sensitivity Region Measures for Multi-Objective Robust and Feasibilty Robust Design Optimization'
p4462
sL1210L
S'Reliability-Based Topology Optimization Considering Multicriteria Using Frame Elements'
p4463
sL1211L
S'Integrated Framework for Design Optimization Under Aleatory and/or Epistemic Uncertainties Using Adaptive-Loop Method'
p4464
sL1212L
S'Effect of Safety Measures on Reliability of Aircraft Structures Subjected to Damage Growth'
p4465
sL1213L
S'A Quadrature-Based Sampling Technique for Robust Design With Computer Models'
p4466
sL1214L
S'Automatic Decomposition and Refinement of Oversized Components for Rapid Prototyping'
p4467
sL1215L
S'Virtual Reality Interactive Design Utilizing Meshless Stress Re-Analysis'
p4468
sL1216L
S'Selective Clay Milling for Interactive Prototyping'
p4469
sL1217L
S'Building Sequence of Boundary Model in Layered Manufacturing'
p4470
sL1218L
S'Automatic Fairing of Two-Parameter Rational B-Spline Motion'
p4471
sL1219L
S'PDE-Driven Level Sets and Shape Sensitivity for Structural Topology Optimization'
p4472
sL1220L
S'An Efficient Feasibility Robust Optimization Method Using a Sensitivity Region Concept'
p4473
sL1221L
S'Numerical and Experimental Study of Shielding Gas Orientation Effects on Particle Stream Concentration Mode in Coaxial Laser Aided Material Deposition Process'
p4474
sL1222L
S'Analysis of Decomposability and Complexity for Design Problems in the Context of Decomposition'
p4475
sL1223L
S'Freeform Feature Retrieval by Signal Processing'
p4476
sL1224L
S'Covariance Modeling Method for Use in Compliant Assembly Tolerance Analysis'
p4477
sL1225L
S'A Product Ontology for Automotive Seat Specification'
p4478
sL1226L
S'Resistance Based Modeling of Collaborative Design'
p4479
sL1228L
S'An Optimization Study of the Ultrasonic Welding of Thin Film Polymers'
p4480
sL1229L
S'A Method to Solve Inverse Kinematics Problems Using Lie Algebra and Its Application to Robot Spray Painting Simulation'
p4481
sL1230L
S'Derivation of Design Guidelines for Miniature Machine Tools'
p4482
sL1231L
S'Automated Symmetry Exploitation in Engineering Analysis'
p4483
sL1232L
S'On the Design Synthesis of Multistable Equilibrium Systems'
p4484
sL1233L
S'Optimization of a Semi-Active Shock Absorber Using a Genetic Algorithm'
p4485
sL1234L
S'Concurrent Parameter Design Based on Constraint Network'
p4486
sL1236L
S'A Quantitative Analysis of the Evolution of Design Automation Conference Fields'
p4487
sL1237L
S'Optimization of Chemical Etching Process in Niobium Cavities'
p4488
sL1238L
S'An Efficient Weighting Update Method to Achieve Acceptable Consistency Deviation in Analytical Target Cascading'
p4489
sL1239L
S'A Comparison of Commonality Indices for Product Family Design'
p4490
sL1240L
S'A System Approach to Simulation-Based Design Under Uncertainty, Through Best in Class Simulation Process Integration and Design Optimization'
p4491
sL1241L
S'A Comparative Study of Constraint Programming Techniques Over Intervals in Preliminary Design'
p4492
sL1242L
S'Front Structure Design Procedure for Optimal Pedestrian Leg Impact Performance'
p4493
sL1243L
S'A Recursive, Line-Intersection Method for Finding the Area of a Mesh Projected Onto a Plane'
p4494
sL1244L
S'Task Scheduling of Parallel Development Projects Using Genetic Algorithms'
p4495
sL1245L
S'Dynamic Modeling and Simulation of Parallel Kinematic Machines'
p4496
sL1246L
S'DRed and Design Folders: A Way of Capturing, Storing and Passing On Knowledge Generated During Design Projects'
p4497
sL1247L
S'Identifying and Tracking Features in Freeform Shape'
p4498
sL1248L
S'Development of a Production Cost Estimation Framework for Product Family Design'
p4499
sL1249L
S'Modeling and Design of Materials for Controlled Wave Propagation in Plane Grid Structures'
p4500
sL1250L
S'An Efficient Pareto Set Identification Approach for Multi-Objective Optimization on Black-Box Functions'
p4501
sL1251L
S'Ant Colony Optimization Method for Product Platform Formation'
p4502
sL1252L
S'The Effects of Different Specifications on the Tolerance-Maps for an Angled Face'
p4503
sL1253L
S'Development of Process Optimization for an Intelligent Knowledge-Based System for Spur Gear Precision Forging Die Design'
p4504
sL1254L
S'Global Stiffness Improvement for Tricept Machine Tools Family'
p4505
sL1255L
S'A Parametric Approach to Vehicle Seating Buck Design'
p4506
sL1256L
S'Parameter and Tolerance Constraints Modeling for Assembly'
p4507
sL1257L
S'Fully Free-Form Deformation Features Incorporating Discontinuities'
p4508
sL1258L
S'Design of Components With Optimized Microstructure'
p4509
sL1259L
S'An Integrated Design Support Environment for a Micro-Scale Portable Absorption Cooling System'
p4510
sL1260L
S'A Conceptual Design Synthesis Framework for Micro-Electro-Mechanical Systems (MEMS)'
p4511
sL1261L
S'A Survey of the Study of Failure'
p4512
sL1262L
S'A Knowledge-Based System for Change Impact Analysis'
p4513
sL1263L
S'Evaluation Method for the Topological Synthesis of Sheet Metal Components'
p4514
sL1264L
S'A Single-Loop Method for Reliability-Based Design Optimization'
p4515
sL1265L
S'Geometric Design of Uniform Developable B-Spline Surfaces'
p4516
sL1266L
S'Creative Design, Issues and Strategies'
p4517
sL1267L
S'A Saddlepoint Approximation Method for Uncertainty Analysis'
p4518
sL1268L
S'Geometric Containment Analysis for Rotational Parts'
p4519
sL1269L
S'Integrating Freeform and Feature-Based Fitting Methods'
p4520
sL1270L
S'A Systems Framework for Platform Architecture Analysis'
p4521
sL1271L
S'On the Use of Kriging Models to Approximate Deterministic Computer Models'
p4522
sL1272L
S'Decomposition-Based Assembly Synthesis of Space Frame Structures Using Joint Library'
p4523
sL1273L
S'A New Approach for Simultaneous Shape and Topology Optimization Based on Implicit Topology Description Functions'
p4524
sL1274L
S'On Electrochemical Deposition for Layered Manufacturing'
p4525
sL1275L
S'Robustness and Performance Optimization of Engine Bearing System Using Computer Model and Surrogate Noise'
p4526
sL1276L
S'Design Optimization of Enclosed Liquid Containers With Baffles for Sloshing and Impact'
p4527
sL1277L
S'Design for Project Change Management: Part 1 -- Configuration Design'
p4528
sL1278L
S'Design for Project Change Management: Part 2 -- Attribute Design'
p4529
sL1279L
S'Moment Matching for Sensitivity Analysis of Probabilistic Model Output'
p4530
sL1280L
S'Product Design Selection With Variability in Preferences for an Implicit Value Function'
p4531
sL1281L
S'A Formal Approach to Handling Conflicts in Multiattribute Group Decision Making'
p4532
sL1282L
S'Convergence and Stability in Distributed Design of Large Systems'
p4533
sL1283L
S'Transient Root Cause Analysis: A Model-Based Systems Engineering Methodology'
p4534
sL1284L
S'Design Optimization of Hierarchically Decomposed Multilevel Systems Under Uncertainty'
p4535
sL1285L
S'Purely Declarative Feature-Based Design With Feature Type Property Maintenance'
p4536
sL1286L
S'A Weighted Three-Point-Based Strategy for Variance Estimation'
p4537
sL1287L
S'Hierarchical Arrangement of Characteristics in Product Design Optimization Problems for Deeper Insight Into Optimized Results'
p4538
sL1288L
S'A Method for Determining the Optimal Direction of the Principal Moment of Inertia in Frame Element Cross-Sections'
p4539
sL1289L
S'A Collaborative Rapid Analysis Method for Decision-Making in Assembly Line Design'
p4540
sL1290L
S'Text and Illustration Based Scenario Expressions for Conveying Failure Knowledge'
p4541
sL1291L
S'Variant Design Automation: Strategy and Procedure for Storing Design Process Information'
p4542
sL1292L
S'A Process-Oriented Approach for Management of Product Configuration Models'
p4543
sL1293L
S'Design of a Bimorph Driven Meander-Line Structure for Parts Feeder Application'
p4544
sL1294L
S'Optimisation and Robust Design in Aero Engine Development'
p4545
sL1295L
S'Decoupled and Single Loop Methods for Reliability-Based Optimization and Robust Design'
p4546
sL1296L
S'An Integrated Robust Design and Marketing Approach for Product Design Selection Process'
p4547
sL1297L
S'A CAD Package for High-Speed Cam Design Based on Direct Multiple Shooting Optimal Control Techniques'
p4548
sL1298L
S'A Fuzzy Dynamic Programming Approach for Mixed-Discrete Multistage Decision Processes'
p4549
sL1299L
S'Structural Topology Optimization Under Impact Loads Using Beam Ground Structures'
p4550
sL1300L
S'Objective Function Based Pattern Search: A Computationally Efficient Algorithm for 3D Component Layout'
p4551
sL1301L
S'Toward an Information Management Infrastructure for Product Family Planning and Mass Customization'
p4552
sL1302L
S'Application of Math-Based Marketing and Financial Tools in an Automated Parametric Design Framework'
p4553
sL1303L
S'An Information Theoretical Perspective on Design Optimization'
p4554
sL1304L
S'Economics of Sacrificial Fixturing for CNC Machining and Rapid Manufacturing'
p4555
sL1305L
S'A Benchmark Comparison of CAD 5-Axis Machining Packages'
p4556
sL1306L
S'A Comparative Study of Optimal Design for an Inkjet Printer Tube With and Without Performance Variations'
p4557
sL1307L
S'Reliability-Based Design Optimization Methods'
p4558
sL1308L
S'A Reliability-Based Design Method Using Simulation Techniques and Efficient Optimization Approach'
p4559
sL1309L
S'Assessing Product Architecture Costing: Product Life Cycles, Allocation Rules, and Cost Models'
p4560
sL1310L
S'Unified Distance Queries in a Heterogeneous Model Environment'
p4561
sL1311L
S'The Role of Constraints and Human Interaction in Evolving MEMS Designs: Microresonator Case Study'
p4562
sL1312L
S'Two-Level Approximation Method for Reliability-Based Design Optimization'
p4563
sL1313L
S'Product Platform Design Through Sensitivity Analysis and Cluster Analysis'
p4564
sL1315L
S'A Full Parametric Model for Turbomachinery Blade Design and Optimisation'
p4565
sL1316L
S'The Performance Moment Integration Method for Reliability-Based Robust Design Optimization'
p4566
sL1317L
S'Segmentation of Noisy Laser-Scanner Generated Meshes With Piecewise Polynomial Approximations'
p4567
sL1318L
S'Solid Modeler Evaluation and Comparison Cycle: A Methodology for Optimum Selection of Modeling Software'
p4568
sL1319L
S'Vehicle Structure Optimization for Crash Pulse'
p4569
sL1320L
S'Analytical Variance-Based Global Sensitivity Analysis in Simulation-Based Design Under Uncertainty'
p4570
sL1321L
S'Building Surrogate Models Based on Detailed and Approximate Simulations'
p4571
sL1322L
S'Graphical Modeling Environment and Supporting Framework for Function-Based Conceptual Design'
p4572
sL1323L
S'Relative Entropy Based Method for Global and Regional Sensitivity Analysis in Probabilistic Design'
p4573
sL1324L
S'A Haptic System for Virtual Prototyping of Polygonal Models'
p4574
sL1325L
S'Influence of Group Cohesion and Information Sharing on Effectiveness of Design Review'
p4575
sL1326L
S'Development of a J2EE Web Application for STEP-Based Design Conformance Checking'
p4576
sL1327L
S'A Sequential Exploratory Experimental Design Method: Development of Appropriate Empirical Models in Design'
p4577
sL1328L
S'Applicability of Design Spaces to Utilize Current Assembly Plant Resources to Produce New Product Family Members'
p4578
sL1329L
S'A Sketch-Based Interface for the Design and Analysis of Simple Vibratory Mechanical Systems'
p4579
sL1330L
S'Trim Loop Closure for Enhanced CAD Interoperability'
p4580
sL1331L
S'Haptically Guided Filtering for Reverse Engineering'
p4581
sL1332L
S'Design Configuration of Vehicle With Domain Knowledge Enhancement'
p4582
sL1333L
S'An Exploration-Estimation Algorithm for Synthesis and Analysis of Engineering Systems Using Minimal Physical Testing'
p4583
sL1334L
S'Quantifying Profit and Loss Associated With Failure Cases'
p4584
sL1335L
S'Using the Compromise Decision Support Problem in Microsystem Design: A Formulation for a Miniature Parylene Gas Chromatographic Column'
p4585
sL1336L
S'Improved Disassembly Matrices for Disassembly Processes'
p4586
sL1337L
S'Design Under Uncertainty Using Monte Carlo Simulation and Probabilistic Sufficiency Factor'
p4587
sL1338L
S'A Cross-Evaluation Matrix (CEM) Rating Based Approach to Pareto Efficient Frontier and Design Alternatives Enumeration'
p4588
sL1339L
S'An Integrated Framework for Probabilistic Optimization Using Inverse Reliability Strategy'
p4589
sL1340L
S'An Approach to Robust Multiattribute Concept Selection'
p4590
sL1341L
S'An Indicator Response Surface-Based Monte Carlo Method for Efficient Component and System Reliability Analysis'
p4591
sL1342L
S'Reliability-Based Design With the Mixture of Random and Interval Variables'
p4592
sL1343L
S'Application of the Sequential Optimization and Reliability Assessment Method to Structural Design Problems'
p4593
sL1344L
S'Structural Durability Design Optimization and Its Reliability Assessment'
p4594
sL1345L
S'Incorporating Epistemic Uncertainty in Robust Design'
p4595
sL1346L
S'Robust Optimization of an Automotive Valvetrain Using a Multiobjective Genetic Algorithm'
p4596
sL1347L
S'Robust Design Using Preference Aggregation Methods'
p4597
sL1348L
S'Non-Gradient Based Parameter Sensitivity Estimation for Robust Design Optimization'
p4598
sL1349L
S'Product Platform Design and Optimization: Status and Promise'
p4599
sL1350L
S'Optimal Design Methodology of Common Components for a Class of Products: Its Foundations and Promise'
p4600
sL1351L
S'Internet Based Framework to Perform Automated FEA on User Customized Products'
p4601
sL1352L
S'Production Cost Modeling to Support Product Family Design Optimization'
p4602
sL1353L
S'Product Family and Platform Portfolio Optimization'
p4603
sL1354L
S'Dimensional Adjustment for Assemblability of Rapid Protoyped Parts'
p4604
sL1355L
S'WirePATH Rapid Tooling Process and Supporting Software Development'
p4605
sL1356L
S'Layered Manufacturing by Electrophotographic Printing'
p4606
sL1357L
S'Towards Automated Design of Multi-Piece Permanent Molds'
p4607
sL1358L
S'Toward Automatic Process Planning of a Multi-Axis Hybrid Laser Aided Manufacturing System: Skeleton-Based Offset Edge Generation'
p4608
sL1359L
S'Extracting Freeform Shape Information by Template Fitting'
p4609
sL1360L
S'Extended Hierarchical Cluster Analysis for the Decomposition of Complex Design Problems'
p4610
sL1361L
S'Assembly Synthesis With Subassembly Partitioning for Optimal In-Process Dimensional Adjustability'
p4611
sL1362L
S'Topology Optimization of Multi-Component Structures via Decomposition-Based Assembly Synthesis'
p4612
sL1363L
S'Quantitative Exploratory Techniques to Simplify Multiple Objectives in Product Design Optimization'
p4613
sL1364L
S'Multi-Objective Optimisation of Ship Hull With Distributed Applications'
p4614
sL1365L
S'Structural Topology Design Optimization for Controlled Crash Behavior'
p4615
sL1366L
S'Analytical Target Setting: An Enterprise Context in Optimal Product Design'
p4616
sL1367L
S'Multi-Objective Configuration Optimization With Vehicle Dynamics Applied to Midsize Truck Design'
p4617
sL1368L
S'A New Mathematical Model for Geometric Tolerances as Applied to Axes'
p4618
sL1370L
S'Tolerance Synthesis of Mechanisms: A Robust Design Approach'
p4619
sL1371L
S'Development of a Design Reuse View of Cutting Tool Design Ontology'
p4620
sL1372L
S'A Study of Geometric Error Measurement of CNC Machine Tools Using the Improved Planar Encoder System'
p4621
sL1373L
S'Reducing Cycle Time and Errors in the Design and Layout of MEMS'
p4622
sL1374L
S'Approaches of Knowledge-Based Design'
p4623
sL1375L
S'A Methodology for the Study of the Effects of Communication Method on Design Review Effectiveness'
p4624
sL1376L
S'Development of Knowledge Based System to Facilitate Design of On-Board Car Safety Systems'
p4625
sL1377L
S'Shape Knowledge Indexing Using Invariant Shape Code'
p4626
sL1378L
S'Knowledge Management: A Concept Review'
p4627
sL1380L
S'A Design Alternatives Assessment and Management Approach'
p4628
sL1381L
S'Knowledge Intensive Collaborative Decision Support for Design Process'
p4629
sL1382L
S'A Knowledge-Supported System for Engineering Change Impact Analysis'
p4630
sL1383L
S'Design Optimization of a Vehicle B-Pillar Subjected to Roof Crush Using Mixed Reactive Taboo Search'
p4631
sL1384L
S'Design Optimization of Vehicle Structures for Crashworthiness Using Equivalent Mechanism Approximations'
p4632
sL1385L
S'Response Surface Methods and Pareto Optimization in Crashworthiness Design'
p4633
sL1386L
S'Parametric Design Sensitivity Analysis of High Frequency Structural-Acoustic Problems Using Energy Finite Element Method'
p4634
sL1387L
S'The Effect of Tempering (Artificial Aging) on the Crashworthiness Performance of Mass-Efficient Extruded Aluminum Structures'
p4635
sL1388L
S'Bayesian Approximation-Assisted Optimization Applied to Crashworthiness Design of a Pickup Truck'
p4636
sL1389L
S'Emerging Virtual Machine Tools'
p4637
sL1390L
S'Computer Model Validation in Vehicle Crash Safety Design'
p4638
sL1391L
S'Penalized Likelihood Kriging Model for Analysis of Computer Experiments'
p4639
sL1392L
S'Analysis of Support Vector Regression for Approximation of Complex Engineering Analyses'
p4640
sL1393L
S'An Efficient Algorithm for Constructing Optimal Design of Computer Experiments'
p4641
sL1394L
S'Introducing Rough Set for Design Space Exploration and Optimization'
p4642
sL1395L
S'A Study on the Use of Kriging Models to Approximate Deterministic Computer Models'
p4643
sL1396L
S'A New Global Optimization Method for Simultaneous Computation on Expensive Black-Box Functions'
p4644
sL1397L
S'Multidimensional Solution Clustering and Its Application to the Coolant Passage Optimization of a Turbine Blade'
p4645
sL1398L
S'Optimization of a Semi-Active Shock Absorber for Aircraft Landing Gear'
p4646
sL1399L
S'Towards a Conceptual Design Explorer Using Metamodeling Approaches and Constraint Programming'
p4647
sL1400L
S'A Study of Emission Policy Effects on Optimal Vehicle Design Decisions'
p4648
sL1401L
S'Level Set Models for Structural Topology Optimization'
p4649
sL1402L
S'Topology Optimization of Heat-Resistant Structures'
p4650
sL1403L
S'Topology Optimization of a Compliant Gripper Using Hybrid Simulated Annealing and Direct Search'
p4651
sL1404L
S'Topology Optimization and Dynamic Performance of a Bike Frame With Dampers'
p4652
sL1405L
S'Robust Topological Design of Cellular Materials'
p4653
sL1406L
S'Structural Topology Optimization Using Function-Oriented Elements Based on the Concept of First Order Analysis'
p4654
sL1407L
S'Design of Energy Absorbing Structure Using Topology Optimization With a Multi-Material Model'
p4655
sL1408L
S'Parameterization Strategy for Optimization of Shape Morphing Compliant Mechanisms Using Load Path Representation'
p4656
sL1409L
S'A Face Clustering Method for a Hexahedral Meshing'
p4657
sL1410L
S'A New Approach to Minimisations for Shape Control During Free-Form Surface Deformation'
p4658
sL1411L
S'Smoothing of Noisy Laser Scanner Generated Meshes Using Polynomial Fitting and Neighborhood Erosion'
p4659
sL1412L
S'Partitioning Positional and Normal Space for Fast Occlusion Detection'
p4660
sL1413L
S'Automatic Toolpath Generation for Multi-Axis Surface Machining in a Hybrid Manufacturing System'
p4661
sL1414L
S'A Taxonomy for Collaborative Design'
p4662
sL1415L
S'A Study of Convergence in Decentralized Design'
p4663
sL1416L
S'Port-Compatibility and Connectability Based Assembly Design'
p4664
sL1417L
S'A Concurrent Design Method for Multiple Cross-Sectional Automotive Body Frames Involving Discrete and Continuous Design Variables'
p4665
sL1418L
S'Design Space Visualization and Its Application to a Design by Shopping Paradigm'
p4666
sL1419L
S'Design Process Error-Proofing: Development of Automated Error-Proofing Information Systems'
p4667
sL1420L
S'Design Evaluation Method for Miniature Machine Tools Utilizing Form-Shaping Theory'
p4668
sL1421L
S'Design Shell for Parametric Design at Embodiment Stage'
p4669
sL1422L
S'Scenario Expression for Characterizing Failure Cases'
p4670
sL1423L
S'Design Methodology for the Thermal Packaging of Hybrid Electronic-Mechanical Products: A Case Study on the Berkeley Emulation Engine (BEE)'
p4671
sL1424L
S'A Modeling Method for Vibration Analysis of a Stator Frame of Turbine Generators and Its Application to a Design System: Vibration Analysis and Analysis System'
p4672
sL1425L
S'Strengthening of Bone Cement by Shape Optimization of Short Fibers'
p4673
sL1426L
S'Constraint Dominance Methods Applied to the Design of a Linear Motor'
p4674
sL1427L
S'Design Sensitivity Analysis of Nonlinear Shell Structure With Frictionless Contact'
p4675
sL1428L
S'Optimal Troubleshooting for Electro-Mechanical Systems'
p4676
sL1429L
S'Optimization for Mass Variation of System Including Shock Absorber'
p4677
sL1430L
S'Discretizing Continuous Problems for Faster Global Convergence'
p4678
sL1431L
S'Optimal Packaging of Tank Turret System'
p4679
sL1432L
S'Genetic Range Genetic Algorithms to Obtain Quasi-Optimum Solutions'
p4680
sL1433L
S'Optimization of Helicopter Air Intake Scoop Design'
p4681
sL1434L
S'A Study on Immune Algorithms Considering Interaction of Design With Environment Properties'
p4682
sL1435L
S'Optimizing Optimization for Design Optimization'
p4683
sL1436L
S'Generalized Random Tunneling Algorithm for Continuous Design Variables'
p4684
sL1437L
S'Improved Development Cycle of a Compliant Manipulator'
p4685
sL1438L
S'On Honeycomb Parameterization for Topology Optimization of Compliant Mechanisms'
p4686
sL1439L
S'On Design of Electro-Thermally Compliant MEMS for Strength'
p4687
sL1441L
S'Introduction to Compliant Long-Dwell Mechanism Synthesis Using Buckling Arc Theory'
p4688
sL1442L
S'Distributed Compliant Model for Efficient Dynamic Simulation of Systems With Frictional Contacts'
p4689
sL1443L
S'Suspension Synthesis for N:1 Roll Center Motion'
p4690
sL1444L
S'A Robust Solution to the Spherical Rigid-Body Guidance Problem'
p4691
sL1445L
S'Designing a Dexterous Reconfigurable Packaging System for Flexible Automation'
p4692
sL1446L
S'Kinematic Synthesis of RPS Serial Chains'
p4693
sL1447L
S'Approximate Motion Synthesis of Open and Closed Chains via Parametric Constraint Manifold Fitting: Preliminary Results'
p4694
sL1448L
S'Suggesting Joint Limitations and Physical Parameters for Motion Generating 3 DOF Planar Chains'
p4695
sL1449L
S'Geometric Design of Cylindric PRS Serial Chains'
p4696
sL1450L
S'On the Effects of Weights in Rational Motion Design'
p4697
sL1451L
S'Dimensional Synthesis of CRR Serial Chains'
p4698
sL1452L
S'Analytical Determination of Principal Twists and Singular Directions in Robot Manipulators'
p4699
sL1453L
S'Type Synthesis of Three-DOF Translational Parallel Mechanisms'
p4700
sL1454L
S'Forward Problem Singularities of Manipulators Which Become PS-2RS or 2PS-RS Structures When the Actuators Are Locked'
p4701
sL1455L
S'Singularity Analysis of a Novel 4-DOFs Parallel Robot H4 by Using Screw Theory'
p4702
sL1456L
S'Planar Translational Cable-Direct-Driven Robots: Hardware Implementation'
p4703
sL1457L
S'Interpolation Algorithm and Its Error Prediction of a Tripod-Based Parallel Kinematic Machine'
p4704
sL1458L
S'An Integrated Virtual Validation System for Parallel Kinematic Machine Analysis Design'
p4705
sL1459L
S'Design Optimization of 6-HTRT Parallel Robot Orientated on Workspace'
p4706
sL1460L
S'Cable-Based Metrology System for Sculpting Assistance'
p4707
sL1461L
S'Optimal Integration of Smart Actuators in the Structure of Serial and Parallel Robot Manipulators to Enhance Speed and Tracking Precision'
p4708
sL1462L
S'An XZ Micropositioning Mechanism (XZMM) With Out-of-Plane Translation'
p4709
sL1463L
S'Kinetic Analysis of Planar Frictionless Mechanisms Made Simple'
p4710
sL1464L
S'Computer Simulation of Path and Motion Generation With Six-Bar Linkage'
p4711
sL1465L
S'On the Existence of Special Cases of Input Speed Doubling Linkage Mechanisms'
p4712
sL1466L
S'The Radius of Curvature of a Coupler Curve of the Single Flier Eight-Bar Linkage'
p4713
sL1467L
S'An Analytical Comparison Between Ball and Crossed Roller Bearings for Utilization in Actuator Modules for Precision Modular Robots'
p4714
sL1468L
S'Influence of End-Effector Velocities on Robotic Manipulator Dynamic Performance: An Analytical Approach'
p4715
sL1469L
S'Analysis and Visualization of the Contact Force Solution Space for Multi-Limbed Mobile Robots With Three Feet Contact'
p4716
sL1470L
S'Choosing the Optimal Contact Force Distribution for Multi-Limbed Mobile Robots With Three Feet Contact'
p4717
sL1471L
S'An Articulated Body Algorithm for Modelling and Simulation of an Underwater Vehicle Equipped With Manipulator Arm'
p4718
sL1472L
S'On the Design of Nesting Forces for Exactly Constrained, Robust Mechanical Assemblies'
p4719
sL1473L
S'On the Robustness of Exactly Constrained Mechanical Assemblies'
p4720
sL1474L
S'Analysis of Multiple Equilibrium Positions in Magnetostatic Field'
p4721
sL1475L
S'On the Geometry of 3D Orientation Measurement Using a New Class of Wireless Angular Position Sensors'
p4722
sL1476L
S'Similarity and Equivalence of Nutating Mechanisms to Bevel Epicyclic Gear Trains'
p4723
sL1477L
S'Forward Kinematics of 3-GPR Planar Parallel Manipulators With Circular Rolling Contact Joints'
p4724
sL1478L
S'The Robust Design of a Two-Wheeled Quasiholonomic Mobile Robot'
p4725
sL1479L
S'Kinematics of Wheeled Mobile Robots With Toroidal Wheels on Uneven Terrain'
p4726
sL1480L
S'Design of a Self-Actuating, Traction Drive System for High-Speed Ratios'
p4727
sL1481L
S'Topology and Shape Optimization of an Interbody Fusion Implant for Lumbar Spine Fixation'
p4728
sL1482L
S'An Integrated Design Optimization Approach for Quantitative and Qualitative Search Space'
p4729
sL1483L
S'An Approach for Generating Variational Geometry of a Pattern of Holes With Composite Positional Tolerances'
p4730
sL1484L
S'Design Decision-Making in the Early Stages of Collaborative Engineering'
p4731
sL1486L
S'Identifying Variable Effects on the Dimensional Quality of Compliant Assembly, Using Computer Experiments'
p4732
sL1488L
S'Reconstructing Freeform Surface With Parameterized Features'
p4733
sL1489L
S'Analysis and Design of a Four-Bar Linkage Type of Vibratory Parts Feeder Driven by Piezoelectric Actuator'
p4734
sL1490L
S'Autogenetic Design Theory: An Approach to Optimise Both the Design Process and the Product'
p4735
sL1491L
S'Human Head Aesthetic Design Using Hybrid Genetic Algorithm'
p4736
sL1492L
S'Applying Universal Linking of Engineering Objects in the Automotive Industry: Practical Aspects, Benefits, and Prototypes'
p4737
sL1493L
S'Mini-Max Type Formulation of Strict Robust Design Optimization Under Correlative Variation'
p4738
sL1494L
S'Optimization of Machine System Designs Using Hierarchical Decomposition Based on Criteria Influence'
p4739
sL1495L
S'Lifecycle-Based Product Design Using Global Optimization Methods Based on Hierarchical Genotype Representation of Alternatives and Constraints'
p4740
sL1496L
S'Conceptual Design of Tool Storage Based on the Divergent Tree Method'
p4741
sL1497L
S'Comparison of Gradient and Non Gradient Based Methods for Crash Optimisation'
p4742
sL1498L
S'Computational Geometric Modeling and Unfolding of 3-D Folded Structures'
p4743
sL1499L
S'Performance Optimization of Extrusion Blow Molded Parts Using Fuzzy Neural-Taguchi Method and Genetic Algorithm'
p4744
sL1500L
S'An Evolutionary Clustering Approach to Pareto Solutions in Multiobjective Optimization'
p4745
sL1501L
S'Automatic Conceptual Design of Mechanical Devices Based on Reasoning the Design Rules'
p4746
sL1502L
S'A Study on Collaborative Design Considering Features of Design'
p4747
sL1503L
S'Reconfiguration of Kinematic Structure for Changing Motion Requirement Based on Reusability Evaluation in Lie Algebra'
p4748
sL1504L
S'A Study on Optimum Topology of Plate Structure Using Coordinate Transformation by Conformal Mapping'
p4749
sL1505L
S'Computer-Aided Analysis of Free Transverse-Vibration of Stepped Beams'
p4750
sL1506L
S'Thermal Robustness and Mass Optimization of Heat Pipe Shape for Spacecraft Panel Using a Combination of Response Surface Methodology and Monte Carlo Simulation'
p4751
sL1507L
S'Dual Stage Input Coupled Split Power Transmission Efficiency Optimization'
p4752
sL1508L
S'Informing Design Using Data Mining Methods'
p4753
sL1509L
S'Development of Multi-Stage and Hybrid Real-Coded Genetic Algorithms With Active Constraints'
p4754
sL1510L
S'Computational Recognition of Functional Parameters of Surfaces for the Kinematic Design of Window Regulator Systems'
p4755
sL1511L
S'Human Modelling: A Constraint-Based Feature Modelling Approach'
p4756
sL1512L
S'Analysis of Loads and Stresses for a Sewing Needle'
p4757
sL1513L
S'Artificial Immune System Based Isomorphism Identification Method for Mechanism Kinematics Chains'
p4758
sL1515L
S'Cross Model Shape Reuse: Copying and Pasting of Freeform Features'
p4759
sL1516L
S'Automated Design Synthesis for Micro-Electro-Mechanical Systems (MEMS)'
p4760
sL1517L
S'Use of Constrained Viscoelastic Layers in the Design of Satellite Panels to Predict the Amplification Factor'
p4761
sL1518L
S'Stiffness Testing of Hydraulic Hoses'
p4762
sL1519L
S'Finite Element Analysis in 3D Using the Penalty Boundary Method'
p4763
sL1520L
S'Integration of Commercial CAD/CAM System With Custom CAPP Using Orbix Middleware and CORBA Standard'
p4764
sL1521L
S'Counting Degrees of Freedom for Developable Bezier Surface Design'
p4765
sL1522L
S'Determination of Geometric Distortions in Automotive Lamps Using Non-Linear Parametric Estimations'
p4766
sL1523L
S'Macroscopic Shape-Information as a Curve Design-Guideline'
p4767
sL1524L
S'Collaborative Decision Making Across Digital Interfaces'
p4768
sL1525L
S'Local Least Squares Fitting for Surface Mesh Fairing in Automobile Panel Design'
p4769
sL1526L
S'A Stochastic Optimization Application for Vehicle Structures'
p4770
sL1527L
S'Math-Based Performance Evaluation of an Experimental Car: Side Impact Protection'
p4771
sL1528L
S'Model Reduction in Structural Analysis Using a Multiresolution Analysis'
p4772
sL1529L
S'A Web Enabled Process for Accessing Customized Parametric Designs'
p4773
sL1530L
S'Multiattribute Decision Making Using Hypothetical Equivalents'
p4774
sL1531L
S'Interactive Product Design Selection With an Implicit Value Function'
p4775
sL1532L
S'A Customer-Based Expected Utility Metric for Product Design Selection'
p4776
sL1533L
S'Empirical Analysis Using Advanced Similarity Methods'
p4777
sL1534L
S'Decomposition-Based Assembly Synthesis Based on Structural Stiffness Considerations'
p4778
sL1535L
S'An Analytical Approach to Functional Design'
p4779
sL1536L
S'Control, Design and Error Variables in Decomposition of Design Optimization Problems'
p4780
sL1537L
S'Decomposition-Based Assembly Synthesis for In-Process Dimensional Adjustability'
p4781
sL1538L
S'A Grammar-Based Approach to Sheet Metal Design'
p4782
sL1539L
S'Adaptive-Agent Based Simulation Model to Study Diffusion of Eco-Innovation Strategies'
p4783
sL1540L
S'A Knowledge-Based Approach to Spur Gear Fabrication in Precision Forging Process'
p4784
sL1541L
S'A Benchmark Comparison of Curvature Matched Machining versus Three- and Five-Axis Machining Methods Applied to Industrial Part Surfaces'
p4785
sL1542L
S'Adaptive Experimental Design Applied to Ergonomics Testing Procedure'
p4786
sL1543L
S'On Sequential Sampling for Global Metamodeling in Engineering Design'
p4787
sL1544L
S'Computer Implementation of an Improved Kutzbach-Grubler Mobility Criterion'
p4788
sL1545L
S'Modeling of Slope Discontinuities in Flexible Body Dynamics Using the Finite Element Method'
p4789
sL1546L
S'Design of Hierarchic Platforms for Customizable Products'
p4790
sL1547L
S'A Quantitative Approach for Designing Multiple Product Platforms for an Evolving Portfolio of Products'
p4791
sL1548L
S'Optimal Design Decisions in Product Portfolio Valuation'
p4792
sL1549L
S'Knowledge Intensive Support for Product Family Design'
p4793
sL1550L
S'Platform Selection Under Performance Loss Constraints in Optimal Design of Product Families'
p4794
sL1551L
S'Inverse Parametric Modeling From Independently Generated Product Data Sets'
p4795
sL1552L
S'A Hybrid Approach to Feature Recognition Using Approximate and Partial Exact CAD Models'
p4796
sL1553L
S'A Mesh Feature Paradigm for Rapid Generation of CAE-Based Design of Experiments Data'
p4797
sL1554L
S'Development of Adaptive Range Genetic Algorithms Considering Inheritance of Searching Range'
p4798
sL1555L
S'GA-Based Multi-Objective Fuzzy Matter-Element Optimization'
p4799
sL1556L
S'Using Genetic Algorithms With Niche Formation to Solve the Minimum Distance Problem Among Concave Objects'
p4800
sL1557L
S'A Genetic Algorithm Based Method for Product Family Design Optimization'
p4801
sL1558L
S'Shape Optimization of NURBS Modeled 3D C-Frames Using Hybrid Genetic Algorithm'
p4802
sL1559L
S'Robust Design Through the Use of a Hybrid Genetic Algorithm'
p4803
sL1560L
S'Nonlinear Kinematic Tolerance Analysis of Planar Higher Pairs'
p4804
sL1561L
S'Parameter Sensitivity in System Identification of Parallel Mechanisms'
p4805
sL1562L
S'A New Symbolic Method to Determine Base Inertia Parameters for General Spatial Mechanisms'
p4806
sL1563L
S'Redesign of a Spatial Gear Pair Using Configuration Spaces'
p4807
sL1564L
S'Error Sensitivity Analysis for Optimal Calibration of Parallel Kinematic Machines'
p4808
sL1565L
S'Development of an Interactive Web-Based Support System for Gear Design'
p4809
sL1566L
S'An Extensive Simplex Method Mapping the Global Feasibility'
p4810
sL1567L
S'Theoretical Evaluation of the Integrated Structure and Control Design Approach by Optimization Theory'
p4811
sL1568L
S'Finding the Shortest Path for Quality Assurance of Electric Components'
p4812
sL1569L
S'Development of an Automatic Design and Optimization System for Industrial Silencers'
p4813
sL1570L
S'Architectural Optimisation Using Real Options Theory and Dependency Structure Matrices'
p4814
sL1571L
S'Dynamic Analysis and Optimization of Tensioner in Automotive Serpentine Belt Drive Systems'
p4815
sL1572L
S'Configurable and Extensible System for Experimenting With Design Optimization'
p4816
sL1573L
S'On the Entropy of Multi-Objective Design Optimization Solution Sets'
p4817
sL1574L
S'A Sensitivity-Based Pattern Search Algorithm for 3D Component Layout'
p4818
sL1575L
S'Hybrid Approach for Containment Problems'
p4819
sL1576L
S'A Non-Deterministic Approach to Concept Selection Using S-Pareto Frontiers'
p4820
sL1577L
S'Sequential Optimization and Reliability Assessment Method for Efficient Probabilistic Design'
p4821
sL1578L
S'An Investigation of Nonlinearity of Reliability-Based Design Optimization Approaches'
p4822
sL1579L
S'New Concepts in Graphic Visualization of Objective Functions'
p4823
sL1580L
S'Visualization of Multidimensional Design and Optimization Data Using Cloud Visualization'
p4824
sL1581L
S'Design Optimization for Structural-Acoustic Problems Using FEM-BEM'
p4825
sL1583L
S'Dynamic Project Navigation: Modelling, Improving, and Review of Engineering Processes'
p4826
sL1584L
S'Benefit Evaluation of New Technologies'
p4827
sL1585L
S'Smart Assemblies for Robust Design: A Progress Report'
p4828
sL1587L
S'The Evolution of a Layered Manufacturing Interchange Format'
p4829
sL1588L
S'ModelAngelo: A Rapid Prototyping System for Polystyrene'
p4830
sL1589L
S'Automatic Process Planning of a Multi-Axis Hybrid Manufacturing System'
p4831
sL1590L
S'H-ISM: An Implementation of Heterogeneous Implicit Solid Modeling'
p4832
sL1591L
S'Model Validation via Uncertainty Propagation Using Response Surface Models'
p4833
sL1592L
S'Bayesian Evaluation of Engineering Models'
p4834
sL1593L
S'Uncertainty Analysis Using a Constraint Reliability Index'
p4835
sL1594L
S'A Tool Management System for Probabilistic Design Problems'
p4836
sL1595L
S'Evaluation of Conceptual Designs and Maintainability Incorporating Uncertainty'
p4837
sL1596L
S'Computer-Aided Fixture Design Verification: Part II -- Tolerance Analysis'
p4838
sL1597L
S'A Scheme for Transformation of Tolerance Specifications to Generalized Deviation Space for Use in Tolerance Synthesis and Analysis'
p4839
sL1598L
S'Topology Optimization of Compliant Mechanisms Using Evolutionary Algorithm With Design Geometry Encoded as a Graph'
p4840
sL1599L
S'Optimal Embedding in the Topology Design of Structures'
p4841
sL1600L
S'An Evolutionary Multi-Objective Optimization Approach to the Topology Optimization of Auxetic Structures'
p4842
sL1601L
S'Compliant Mechanism Design With Non-Linear Materials Using Topology Optimization'
p4843
sL1602L
S'An Interactive Virtual Environment for 3D Model Assembly With Video Immersion'
p4844
sL1603L
S'Modeling of Hydraulic Hose Paths'
p4845
sL1604L
S'Math-Based Performance Evaluation of an Experimental Car: Frontal Impact Crashworthiness'
p4846
ssb.