ccopy_reg
_reconstructor
p0
(c__main__
CitationNetwork
p1
c__builtin__
object
p2
Ntp3
Rp4
(dp5
S'network_dict'
p6
(dp7
L591L
c__builtin__
set
p8
((lp9
tp10
Rp11
sL592L
g8
((lp12
L848L
aL879L
atp13
Rp14
sL593L
g8
((lp15
L1403L
aL1123L
aL1516L
aL831L
atp16
Rp17
sL594L
g8
((lp18
L1365L
aL983L
atp19
Rp20
sL595L
g8
((lp21
tp22
Rp23
sL596L
g8
((lp24
L864L
aL1053L
aL749L
atp25
Rp26
sL597L
g8
((lp27
tp28
Rp29
sL598L
g8
((lp30
tp31
Rp32
sL599L
g8
((lp33
tp34
Rp35
sL600L
g8
((lp36
tp37
Rp38
sL601L
g8
((lp39
L1132L
atp40
Rp41
sL602L
g8
((lp42
L795L
atp43
Rp44
sL604L
g8
((lp45
tp46
Rp47
sL605L
g8
((lp48
L1416L
aL731L
atp49
Rp50
sL606L
g8
((lp51
tp52
Rp53
sL607L
g8
((lp54
L1101L
atp55
Rp56
sL608L
g8
((lp57
L1320L
atp58
Rp59
sL609L
g8
((lp60
tp61
Rp62
sL610L
g8
((lp63
tp64
Rp65
sL611L
g8
((lp66
tp67
Rp68
sL612L
g8
((lp69
tp70
Rp71
sL613L
g8
((lp72
tp73
Rp74
sL614L
g8
((lp75
L1040L
aL1287L
atp76
Rp77
sL615L
g8
((lp78
L766L
atp79
Rp80
sL616L
g8
((lp81
tp82
Rp83
sL617L
g8
((lp84
tp85
Rp86
sL618L
g8
((lp87
L1069L
aL750L
aL1287L
atp88
Rp89
sL619L
g8
((lp90
tp91
Rp92
sL620L
g8
((lp93
tp94
Rp95
sL621L
g8
((lp96
tp97
Rp98
sL622L
g8
((lp99
L754L
atp100
Rp101
sL623L
g8
((lp102
tp103
Rp104
sL624L
g8
((lp105
L754L
aL1532L
aL895L
atp106
Rp107
sL625L
g8
((lp108
L858L
aL751L
aL757L
aL750L
aL895L
atp109
Rp110
sL626L
g8
((lp111
L1108L
aL1532L
atp112
Rp113
sL627L
g8
((lp114
tp115
Rp116
sL628L
g8
((lp117
tp118
Rp119
sL629L
g8
((lp120
L724L
aL725L
aL727L
atp121
Rp122
sL630L
g8
((lp123
tp124
Rp125
sL631L
g8
((lp126
tp127
Rp128
sL632L
g8
((lp129
L1393L
aL1203L
aL1174L
aL1080L
aL1082L
aL1021L
atp130
Rp131
sL633L
g8
((lp132
tp133
Rp134
sL634L
g8
((lp135
tp136
Rp137
sL635L
g8
((lp138
tp139
Rp140
sL636L
g8
((lp141
L752L
atp142
Rp143
sL637L
g8
((lp144
L842L
atp145
Rp146
sL638L
g8
((lp147
tp148
Rp149
sL639L
g8
((lp150
L1089L
aL1349L
atp151
Rp152
sL640L
g8
((lp153
tp154
Rp155
sL641L
g8
((lp156
tp157
Rp158
sL642L
g8
((lp159
tp160
Rp161
sL643L
g8
((lp162
tp163
Rp164
sL644L
g8
((lp165
tp166
Rp167
sL645L
g8
((lp168
L920L
atp169
Rp170
sL646L
g8
((lp171
tp172
Rp173
sL647L
g8
((lp174
tp175
Rp176
sL648L
g8
((lp177
L1132L
aL717L
atp178
Rp179
sL649L
g8
((lp180
tp181
Rp182
sL650L
g8
((lp183
tp184
Rp185
sL651L
g8
((lp186
tp187
Rp188
sL652L
g8
((lp189
tp190
Rp191
sL653L
g8
((lp192
L1543L
atp193
Rp194
sL654L
g8
((lp195
tp196
Rp197
sL655L
g8
((lp198
L1010L
atp199
Rp200
sL656L
g8
((lp201
tp202
Rp203
sL657L
g8
((lp204
L1010L
aL1395L
aL1543L
atp205
Rp206
sL658L
g8
((lp207
tp208
Rp209
sL659L
g8
((lp210
tp211
Rp212
sL660L
g8
((lp213
tp214
Rp215
sL661L
g8
((lp216
tp217
Rp218
sL662L
g8
((lp219
tp220
Rp221
sL663L
g8
((lp222
L1320L
aL1323L
aL1069L
atp223
Rp224
sL664L
g8
((lp225
L769L
aL1069L
aL1200L
aL1010L
aL1271L
aL1080L
aL953L
atp226
Rp227
sL666L
g8
((lp228
tp229
Rp230
sL667L
g8
((lp231
tp232
Rp233
sL668L
g8
((lp234
tp235
Rp236
sL669L
g8
((lp237
L842L
atp238
Rp239
sL670L
g8
((lp240
tp241
Rp242
sL671L
g8
((lp243
tp244
Rp245
sL672L
g8
((lp246
L1115L
atp247
Rp248
sL673L
g8
((lp249
L752L
aL1069L
atp250
Rp251
sL674L
g8
((lp252
L793L
atp253
Rp254
sL675L
g8
((lp255
L1301L
atp256
Rp257
sL676L
g8
((lp258
L864L
aL1046L
aL927L
atp259
Rp260
sL677L
g8
((lp261
tp262
Rp263
sL678L
g8
((lp264
L1057L
aL812L
aL813L
aL814L
aL815L
atp265
Rp266
sL679L
g8
((lp267
L932L
aL819L
aL1188L
aL813L
atp268
Rp269
sL680L
g8
((lp270
L746L
aL1282L
aL1415L
atp271
Rp272
sL681L
g8
((lp273
tp274
Rp275
sL682L
g8
((lp276
L1301L
atp277
Rp278
sL683L
g8
((lp279
L770L
aL876L
atp280
Rp281
sL684L
g8
((lp282
tp283
Rp284
sL685L
g8
((lp285
L1000L
aL1577L
aL1264L
aL1197L
atp286
Rp287
sL686L
g8
((lp288
tp289
Rp290
sL687L
g8
((lp291
tp292
Rp293
sL688L
g8
((lp294
tp295
Rp296
sL689L
g8
((lp297
L1201L
aL1084L
aL1577L
aL1071L
atp298
Rp299
sL690L
g8
((lp300
L821L
aL693L
aL943L
atp301
Rp302
sL691L
g8
((lp303
tp304
Rp305
sL692L
g8
((lp306
L1084L
atp307
Rp308
sL693L
g8
((lp309
L944L
aL1073L
aL690L
aL821L
aL943L
atp310
Rp311
sL694L
g8
((lp312
tp313
Rp314
sL695L
g8
((lp315
L1200L
atp316
Rp317
sL696L
g8
((lp318
tp319
Rp320
sL697L
g8
((lp321
L1577L
aL1348L
aL1205L
aL1069L
atp322
Rp323
sL698L
g8
((lp324
L1393L
aL1085L
atp325
Rp326
sL699L
g8
((lp327
L1320L
aL1203L
atp328
Rp329
sL700L
g8
((lp330
tp331
Rp332
sL701L
g8
((lp333
tp334
Rp335
sL702L
g8
((lp336
tp337
Rp338
sL703L
g8
((lp339
tp340
Rp341
sL704L
g8
((lp342
L1365L
aL846L
aL1407L
atp343
Rp344
sL705L
g8
((lp345
tp346
Rp347
sL706L
g8
((lp348
tp349
Rp350
sL707L
g8
((lp351
L1170L
atp352
Rp353
sL708L
g8
((lp354
tp355
Rp356
sL709L
g8
((lp357
tp358
Rp359
sL710L
g8
((lp360
tp361
Rp362
sL711L
g8
((lp363
L1010L
aL1580L
aL1418L
atp364
Rp365
sL712L
g8
((lp366
tp367
Rp368
sL713L
g8
((lp369
L1418L
aL762L
atp370
Rp371
sL714L
g8
((lp372
tp373
Rp374
sL715L
g8
((lp375
tp376
Rp377
sL716L
g8
((lp378
tp379
Rp380
sL717L
g8
((lp381
L648L
aL1132L
aL773L
atp382
Rp383
sL718L
g8
((lp384
tp385
Rp386
sL719L
g8
((lp387
tp388
Rp389
sL720L
g8
((lp390
tp391
Rp392
sL721L
g8
((lp393
L854L
atp394
Rp395
sL722L
g8
((lp396
tp397
Rp398
sL723L
g8
((lp399
tp400
Rp401
sL724L
g8
((lp402
L629L
atp403
Rp404
sL725L
g8
((lp405
L629L
atp406
Rp407
sL726L
g8
((lp408
L1393L
aL1203L
aL1021L
aL1343L
atp409
Rp410
sL727L
g8
((lp411
L629L
atp412
Rp413
sL728L
g8
((lp414
tp415
Rp416
sL729L
g8
((lp417
tp418
Rp419
sL730L
g8
((lp420
tp421
Rp422
sL731L
g8
((lp423
L1416L
aL605L
atp424
Rp425
sL732L
g8
((lp426
L1048L
aL857L
aL1301L
aL1089L
atp427
Rp428
sL733L
g8
((lp429
tp430
Rp431
sL734L
g8
((lp432
tp433
Rp434
sL735L
g8
((lp435
L1226L
aL1419L
atp436
Rp437
sL736L
g8
((lp438
tp439
Rp440
sL737L
g8
((lp441
L1414L
atp442
Rp443
sL738L
g8
((lp444
L1577L
atp445
Rp446
sL739L
g8
((lp447
tp448
Rp449
sL740L
g8
((lp450
L1282L
aL1415L
aL1106L
aL978L
aL1530L
aL895L
atp451
Rp452
sL741L
g8
((lp453
tp454
Rp455
sL743L
g8
((lp456
tp457
Rp458
sL744L
g8
((lp459
L1039L
atp460
Rp461
sL745L
g8
((lp462
tp463
Rp464
sL746L
g8
((lp465
L680L
aL1188L
aL1557L
aL911L
atp466
Rp467
sL747L
g8
((lp468
tp469
Rp470
sL748L
g8
((lp471
tp472
Rp473
sL749L
g8
((lp474
L864L
aL596L
atp475
Rp476
sL750L
g8
((lp477
L618L
aL1069L
aL752L
aL625L
aL857L
aL858L
aL895L
atp478
Rp479
sL751L
g8
((lp480
L625L
aL861L
atp481
Rp482
sL752L
g8
((lp483
L673L
aL636L
aL1069L
aL750L
atp484
Rp485
sL753L
g8
((lp486
L1069L
atp487
Rp488
sL754L
g8
((lp489
L624L
aL1034L
aL1532L
aL861L
aL622L
atp490
Rp491
sL756L
g8
((lp492
tp493
Rp494
sL757L
g8
((lp495
L857L
aL625L
aL1302L
aL895L
atp496
Rp497
sL758L
g8
((lp498
L895L
atp499
Rp500
sL759L
g8
((lp501
tp502
Rp503
sL760L
g8
((lp504
tp505
Rp506
sL761L
g8
((lp507
L1121L
atp508
Rp509
sL762L
g8
((lp510
L713L
aL1010L
atp511
Rp512
sL763L
g8
((lp513
L1418L
atp514
Rp515
sL764L
g8
((lp516
tp517
Rp518
sL765L
g8
((lp519
L868L
atp520
Rp521
sL766L
g8
((lp522
L1029L
aL615L
atp523
Rp524
sL767L
g8
((lp525
tp526
Rp527
sL768L
g8
((lp528
L982L
atp529
Rp530
sL769L
g8
((lp531
L664L
aL1068L
atp532
Rp533
sL770L
g8
((lp534
L683L
aL876L
aL982L
atp535
Rp536
sL771L
g8
((lp537
tp538
Rp539
sL772L
g8
((lp540
tp541
Rp542
sL773L
g8
((lp543
L717L
atp544
Rp545
sL774L
g8
((lp546
tp547
Rp548
sL775L
g8
((lp549
tp550
Rp551
sL777L
g8
((lp552
L890L
atp553
Rp554
sL779L
g8
((lp555
tp556
Rp557
sL780L
g8
((lp558
tp559
Rp560
sL781L
g8
((lp561
tp562
Rp563
sL782L
g8
((lp564
L891L
atp565
Rp566
sL784L
g8
((lp567
tp568
Rp569
sL785L
g8
((lp570
tp571
Rp572
sL786L
g8
((lp573
tp574
Rp575
sL787L
g8
((lp576
tp577
Rp578
sL788L
g8
((lp579
L1584L
aL1541L
aL1086L
atp580
Rp581
sL789L
g8
((lp582
tp583
Rp584
sL790L
g8
((lp585
tp586
Rp587
sL791L
g8
((lp588
tp589
Rp590
sL792L
g8
((lp591
tp592
Rp593
sL793L
g8
((lp594
L674L
atp595
Rp596
sL794L
g8
((lp597
L1181L
atp598
Rp599
sL795L
g8
((lp600
L602L
atp601
Rp602
sL796L
g8
((lp603
L1185L
aL1186L
aL1187L
aL1349L
aL1222L
aL1546L
aL1557L
atp604
Rp605
sL797L
g8
((lp606
L915L
aL1021L
aL1327L
atp607
Rp608
sL798L
g8
((lp609
L898L
atp610
Rp611
sL799L
g8
((lp612
tp613
Rp614
sL800L
g8
((lp615
L1264L
atp616
Rp617
sL801L
g8
((lp618
L1168L
aL1392L
aL1010L
atp619
Rp620
sL802L
g8
((lp621
L1008L
atp622
Rp623
sL803L
g8
((lp624
L1238L
aL1197L
aL1366L
aL911L
atp625
Rp626
sL804L
g8
((lp627
tp628
Rp629
sL805L
g8
((lp630
L907L
atp631
Rp632
sL806L
g8
((lp633
tp634
Rp635
sL807L
g8
((lp636
tp637
Rp638
sL808L
g8
((lp639
L1537L
aL1287L
aL1384L
aL1321L
aL1040L
aL1577L
aL921L
atp640
Rp641
sL809L
g8
((lp642
tp643
Rp644
sL810L
g8
((lp645
tp646
Rp647
sL811L
g8
((lp648
tp649
Rp650
sL812L
g8
((lp651
L1048L
aL1353L
aL678L
atp652
Rp653
sL813L
g8
((lp654
L932L
aL933L
aL678L
aL679L
aL1418L
aL1048L
atp655
Rp656
sL814L
g8
((lp657
L1058L
aL678L
atp658
Rp659
sL815L
g8
((lp660
L678L
aL926L
atp661
Rp662
sL816L
g8
((lp663
L1248L
aL1547L
aL932L
aL1054L
atp664
Rp665
sL817L
g8
((lp666
L1353L
aL1057L
atp667
Rp668
sL818L
g8
((lp669
L1001L
atp670
Rp671
sL819L
g8
((lp672
L679L
aL1239L
atp673
Rp674
sL820L
g8
((lp675
tp676
Rp677
sL821L
g8
((lp678
L690L
aL693L
atp679
Rp680
sL822L
g8
((lp681
L1200L
atp682
Rp683
sL823L
g8
((lp684
L1010L
aL903L
atp685
Rp686
sL824L
g8
((lp687
L1200L
aL946L
atp688
Rp689
sL825L
g8
((lp690
L947L
atp691
Rp692
sL826L
g8
((lp693
tp694
Rp695
sL828L
g8
((lp696
tp697
Rp698
sL829L
g8
((lp699
tp700
Rp701
sL830L
g8
((lp702
tp703
Rp704
sL831L
g8
((lp705
L1516L
aL1124L
aL593L
atp706
Rp707
sL832L
g8
((lp708
tp709
Rp710
sL833L
g8
((lp711
tp712
Rp713
sL834L
g8
((lp714
tp715
Rp716
sL836L
g8
((lp717
tp718
Rp719
sL837L
g8
((lp720
tp721
Rp722
sL838L
g8
((lp723
tp724
Rp725
sL839L
g8
((lp726
tp727
Rp728
sL840L
g8
((lp729
tp730
Rp731
sL841L
g8
((lp732
tp733
Rp734
sL842L
g8
((lp735
L669L
aL1037L
aL637L
atp736
Rp737
sL843L
g8
((lp738
L973L
atp739
Rp740
sL845L
g8
((lp741
tp742
Rp743
sL846L
g8
((lp744
L704L
atp745
Rp746
sL847L
g8
((lp747
tp748
Rp749
sL848L
g8
((lp750
L592L
atp751
Rp752
sL849L
g8
((lp753
tp754
Rp755
sL850L
g8
((lp756
tp757
Rp758
sL851L
g8
((lp759
tp760
Rp761
sL852L
g8
((lp762
tp763
Rp764
sL853L
g8
((lp765
tp766
Rp767
sL854L
g8
((lp768
L721L
atp769
Rp770
sL855L
g8
((lp771
tp772
Rp773
sL856L
g8
((lp774
L1532L
atp775
Rp776
sL857L
g8
((lp777
L859L
aL732L
aL757L
aL750L
atp778
Rp779
sL858L
g8
((lp780
L625L
aL750L
atp781
Rp782
sL859L
g8
((lp783
L857L
atp784
Rp785
sL860L
g8
((lp786
tp787
Rp788
sL861L
g8
((lp789
L754L
aL751L
atp790
Rp791
sL862L
g8
((lp792
tp793
Rp794
sL863L
g8
((lp795
tp796
Rp797
sL864L
g8
((lp798
L676L
aL749L
aL596L
aL1046L
aL1055L
aL1053L
aL1503L
atp799
Rp800
sL865L
g8
((lp801
tp802
Rp803
sL866L
g8
((lp804
tp805
Rp806
sL867L
g8
((lp807
tp808
Rp809
sL868L
g8
((lp810
L765L
atp811
Rp812
sL869L
g8
((lp813
tp814
Rp815
sL870L
g8
((lp816
tp817
Rp818
sL871L
g8
((lp819
L1600L
aL1601L
aL1599L
atp820
Rp821
sL872L
g8
((lp822
L1231L
atp823
Rp824
sL873L
g8
((lp825
L1543L
aL1395L
aL1271L
aL1013L
aL1079L
atp826
Rp827
sL874L
g8
((lp828
L1366L
atp829
Rp830
sL875L
g8
((lp831
tp832
Rp833
sL876L
g8
((lp834
L770L
aL683L
aL1196L
aL982L
atp835
Rp836
sL877L
g8
((lp837
tp838
Rp839
sL878L
g8
((lp840
tp841
Rp842
sL879L
g8
((lp843
L592L
aL1516L
atp844
Rp845
sL880L
g8
((lp846
tp847
Rp848
sL881L
g8
((lp849
L971L
atp850
Rp851
sL882L
g8
((lp852
L1553L
aL1134L
atp853
Rp854
sL883L
g8
((lp855
tp856
Rp857
sL884L
g8
((lp858
tp859
Rp860
sL885L
g8
((lp861
tp862
Rp863
sL886L
g8
((lp864
tp865
Rp866
sL887L
g8
((lp867
tp868
Rp869
sL888L
g8
((lp870
tp871
Rp872
sL889L
g8
((lp873
L1024L
atp874
Rp875
sL890L
g8
((lp876
L777L
atp877
Rp878
sL891L
g8
((lp879
L1317L
aL782L
atp880
Rp881
sL892L
g8
((lp882
L1082L
atp883
Rp884
sL894L
g8
((lp885
tp886
Rp887
sL895L
g8
((lp888
L740L
aL758L
aL1255L
aL1034L
aL750L
aL624L
aL625L
aL1108L
aL757L
aL1046L
aL1532L
atp889
Rp890
sL896L
g8
((lp891
tp892
Rp893
sL897L
g8
((lp894
L1301L
atp895
Rp896
sL898L
g8
((lp897
L798L
atp898
Rp899
sL899L
g8
((lp900
L1162L
aL1046L
atp901
Rp902
sL900L
g8
((lp903
tp904
Rp905
sL901L
g8
((lp906
L1222L
atp907
Rp908
sL902L
g8
((lp909
L1007L
aL1542L
aL1543L
atp910
Rp911
sL903L
g8
((lp912
L823L
aL1543L
aL1204L
aL1271L
atp913
Rp914
sL904L
g8
((lp915
tp916
Rp917
sL905L
g8
((lp918
tp919
Rp920
sL906L
g8
((lp921
L1543L
aL1321L
aL1327L
aL1393L
aL1080L
aL1082L
atp922
Rp923
sL907L
g8
((lp924
L805L
aL1222L
atp925
Rp926
sL908L
g8
((lp927
L1577L
aL1203L
atp928
Rp929
sL909L
g8
((lp930
tp931
Rp932
sL910L
g8
((lp933
L1203L
aL1284L
aL1197L
aL1238L
atp934
Rp935
sL911L
g8
((lp936
L746L
aL803L
aL933L
aL911L
atp937
Rp938
sL912L
g8
((lp939
L1177L
atp940
Rp941
sL913L
g8
((lp942
tp943
Rp944
sL914L
g8
((lp945
tp946
Rp947
sL915L
g8
((lp948
L1170L
aL797L
atp949
Rp950
sL916L
g8
((lp951
tp952
Rp953
sL917L
g8
((lp954
L1006L
atp955
Rp956
sL918L
g8
((lp957
tp958
Rp959
sL919L
g8
((lp960
tp961
Rp962
sL920L
g8
((lp963
L645L
atp964
Rp965
sL921L
g8
((lp966
L808L
atp967
Rp968
sL922L
g8
((lp969
tp970
Rp971
sL923L
g8
((lp972
tp973
Rp974
sL924L
g8
((lp975
L1435L
aL1119L
atp976
Rp977
sL925L
g8
((lp978
L1050L
aL1189L
atp979
Rp980
sL926L
g8
((lp981
L1057L
aL815L
atp982
Rp983
sL927L
g8
((lp984
L1057L
aL1418L
aL676L
atp985
Rp986
sL928L
g8
((lp987
tp988
Rp989
sL929L
g8
((lp990
L1049L
atp991
Rp992
sL930L
g8
((lp993
L1001L
aL1046L
atp994
Rp995
sL931L
g8
((lp996
L1530L
aL1107L
atp997
Rp998
sL932L
g8
((lp999
L816L
aL813L
aL933L
aL679L
atp1000
Rp1001
sL933L
g8
((lp1002
L1313L
aL1188L
aL1353L
aL1546L
aL1547L
aL813L
aL911L
aL1557L
aL932L
atp1003
Rp1004
sL934L
g8
((lp1005
tp1006
Rp1007
sL935L
g8
((lp1008
L1184L
aL1557L
atp1009
Rp1010
sL936L
g8
((lp1011
tp1012
Rp1013
sL937L
g8
((lp1014
L1353L
aL1251L
aL1188L
aL1191L
atp1015
Rp1016
sL938L
g8
((lp1017
L1239L
atp1018
Rp1019
sL939L
g8
((lp1020
tp1021
Rp1022
sL940L
g8
((lp1023
tp1024
Rp1025
sL941L
g8
((lp1026
L1084L
aL1068L
atp1027
Rp1028
sL942L
g8
((lp1029
L1201L
aL1339L
atp1030
Rp1031
sL943L
g8
((lp1032
L690L
aL1341L
aL693L
atp1033
Rp1034
sL944L
g8
((lp1035
L1067L
aL1341L
aL693L
atp1036
Rp1037
sL945L
g8
((lp1038
tp1039
Rp1040
sL946L
g8
((lp1041
L1200L
aL824L
aL1085L
atp1042
Rp1043
sL947L
g8
((lp1044
L825L
atp1045
Rp1046
sL948L
g8
((lp1047
L1084L
aL1205L
atp1048
Rp1049
sL949L
g8
((lp1050
tp1051
Rp1052
sL950L
g8
((lp1053
L1080L
aL1203L
aL1205L
atp1054
Rp1055
sL951L
g8
((lp1056
tp1057
Rp1058
sL952L
g8
((lp1059
L1264L
aL1577L
aL1250L
aL1395L
atp1060
Rp1061
sL953L
g8
((lp1062
L664L
aL1577L
atp1063
Rp1064
sL954L
g8
((lp1065
tp1066
Rp1067
sL955L
g8
((lp1068
tp1069
Rp1070
sL956L
g8
((lp1071
tp1072
Rp1073
sL957L
g8
((lp1074
tp1075
Rp1076
sL958L
g8
((lp1077
tp1078
Rp1079
sL960L
g8
((lp1080
tp1081
Rp1082
sL961L
g8
((lp1083
tp1084
Rp1085
sL962L
g8
((lp1086
tp1087
Rp1088
sL963L
g8
((lp1089
tp1090
Rp1091
sL964L
g8
((lp1092
tp1093
Rp1094
sL965L
g8
((lp1095
tp1096
Rp1097
sL966L
g8
((lp1098
tp1099
Rp1100
sL967L
g8
((lp1101
tp1102
Rp1103
sL968L
g8
((lp1104
tp1105
Rp1106
sL969L
g8
((lp1107
L1186L
aL1187L
aL1428L
aL1222L
atp1108
Rp1109
sL970L
g8
((lp1110
L1132L
aL1222L
atp1111
Rp1112
sL971L
g8
((lp1113
L881L
atp1114
Rp1115
sL972L
g8
((lp1116
tp1117
Rp1118
sL973L
g8
((lp1119
L843L
atp1120
Rp1121
sL974L
g8
((lp1122
L1550L
aL1255L
atp1123
Rp1124
sL975L
g8
((lp1125
tp1126
Rp1127
sL976L
g8
((lp1128
tp1129
Rp1130
sL977L
g8
((lp1131
tp1132
Rp1133
sL978L
g8
((lp1134
L740L
aL1238L
atp1135
Rp1136
sL979L
g8
((lp1137
tp1138
Rp1139
sL980L
g8
((lp1140
L1414L
atp1141
Rp1142
sL981L
g8
((lp1143
tp1144
Rp1145
sL982L
g8
((lp1146
L768L
aL876L
aL770L
aL1196L
atp1147
Rp1148
sL983L
g8
((lp1149
L594L
atp1150
Rp1151
sL984L
g8
((lp1152
tp1153
Rp1154
sL985L
g8
((lp1155
tp1156
Rp1157
sL986L
g8
((lp1158
L1110L
aL1422L
atp1159
Rp1160
sL987L
g8
((lp1161
L1141L
atp1162
Rp1163
sL988L
g8
((lp1164
tp1165
Rp1166
sL989L
g8
((lp1167
tp1168
Rp1169
sL990L
g8
((lp1170
tp1171
Rp1172
sL991L
g8
((lp1173
L1134L
atp1174
Rp1175
sL992L
g8
((lp1176
tp1177
Rp1178
sL993L
g8
((lp1179
L1317L
atp1180
Rp1181
sL994L
g8
((lp1182
L1368L
atp1183
Rp1184
sL995L
g8
((lp1185
L1368L
atp1186
Rp1187
sL996L
g8
((lp1188
tp1189
Rp1190
sL997L
g8
((lp1191
tp1192
Rp1193
sL998L
g8
((lp1194
tp1195
Rp1196
sL999L
g8
((lp1197
L1346L
atp1198
Rp1199
sL1000L
g8
((lp1200
L1169L
aL685L
atp1201
Rp1202
sL1001L
g8
((lp1203
L818L
aL930L
atp1204
Rp1205
sL1002L
g8
((lp1206
L1162L
atp1207
Rp1208
sL1003L
g8
((lp1209
tp1210
Rp1211
sL1004L
g8
((lp1212
tp1213
Rp1214
sL1005L
g8
((lp1215
tp1216
Rp1217
sL1006L
g8
((lp1218
L1106L
aL917L
atp1219
Rp1220
sL1007L
g8
((lp1221
L1010L
aL902L
aL1542L
atp1222
Rp1223
sL1008L
g8
((lp1224
L802L
aL1250L
aL1327L
aL1271L
aL1543L
atp1225
Rp1226
sL1009L
g8
((lp1227
tp1228
Rp1229
sL1010L
g8
((lp1230
L801L
aL1250L
aL1542L
aL711L
aL1321L
aL1580L
aL1391L
aL1168L
aL657L
aL823L
aL664L
aL762L
aL1007L
aL655L
aL1341L
atp1231
Rp1232
sL1012L
g8
((lp1233
L1012L
atp1234
Rp1235
sL1013L
g8
((lp1236
L1592L
aL873L
aL1271L
atp1237
Rp1238
sL1014L
g8
((lp1239
tp1240
Rp1241
sL1015L
g8
((lp1242
tp1243
Rp1244
sL1016L
g8
((lp1245
tp1246
Rp1247
sL1017L
g8
((lp1248
tp1249
Rp1250
sL1018L
g8
((lp1251
tp1252
Rp1253
sL1019L
g8
((lp1254
tp1255
Rp1256
sL1020L
g8
((lp1257
tp1258
Rp1259
sL1021L
g8
((lp1260
L632L
aL797L
aL726L
atp1261
Rp1262
sL1022L
g8
((lp1263
tp1264
Rp1265
sL1023L
g8
((lp1266
tp1267
Rp1268
sL1024L
g8
((lp1269
L1553L
aL889L
atp1270
Rp1271
sL1025L
g8
((lp1272
L1515L
atp1273
Rp1274
sL1026L
g8
((lp1275
tp1276
Rp1277
sL1027L
g8
((lp1278
tp1279
Rp1280
sL1028L
g8
((lp1281
tp1282
Rp1283
sL1029L
g8
((lp1284
L766L
aL1367L
atp1285
Rp1286
sL1030L
g8
((lp1287
L1134L
aL1367L
atp1288
Rp1289
sL1031L
g8
((lp1290
tp1291
Rp1292
sL1032L
g8
((lp1293
tp1294
Rp1295
sL1033L
g8
((lp1296
tp1297
Rp1298
sL1034L
g8
((lp1299
L754L
aL895L
atp1300
Rp1301
sL1035L
g8
((lp1302
tp1303
Rp1304
sL1036L
g8
((lp1305
L1182L
atp1306
Rp1307
sL1037L
g8
((lp1308
L842L
atp1309
Rp1310
sL1038L
g8
((lp1311
tp1312
Rp1313
sL1039L
g8
((lp1314
L744L
aL1222L
atp1315
Rp1316
sL1040L
g8
((lp1317
L808L
aL614L
aL1287L
atp1318
Rp1319
sL1041L
g8
((lp1320
L1366L
atp1321
Rp1322
sL1042L
g8
((lp1323
tp1324
Rp1325
sL1043L
g8
((lp1326
L1366L
atp1327
Rp1328
sL1044L
g8
((lp1329
tp1330
Rp1331
sL1045L
g8
((lp1332
tp1333
Rp1334
sL1046L
g8
((lp1335
L864L
aL930L
aL899L
aL676L
aL1547L
aL1048L
aL895L
atp1336
Rp1337
sL1048L
g8
((lp1338
L1547L
aL812L
aL813L
aL1046L
aL732L
aL1183L
atp1339
Rp1340
sL1049L
g8
((lp1341
L929L
atp1342
Rp1343
sL1050L
g8
((lp1344
L1057L
aL1189L
aL925L
atp1345
Rp1346
sL1052L
g8
((lp1347
L1248L
aL1313L
aL1060L
aL1349L
aL1546L
aL1547L
aL1557L
aL1052L
atp1348
Rp1349
sL1053L
g8
((lp1350
L864L
aL1196L
aL596L
aL1109L
aL1239L
aL1557L
atp1351
Rp1352
sL1054L
g8
((lp1353
L1353L
aL1546L
aL1547L
aL1548L
aL1550L
aL816L
aL1557L
atp1354
Rp1355
sL1055L
g8
((lp1356
L864L
atp1357
Rp1358
sL1056L
g8
((lp1359
L1366L
atp1360
Rp1361
sL1057L
g8
((lp1362
L817L
aL1050L
aL678L
aL926L
aL927L
atp1363
Rp1364
sL1058L
g8
((lp1365
L814L
atp1366
Rp1367
sL1059L
g8
((lp1368
L1416L
atp1369
Rp1370
sL1060L
g8
((lp1371
L1248L
aL1251L
aL1190L
aL1191L
aL1193L
aL1557L
aL1353L
aL1052L
atp1372
Rp1373
sL1061L
g8
((lp1374
tp1375
Rp1376
sL1062L
g8
((lp1377
L1358L
atp1378
Rp1379
sL1063L
g8
((lp1380
tp1381
Rp1382
sL1064L
g8
((lp1383
L1589L
aL1358L
atp1384
Rp1385
sL1065L
g8
((lp1386
tp1387
Rp1388
sL1066L
g8
((lp1389
tp1390
Rp1391
sL1067L
g8
((lp1392
L944L
aL1577L
aL1200L
aL1264L
aL1267L
aL1342L
atp1393
Rp1394
sL1068L
g8
((lp1395
L1201L
aL941L
aL1390L
aL769L
atp1396
Rp1397
sL1069L
g8
((lp1398
L673L
aL618L
aL750L
aL752L
aL753L
aL1366L
aL663L
aL664L
aL697L
atp1399
Rp1400
sL1070L
g8
((lp1401
L1072L
aL1201L
atp1402
Rp1403
sL1071L
g8
((lp1404
L1264L
aL1577L
aL1342L
aL689L
atp1405
Rp1406
sL1072L
g8
((lp1407
L1070L
atp1408
Rp1409
sL1073L
g8
((lp1410
L1264L
aL1577L
aL693L
atp1411
Rp1412
sL1074L
g8
((lp1413
L1348L
atp1414
Rp1415
sL1075L
g8
((lp1416
tp1417
Rp1418
sL1076L
g8
((lp1419
tp1420
Rp1421
sL1077L
g8
((lp1422
tp1423
Rp1424
sL1078L
g8
((lp1425
L1264L
aL1577L
aL1342L
atp1426
Rp1427
sL1079L
g8
((lp1428
L873L
aL1271L
atp1429
Rp1430
sL1080L
g8
((lp1431
L1080L
aL632L
aL906L
aL664L
aL950L
atp1432
Rp1433
sL1081L
g8
((lp1434
tp1435
Rp1436
sL1082L
g8
((lp1437
L632L
aL906L
aL892L
atp1438
Rp1439
sL1083L
g8
((lp1440
tp1441
Rp1442
sL1084L
g8
((lp1443
L692L
aL948L
aL941L
aL689L
atp1444
Rp1445
sL1085L
g8
((lp1446
L1200L
aL698L
aL1205L
aL1286L
aL946L
atp1447
Rp1448
sL1086L
g8
((lp1449
L788L
atp1450
Rp1451
sL1087L
g8
((lp1452
tp1453
Rp1454
sL1088L
g8
((lp1455
L1301L
atp1456
Rp1457
sL1089L
g8
((lp1458
L732L
aL639L
atp1459
Rp1460
sL1090L
g8
((lp1461
tp1462
Rp1463
sL1091L
g8
((lp1464
tp1465
Rp1466
sL1092L
g8
((lp1467
tp1468
Rp1469
sL1093L
g8
((lp1470
tp1471
Rp1472
sL1094L
g8
((lp1473
tp1474
Rp1475
sL1095L
g8
((lp1476
L1326L
atp1477
Rp1478
sL1096L
g8
((lp1479
L1282L
aL1399L
aL1325L
aL1238L
aL1415L
atp1480
Rp1481
sL1097L
g8
((lp1482
tp1483
Rp1484
sL1098L
g8
((lp1485
tp1486
Rp1487
sL1099L
g8
((lp1488
tp1489
Rp1490
sL1100L
g8
((lp1491
tp1492
Rp1493
sL1101L
g8
((lp1494
L607L
atp1495
Rp1496
sL1102L
g8
((lp1497
tp1498
Rp1499
sL1103L
g8
((lp1500
tp1501
Rp1502
sL1104L
g8
((lp1503
tp1504
Rp1505
sL1105L
g8
((lp1506
tp1507
Rp1508
sL1106L
g8
((lp1509
L740L
aL1006L
atp1510
Rp1511
sL1107L
g8
((lp1512
L1530L
aL931L
atp1513
Rp1514
sL1108L
g8
((lp1515
L626L
aL895L
atp1516
Rp1517
sL1109L
g8
((lp1518
L1053L
atp1519
Rp1520
sL1110L
g8
((lp1521
L986L
aL1422L
atp1522
Rp1523
sL1111L
g8
((lp1524
tp1525
Rp1526
sL1112L
g8
((lp1527
tp1528
Rp1529
sL1113L
g8
((lp1530
tp1531
Rp1532
sL1114L
g8
((lp1533
tp1534
Rp1535
sL1115L
g8
((lp1536
L672L
aL1250L
atp1537
Rp1538
sL1116L
g8
((lp1539
L1282L
atp1540
Rp1541
sL1117L
g8
((lp1542
tp1543
Rp1544
sL1118L
g8
((lp1545
tp1546
Rp1547
sL1119L
g8
((lp1548
L1435L
aL924L
atp1549
Rp1550
sL1120L
g8
((lp1551
tp1552
Rp1553
sL1121L
g8
((lp1554
L761L
atp1555
Rp1556
sL1122L
g8
((lp1557
tp1558
Rp1559
sL1123L
g8
((lp1560
L593L
aL1124L
atp1561
Rp1562
sL1124L
g8
((lp1563
L1403L
aL1123L
aL831L
atp1564
Rp1565
sL1125L
g8
((lp1566
tp1567
Rp1568
sL1126L
g8
((lp1569
tp1570
Rp1571
sL1127L
g8
((lp1572
tp1573
Rp1574
sL1128L
g8
((lp1575
tp1576
Rp1577
sL1129L
g8
((lp1578
tp1579
Rp1580
sL1130L
g8
((lp1581
tp1582
Rp1583
sL1131L
g8
((lp1584
tp1585
Rp1586
sL1132L
g8
((lp1587
L648L
aL601L
aL970L
aL717L
atp1588
Rp1589
sL1133L
g8
((lp1590
L1321L
aL1327L
aL1543L
atp1591
Rp1592
sL1134L
g8
((lp1593
L1553L
aL882L
aL1030L
aL991L
atp1594
Rp1595
sL1135L
g8
((lp1596
tp1597
Rp1598
sL1136L
g8
((lp1599
tp1600
Rp1601
sL1137L
g8
((lp1602
L1137L
atp1603
Rp1604
sL1138L
g8
((lp1605
L1269L
atp1606
Rp1607
sL1139L
g8
((lp1608
L1252L
atp1609
Rp1610
sL1140L
g8
((lp1611
tp1612
Rp1613
sL1141L
g8
((lp1614
L987L
atp1615
Rp1616
sL1142L
g8
((lp1617
tp1618
Rp1619
sL1143L
g8
((lp1620
tp1621
Rp1622
sL1144L
g8
((lp1623
tp1624
Rp1625
sL1145L
g8
((lp1626
tp1627
Rp1628
sL1146L
g8
((lp1629
tp1630
Rp1631
sL1147L
g8
((lp1632
tp1633
Rp1634
sL1148L
g8
((lp1635
tp1636
Rp1637
sL1149L
g8
((lp1638
tp1639
Rp1640
sL1150L
g8
((lp1641
tp1642
Rp1643
sL1151L
g8
((lp1644
L1427L
atp1645
Rp1646
sL1152L
g8
((lp1647
tp1648
Rp1649
sL1153L
g8
((lp1650
tp1651
Rp1652
sL1155L
g8
((lp1653
tp1654
Rp1655
sL1156L
g8
((lp1656
tp1657
Rp1658
sL1157L
g8
((lp1659
tp1660
Rp1661
sL1158L
g8
((lp1662
tp1663
Rp1664
sL1159L
g8
((lp1665
L1367L
atp1666
Rp1667
sL1160L
g8
((lp1668
tp1669
Rp1670
sL1161L
g8
((lp1671
tp1672
Rp1673
sL1162L
g8
((lp1674
L1002L
aL899L
aL1239L
atp1675
Rp1676
sL1163L
g8
((lp1677
tp1678
Rp1679
sL1164L
g8
((lp1680
tp1681
Rp1682
sL1165L
g8
((lp1683
tp1684
Rp1685
sL1166L
g8
((lp1686
L1271L
atp1687
Rp1688
sL1167L
g8
((lp1689
tp1690
Rp1691
sL1168L
g8
((lp1692
L801L
aL1010L
atp1693
Rp1694
sL1169L
g8
((lp1695
L1000L
atp1696
Rp1697
sL1170L
g8
((lp1698
L915L
aL707L
atp1699
Rp1700
sL1171L
g8
((lp1701
tp1702
Rp1703
sL1172L
g8
((lp1704
tp1705
Rp1706
sL1173L
g8
((lp1707
tp1708
Rp1709
sL1174L
g8
((lp1710
L632L
atp1711
Rp1712
sL1175L
g8
((lp1713
tp1714
Rp1715
sL1176L
g8
((lp1716
tp1717
Rp1718
sL1177L
g8
((lp1719
L1232L
aL912L
atp1720
Rp1721
sL1178L
g8
((lp1722
L1385L
aL1271L
aL1319L
atp1723
Rp1724
sL1179L
g8
((lp1725
L1288L
aL1406L
atp1726
Rp1727
sL1180L
g8
((lp1728
tp1729
Rp1730
sL1181L
g8
((lp1731
L794L
atp1732
Rp1733
sL1182L
g8
((lp1734
L1036L
atp1735
Rp1736
sL1183L
g8
((lp1737
L1048L
atp1738
Rp1739
sL1184L
g8
((lp1740
L1248L
aL1309L
aL935L
atp1741
Rp1742
sL1185L
g8
((lp1743
L796L
aL1239L
atp1744
Rp1745
sL1186L
g8
((lp1746
L969L
aL1187L
aL796L
aL1222L
atp1747
Rp1748
sL1187L
g8
((lp1749
L969L
aL1186L
aL1428L
aL796L
atp1750
Rp1751
sL1188L
g8
((lp1752
L1313L
aL1251L
aL933L
aL679L
aL937L
aL1546L
aL746L
atp1753
Rp1754
sL1189L
g8
((lp1755
L1248L
aL925L
aL1050L
aL1349L
aL1239L
atp1756
Rp1757
sL1190L
g8
((lp1758
L1328L
aL1060L
atp1759
Rp1760
sL1191L
g8
((lp1761
L937L
aL1546L
aL1547L
aL1060L
atp1762
Rp1763
sL1192L
g8
((lp1764
L1557L
atp1765
Rp1766
sL1193L
g8
((lp1767
L1251L
aL1060L
atp1768
Rp1769
sL1194L
g8
((lp1770
L1239L
atp1771
Rp1772
sL1195L
g8
((lp1773
tp1774
Rp1775
sL1196L
g8
((lp1776
L876L
aL1053L
aL982L
atp1777
Rp1778
sL1197L
g8
((lp1779
L803L
aL1577L
aL1578L
aL685L
aL910L
aL1264L
atp1780
Rp1781
sL1198L
g8
((lp1782
L1250L
aL1395L
aL1339L
aL1341L
aL1342L
aL1343L
atp1783
Rp1784
sL1199L
g8
((lp1785
L1220L
aL1577L
aL1264L
aL1493L
aL1307L
aL1342L
atp1786
Rp1787
sL1200L
g8
((lp1788
L1578L
aL1067L
aL664L
aL946L
aL1267L
aL822L
aL695L
aL824L
aL1085L
atp1789
Rp1790
sL1201L
g8
((lp1791
L1068L
aL1070L
aL1264L
aL689L
aL942L
aL1342L
atp1792
Rp1793
sL1202L
g8
((lp1794
L1264L
aL1577L
aL1343L
aL1295L
atp1795
Rp1796
sL1203L
g8
((lp1797
L1284L
aL950L
aL1577L
aL908L
aL910L
aL726L
aL1366L
aL632L
aL699L
atp1798
Rp1799
sL1204L
g8
((lp1800
L1337L
aL903L
aL1271L
atp1801
Rp1802
sL1205L
g8
((lp1803
L1347L
aL1284L
aL1577L
aL1264L
aL948L
aL950L
aL1559L
aL697L
aL1085L
atp1804
Rp1805
sL1206L
g8
((lp1806
L1271L
atp1807
Rp1808
sL1207L
g8
((lp1809
tp1810
Rp1811
sL1208L
g8
((lp1812
tp1813
Rp1814
sL1209L
g8
((lp1815
tp1816
Rp1817
sL1210L
g8
((lp1818
tp1819
Rp1820
sL1211L
g8
((lp1821
tp1822
Rp1823
sL1212L
g8
((lp1824
tp1825
Rp1826
sL1213L
g8
((lp1827
tp1828
Rp1829
sL1214L
g8
((lp1830
tp1831
Rp1832
sL1215L
g8
((lp1833
tp1834
Rp1835
sL1216L
g8
((lp1836
tp1837
Rp1838
sL1217L
g8
((lp1839
tp1840
Rp1841
sL1218L
g8
((lp1842
tp1843
Rp1844
sL1219L
g8
((lp1845
tp1846
Rp1847
sL1220L
g8
((lp1848
L1348L
aL1493L
aL1199L
atp1849
Rp1850
sL1221L
g8
((lp1851
tp1852
Rp1853
sL1222L
g8
((lp1854
L1186L
aL901L
aL969L
aL970L
aL907L
aL1039L
aL796L
atp1855
Rp1856
sL1223L
g8
((lp1857
L1515L
atp1858
Rp1859
sL1224L
g8
((lp1860
tp1861
Rp1862
sL1225L
g8
((lp1863
tp1864
Rp1865
sL1226L
g8
((lp1866
L1414L
aL735L
atp1867
Rp1868
sL1228L
g8
((lp1869
tp1870
Rp1871
sL1229L
g8
((lp1872
tp1873
Rp1874
sL1230L
g8
((lp1875
tp1876
Rp1877
sL1231L
g8
((lp1878
L872L
atp1879
Rp1880
sL1232L
g8
((lp1881
L1177L
atp1882
Rp1883
sL1233L
g8
((lp1884
L1398L
atp1885
Rp1886
sL1234L
g8
((lp1887
tp1888
Rp1889
sL1236L
g8
((lp1890
tp1891
Rp1892
sL1237L
g8
((lp1893
tp1894
Rp1895
sL1238L
g8
((lp1896
L1096L
aL978L
aL803L
aL910L
atp1897
Rp1898
sL1239L
g8
((lp1899
L1185L
aL1189L
aL938L
aL1053L
aL819L
aL1194L
aL1239L
aL1162L
atp1900
Rp1901
sL1240L
g8
((lp1902
tp1903
Rp1904
sL1241L
g8
((lp1905
L1399L
atp1906
Rp1907
sL1242L
g8
((lp1908
tp1909
Rp1910
sL1243L
g8
((lp1911
L1553L
atp1912
Rp1913
sL1244L
g8
((lp1914
tp1915
Rp1916
sL1245L
g8
((lp1917
tp1918
Rp1919
sL1246L
g8
((lp1920
tp1921
Rp1922
sL1247L
g8
((lp1923
tp1924
Rp1925
sL1248L
g8
((lp1926
L1184L
aL1060L
aL1189L
aL1352L
aL816L
aL1052L
atp1927
Rp1928
sL1249L
g8
((lp1929
tp1930
Rp1931
sL1250L
g8
((lp1932
L1008L
aL952L
aL1010L
aL1115L
aL1198L
atp1933
Rp1934
sL1251L
g8
((lp1935
L1193L
aL1060L
aL1188L
aL1349L
aL937L
atp1936
Rp1937
sL1252L
g8
((lp1938
L1368L
aL1139L
atp1939
Rp1940
sL1253L
g8
((lp1941
L1540L
atp1942
Rp1943
sL1254L
g8
((lp1944
tp1945
Rp1946
sL1255L
g8
((lp1947
L974L
aL895L
atp1948
Rp1949
sL1256L
g8
((lp1950
tp1951
Rp1952
sL1257L
g8
((lp1953
L1410L
atp1954
Rp1955
sL1258L
g8
((lp1956
tp1957
Rp1958
sL1259L
g8
((lp1959
tp1960
Rp1961
sL1260L
g8
((lp1962
tp1963
Rp1964
sL1261L
g8
((lp1965
L1422L
atp1966
Rp1967
sL1262L
g8
((lp1968
L1376L
aL1382L
atp1969
Rp1970
sL1263L
g8
((lp1971
tp1972
Rp1973
sL1264L
g8
((lp1974
L800L
aL1199L
aL1284L
aL1073L
aL1577L
aL1067L
aL1071L
aL685L
aL1197L
aL1295L
aL1201L
aL1202L
aL1205L
aL1078L
aL952L
aL1307L
aL1308L
atp1975
Rp1976
sL1265L
g8
((lp1977
tp1978
Rp1979
sL1266L
g8
((lp1980
tp1981
Rp1982
sL1267L
g8
((lp1983
L1200L
aL1067L
atp1984
Rp1985
sL1268L
g8
((lp1986
tp1987
Rp1988
sL1269L
g8
((lp1989
L1138L
atp1990
Rp1991
sL1270L
g8
((lp1992
L1353L
aL1547L
atp1993
Rp1994
sL1271L
g8
((lp1995
L1543L
aL873L
aL903L
aL1166L
aL1008L
aL1395L
aL1204L
aL1013L
aL1206L
aL1079L
aL664L
aL1178L
atp1996
Rp1997
sL1272L
g8
((lp1998
L1362L
aL1534L
atp1999
Rp2000
sL1273L
g8
((lp2001
tp2002
Rp2003
sL1274L
g8
((lp2004
L1590L
atp2005
Rp2006
sL1275L
g8
((lp2007
tp2008
Rp2009
sL1276L
g8
((lp2010
tp2011
Rp2012
sL1277L
g8
((lp2013
L1278L
atp2014
Rp2015
sL1278L
g8
((lp2016
L1277L
atp2017
Rp2018
sL1279L
g8
((lp2019
L1577L
aL1391L
aL1393L
atp2020
Rp2021
sL1280L
g8
((lp2022
L1531L
atp2023
Rp2024
sL1281L
g8
((lp2025
L1530L
atp2026
Rp2027
sL1282L
g8
((lp2028
L680L
aL740L
aL1096L
aL1116L
aL1415L
atp2029
Rp2030
sL1283L
g8
((lp2031
tp2032
Rp2033
sL1284L
g8
((lp2034
L1264L
aL1577L
aL1203L
aL1205L
aL910L
atp2035
Rp2036
sL1285L
g8
((lp2037
tp2038
Rp2039
sL1286L
g8
((lp2040
L1085L
aL1591L
atp2041
Rp2042
sL1287L
g8
((lp2043
L1040L
aL808L
aL618L
aL614L
aL1494L
atp2044
Rp2045
sL1288L
g8
((lp2046
L1179L
aL1406L
atp2047
Rp2048
sL1289L
g8
((lp2049
tp2050
Rp2051
sL1290L
g8
((lp2052
L1422L
atp2053
Rp2054
sL1291L
g8
((lp2055
tp2056
Rp2057
sL1292L
g8
((lp2058
tp2059
Rp2060
sL1293L
g8
((lp2061
L1489L
atp2062
Rp2063
sL1294L
g8
((lp2064
tp2065
Rp2066
sL1295L
g8
((lp2067
L1264L
aL1577L
aL1202L
aL1339L
aL1308L
atp2068
Rp2069
sL1296L
g8
((lp2070
L1500L
atp2071
Rp2072
sL1297L
g8
((lp2073
tp2074
Rp2075
sL1298L
g8
((lp2076
tp2077
Rp2078
sL1299L
g8
((lp2079
L1365L
atp2080
Rp2081
sL1300L
g8
((lp2082
L1574L
atp2083
Rp2084
sL1301L
g8
((lp2085
L1088L
aL897L
aL682L
aL675L
aL732L
atp2086
Rp2087
sL1302L
g8
((lp2088
L1400L
aL1548L
aL757L
atp2089
Rp2090
sL1303L
g8
((lp2091
tp2092
Rp2093
sL1304L
g8
((lp2094
tp2095
Rp2096
sL1305L
g8
((lp2097
L1541L
atp2098
Rp2099
sL1306L
g8
((lp2100
tp2101
Rp2102
sL1307L
g8
((lp2103
L1264L
aL1577L
aL1308L
aL1199L
atp2104
Rp2105
sL1308L
g8
((lp2106
L1264L
aL1577L
aL1307L
aL1295L
atp2107
Rp2108
sL1309L
g8
((lp2109
L1352L
aL1184L
aL1349L
atp2110
Rp2111
sL1310L
g8
((lp2112
tp2113
Rp2114
sL1311L
g8
((lp2115
L1516L
atp2116
Rp2117
sL1312L
g8
((lp2118
tp2119
Rp2120
sL1313L
g8
((lp2121
L1347L
aL1188L
aL1349L
aL1350L
aL1352L
aL1547L
aL1550L
aL1052L
aL933L
atp2122
Rp2123
sL1315L
g8
((lp2124
tp2125
Rp2126
sL1316L
g8
((lp2127
L1577L
atp2128
Rp2129
sL1317L
g8
((lp2130
L891L
aL993L
aL1411L
atp2131
Rp2132
sL1318L
g8
((lp2133
tp2134
Rp2135
sL1319L
g8
((lp2136
L1178L
aL1390L
atp2137
Rp2138
sL1320L
g8
((lp2139
L608L
aL1323L
aL699L
aL663L
atp2140
Rp2141
sL1321L
g8
((lp2142
L808L
aL1010L
aL906L
aL1573L
aL1133L
atp2143
Rp2144
sL1322L
g8
((lp2145
tp2146
Rp2147
sL1323L
g8
((lp2148
L1320L
aL663L
atp2149
Rp2150
sL1324L
g8
((lp2151
tp2152
Rp2153
sL1325L
g8
((lp2154
L1096L
atp2155
Rp2156
sL1326L
g8
((lp2157
L1095L
atp2158
Rp2159
sL1327L
g8
((lp2160
L1008L
aL906L
aL797L
aL1133L
aL1543L
atp2161
Rp2162
sL1328L
g8
((lp2163
L1190L
atp2164
Rp2165
sL1329L
g8
((lp2166
tp2167
Rp2168
sL1330L
g8
((lp2169
tp2170
Rp2171
sL1331L
g8
((lp2172
tp2173
Rp2174
sL1332L
g8
((lp2175
L1367L
atp2176
Rp2177
sL1333L
g8
((lp2178
tp2179
Rp2180
sL1334L
g8
((lp2181
tp2182
Rp2183
sL1335L
g8
((lp2184
tp2185
Rp2186
sL1336L
g8
((lp2187
tp2188
Rp2189
sL1337L
g8
((lp2190
L1204L
atp2191
Rp2192
sL1338L
g8
((lp2193
tp2194
Rp2195
sL1339L
g8
((lp2196
L1577L
aL942L
aL1198L
aL1295L
atp2197
Rp2198
sL1340L
g8
((lp2199
L1530L
aL1579L
aL1580L
atp2200
Rp2201
sL1341L
g8
((lp2202
L944L
aL1010L
aL1198L
aL943L
atp2203
Rp2204
sL1342L
g8
((lp2205
L1577L
aL1067L
aL1198L
aL1071L
aL1201L
aL1078L
aL1199L
atp2206
Rp2207
sL1343L
g8
((lp2208
L1577L
aL1202L
aL1198L
aL726L
atp2209
Rp2210
sL1344L
g8
((lp2211
tp2212
Rp2213
sL1345L
g8
((lp2214
tp2215
Rp2216
sL1346L
g8
((lp2217
L999L
atp2218
Rp2219
sL1347L
g8
((lp2220
L1313L
aL1205L
atp2221
Rp2222
sL1348L
g8
((lp2223
L697L
aL1074L
aL1220L
aL1493L
atp2224
Rp2225
sL1349L
g8
((lp2226
L1313L
aL1251L
aL1189L
aL1052L
aL1546L
aL1547L
aL1549L
aL1550L
aL1557L
aL1529L
aL796L
aL1309L
aL639L
atp2227
Rp2228
sL1350L
g8
((lp2229
L1313L
atp2230
Rp2231
sL1351L
g8
((lp2232
tp2233
Rp2234
sL1352L
g8
((lp2235
L1248L
aL1313L
aL1309L
atp2236
Rp2237
sL1353L
g8
((lp2238
L1060L
aL933L
aL812L
aL937L
aL1547L
aL1548L
aL817L
aL1270L
aL1054L
atp2239
Rp2240
sL1354L
g8
((lp2241
tp2242
Rp2243
sL1355L
g8
((lp2244
tp2245
Rp2246
sL1356L
g8
((lp2247
tp2248
Rp2249
sL1357L
g8
((lp2250
tp2251
Rp2252
sL1358L
g8
((lp2253
L1064L
aL1589L
aL1062L
atp2254
Rp2255
sL1359L
g8
((lp2256
tp2257
Rp2258
sL1360L
g8
((lp2259
tp2260
Rp2261
sL1361L
g8
((lp2262
L1537L
aL1534L
atp2263
Rp2264
sL1362L
g8
((lp2265
L1272L
aL1534L
atp2266
Rp2267
sL1363L
g8
((lp2268
tp2269
Rp2270
sL1364L
g8
((lp2271
tp2272
Rp2273
sL1365L
g8
((lp2274
L704L
aL594L
aL1299L
atp2275
Rp2276
sL1366L
g8
((lp2277
L1056L
aL803L
aL1203L
aL874L
aL1548L
aL1069L
aL1041L
aL1043L
atp2278
Rp2279
sL1367L
g8
((lp2280
L1332L
aL1029L
aL1030L
aL1159L
atp2281
Rp2282
sL1368L
g8
((lp2283
L994L
aL995L
aL1252L
atp2284
Rp2285
sL1370L
g8
((lp2286
tp2287
Rp2288
sL1371L
g8
((lp2289
tp2290
Rp2291
sL1372L
g8
((lp2292
tp2293
Rp2294
sL1373L
g8
((lp2295
tp2296
Rp2297
sL1374L
g8
((lp2298
tp2299
Rp2300
sL1375L
g8
((lp2301
tp2302
Rp2303
sL1376L
g8
((lp2304
L1262L
atp2305
Rp2306
sL1377L
g8
((lp2307
L1515L
atp2308
Rp2309
sL1378L
g8
((lp2310
tp2311
Rp2312
sL1380L
g8
((lp2313
tp2314
Rp2315
sL1381L
g8
((lp2316
L1524L
aL1549L
atp2317
Rp2318
sL1382L
g8
((lp2319
L1262L
atp2320
Rp2321
sL1383L
g8
((lp2322
tp2323
Rp2324
sL1384L
g8
((lp2325
L808L
atp2326
Rp2327
sL1385L
g8
((lp2328
L1178L
atp2329
Rp2330
sL1386L
g8
((lp2331
L1581L
atp2332
Rp2333
sL1387L
g8
((lp2334
tp2335
Rp2336
sL1388L
g8
((lp2337
tp2338
Rp2339
sL1389L
g8
((lp2340
tp2341
Rp2342
sL1390L
g8
((lp2343
L1068L
aL1319L
atp2344
Rp2345
sL1391L
g8
((lp2346
L1393L
aL1010L
aL1279L
atp2347
Rp2348
sL1392L
g8
((lp2349
L801L
atp2350
Rp2351
sL1393L
g8
((lp2352
L906L
aL1391L
aL726L
aL632L
aL698L
aL1279L
atp2353
Rp2354
sL1394L
g8
((lp2355
tp2356
Rp2357
sL1395L
g8
((lp2358
L1543L
aL873L
aL1198L
aL657L
aL1271L
aL952L
atp2359
Rp2360
sL1396L
g8
((lp2361
tp2362
Rp2363
sL1397L
g8
((lp2364
L1500L
atp2365
Rp2366
sL1398L
g8
((lp2367
L1233L
atp2368
Rp2369
sL1399L
g8
((lp2370
L1096L
aL1241L
atp2371
Rp2372
sL1400L
g8
((lp2373
L1548L
aL1302L
atp2374
Rp2375
sL1401L
g8
((lp2376
tp2377
Rp2378
sL1402L
g8
((lp2379
tp2380
Rp2381
sL1403L
g8
((lp2382
L1600L
aL593L
aL1124L
atp2383
Rp2384
sL1404L
g8
((lp2385
tp2386
Rp2387
sL1405L
g8
((lp2388
tp2389
Rp2390
sL1406L
g8
((lp2391
L1288L
aL1179L
atp2392
Rp2393
sL1407L
g8
((lp2394
L704L
aL1601L
atp2395
Rp2396
sL1408L
g8
((lp2397
L1598L
atp2398
Rp2399
sL1409L
g8
((lp2400
tp2401
Rp2402
sL1410L
g8
((lp2403
L1257L
atp2404
Rp2405
sL1411L
g8
((lp2406
L1525L
aL1317L
atp2407
Rp2408
sL1412L
g8
((lp2409
tp2410
Rp2411
sL1413L
g8
((lp2412
tp2413
Rp2414
sL1414L
g8
((lp2415
L737L
aL1226L
aL980L
atp2416
Rp2417
sL1415L
g8
((lp2418
L680L
aL1096L
aL1282L
aL740L
atp2419
Rp2420
sL1416L
g8
((lp2421
L1059L
aL605L
aL731L
atp2422
Rp2423
sL1417L
g8
((lp2424
tp2425
Rp2426
sL1418L
g8
((lp2427
L713L
aL763L
aL927L
aL813L
aL711L
atp2428
Rp2429
sL1419L
g8
((lp2430
L735L
atp2431
Rp2432
sL1420L
g8
((lp2433
tp2434
Rp2435
sL1421L
g8
((lp2436
tp2437
Rp2438
sL1422L
g8
((lp2439
L986L
aL1290L
aL1261L
aL1110L
atp2440
Rp2441
sL1423L
g8
((lp2442
tp2443
Rp2444
sL1424L
g8
((lp2445
tp2446
Rp2447
sL1425L
g8
((lp2448
tp2449
Rp2450
sL1426L
g8
((lp2451
tp2452
Rp2453
sL1427L
g8
((lp2454
L1151L
atp2455
Rp2456
sL1428L
g8
((lp2457
L969L
aL1187L
atp2458
Rp2459
sL1429L
g8
((lp2460
tp2461
Rp2462
sL1430L
g8
((lp2463
tp2464
Rp2465
sL1431L
g8
((lp2466
tp2467
Rp2468
sL1432L
g8
((lp2469
tp2470
Rp2471
sL1433L
g8
((lp2472
tp2473
Rp2474
sL1434L
g8
((lp2475
tp2476
Rp2477
sL1435L
g8
((lp2478
L924L
aL1119L
atp2479
Rp2480
sL1436L
g8
((lp2481
tp2482
Rp2483
sL1437L
g8
((lp2484
tp2485
Rp2486
sL1438L
g8
((lp2487
tp2488
Rp2489
sL1439L
g8
((lp2490
tp2491
Rp2492
sL1441L
g8
((lp2493
tp2494
Rp2495
sL1442L
g8
((lp2496
tp2497
Rp2498
sL1443L
g8
((lp2499
tp2500
Rp2501
sL1444L
g8
((lp2502
tp2503
Rp2504
sL1445L
g8
((lp2505
tp2506
Rp2507
sL1446L
g8
((lp2508
L1449L
atp2509
Rp2510
sL1447L
g8
((lp2511
tp2512
Rp2513
sL1448L
g8
((lp2514
tp2515
Rp2516
sL1449L
g8
((lp2517
L1446L
atp2518
Rp2519
sL1450L
g8
((lp2520
tp2521
Rp2522
sL1451L
g8
((lp2523
tp2524
Rp2525
sL1452L
g8
((lp2526
tp2527
Rp2528
sL1453L
g8
((lp2529
tp2530
Rp2531
sL1454L
g8
((lp2532
tp2533
Rp2534
sL1455L
g8
((lp2535
tp2536
Rp2537
sL1456L
g8
((lp2538
tp2539
Rp2540
sL1457L
g8
((lp2541
tp2542
Rp2543
sL1458L
g8
((lp2544
tp2545
Rp2546
sL1459L
g8
((lp2547
tp2548
Rp2549
sL1460L
g8
((lp2550
tp2551
Rp2552
sL1461L
g8
((lp2553
tp2554
Rp2555
sL1462L
g8
((lp2556
tp2557
Rp2558
sL1463L
g8
((lp2559
tp2560
Rp2561
sL1464L
g8
((lp2562
tp2563
Rp2564
sL1465L
g8
((lp2565
tp2566
Rp2567
sL1466L
g8
((lp2568
tp2569
Rp2570
sL1467L
g8
((lp2571
tp2572
Rp2573
sL1468L
g8
((lp2574
tp2575
Rp2576
sL1469L
g8
((lp2577
tp2578
Rp2579
sL1470L
g8
((lp2580
tp2581
Rp2582
sL1471L
g8
((lp2583
tp2584
Rp2585
sL1472L
g8
((lp2586
tp2587
Rp2588
sL1473L
g8
((lp2589
tp2590
Rp2591
sL1474L
g8
((lp2592
tp2593
Rp2594
sL1475L
g8
((lp2595
tp2596
Rp2597
sL1476L
g8
((lp2598
tp2599
Rp2600
sL1477L
g8
((lp2601
tp2602
Rp2603
sL1478L
g8
((lp2604
tp2605
Rp2606
sL1479L
g8
((lp2607
tp2608
Rp2609
sL1480L
g8
((lp2610
tp2611
Rp2612
sL1481L
g8
((lp2613
tp2614
Rp2615
sL1482L
g8
((lp2616
tp2617
Rp2618
sL1483L
g8
((lp2619
tp2620
Rp2621
sL1484L
g8
((lp2622
tp2623
Rp2624
sL1486L
g8
((lp2625
tp2626
Rp2627
sL1488L
g8
((lp2628
tp2629
Rp2630
sL1489L
g8
((lp2631
L1293L
atp2632
Rp2633
sL1490L
g8
((lp2634
tp2635
Rp2636
sL1491L
g8
((lp2637
tp2638
Rp2639
sL1492L
g8
((lp2640
tp2641
Rp2642
sL1493L
g8
((lp2643
L1348L
aL1220L
aL1199L
atp2644
Rp2645
sL1494L
g8
((lp2646
L1287L
atp2647
Rp2648
sL1495L
g8
((lp2649
tp2650
Rp2651
sL1496L
g8
((lp2652
tp2653
Rp2654
sL1497L
g8
((lp2655
tp2656
Rp2657
sL1498L
g8
((lp2658
tp2659
Rp2660
sL1499L
g8
((lp2661
tp2662
Rp2663
sL1500L
g8
((lp2664
L1296L
aL1397L
atp2665
Rp2666
sL1501L
g8
((lp2667
tp2668
Rp2669
sL1502L
g8
((lp2670
tp2671
Rp2672
sL1503L
g8
((lp2673
L864L
atp2674
Rp2675
sL1504L
g8
((lp2676
tp2677
Rp2678
sL1505L
g8
((lp2679
tp2680
Rp2681
sL1506L
g8
((lp2682
tp2683
Rp2684
sL1507L
g8
((lp2685
tp2686
Rp2687
sL1508L
g8
((lp2688
tp2689
Rp2690
sL1509L
g8
((lp2691
tp2692
Rp2693
sL1510L
g8
((lp2694
tp2695
Rp2696
sL1511L
g8
((lp2697
tp2698
Rp2699
sL1512L
g8
((lp2700
tp2701
Rp2702
sL1513L
g8
((lp2703
tp2704
Rp2705
sL1515L
g8
((lp2706
L1377L
aL1025L
aL1223L
atp2707
Rp2708
sL1516L
g8
((lp2709
L879L
aL593L
aL831L
aL1311L
atp2710
Rp2711
sL1517L
g8
((lp2712
tp2713
Rp2714
sL1518L
g8
((lp2715
L1603L
atp2716
Rp2717
sL1519L
g8
((lp2718
tp2719
Rp2720
sL1520L
g8
((lp2721
tp2722
Rp2723
sL1521L
g8
((lp2724
tp2725
Rp2726
sL1522L
g8
((lp2727
tp2728
Rp2729
sL1523L
g8
((lp2730
tp2731
Rp2732
sL1524L
g8
((lp2733
L1381L
atp2734
Rp2735
sL1525L
g8
((lp2736
L1411L
atp2737
Rp2738
sL1526L
g8
((lp2739
tp2740
Rp2741
sL1527L
g8
((lp2742
L1604L
atp2743
Rp2744
sL1528L
g8
((lp2745
tp2746
Rp2747
sL1529L
g8
((lp2748
L1349L
atp2749
Rp2750
sL1530L
g8
((lp2751
L1281L
aL1107L
aL931L
aL1340L
aL740L
atp2752
Rp2753
sL1531L
g8
((lp2754
L1280L
atp2755
Rp2756
sL1532L
g8
((lp2757
L856L
aL624L
aL754L
aL626L
aL895L
atp2758
Rp2759
sL1533L
g8
((lp2760
tp2761
Rp2762
sL1534L
g8
((lp2763
L1272L
aL1361L
aL1362L
aL1534L
atp2764
Rp2765
sL1535L
g8
((lp2766
tp2767
Rp2768
sL1536L
g8
((lp2769
tp2770
Rp2771
sL1537L
g8
((lp2772
L808L
aL1361L
atp2773
Rp2774
sL1538L
g8
((lp2775
tp2776
Rp2777
sL1539L
g8
((lp2778
tp2779
Rp2780
sL1540L
g8
((lp2781
L1253L
atp2782
Rp2783
sL1541L
g8
((lp2784
L1305L
aL788L
atp2785
Rp2786
sL1542L
g8
((lp2787
L1010L
aL902L
aL1007L
atp2788
Rp2789
sL1543L
g8
((lp2790
L653L
aL902L
aL903L
aL873L
aL906L
aL1133L
aL1327L
aL1008L
aL657L
aL1395L
aL1271L
atp2791
Rp2792
sL1544L
g8
((lp2793
tp2794
Rp2795
sL1545L
g8
((lp2796
tp2797
Rp2798
sL1546L
g8
((lp2799
L1188L
aL1349L
aL1191L
aL796L
aL1052L
aL1054L
aL933L
atp2800
Rp2801
sL1547L
g8
((lp2802
L1313L
aL1270L
aL1349L
aL1191L
aL1353L
aL816L
aL1046L
aL1048L
aL1052L
aL1054L
aL933L
atp2803
Rp2804
sL1548L
g8
((lp2805
L1400L
aL1353L
aL1054L
aL1302L
aL1366L
atp2806
Rp2807
sL1549L
g8
((lp2808
L1349L
aL1381L
atp2809
Rp2810
sL1550L
g8
((lp2811
L1313L
aL1054L
aL1349L
aL974L
atp2812
Rp2813
sL1551L
g8
((lp2814
tp2815
Rp2816
sL1552L
g8
((lp2817
tp2818
Rp2819
sL1553L
g8
((lp2820
L1024L
aL882L
aL1243L
aL1134L
atp2821
Rp2822
sL1554L
g8
((lp2823
tp2824
Rp2825
sL1555L
g8
((lp2826
tp2827
Rp2828
sL1556L
g8
((lp2829
tp2830
Rp2831
sL1557L
g8
((lp2832
L1060L
aL1349L
aL935L
aL1192L
aL796L
aL746L
aL1052L
aL1053L
aL1054L
aL933L
atp2833
Rp2834
sL1558L
g8
((lp2835
tp2836
Rp2837
sL1559L
g8
((lp2838
L1205L
atp2839
Rp2840
sL1560L
g8
((lp2841
tp2842
Rp2843
sL1561L
g8
((lp2844
tp2845
Rp2846
sL1562L
g8
((lp2847
tp2848
Rp2849
sL1563L
g8
((lp2850
tp2851
Rp2852
sL1564L
g8
((lp2853
tp2854
Rp2855
sL1565L
g8
((lp2856
tp2857
Rp2858
sL1566L
g8
((lp2859
tp2860
Rp2861
sL1567L
g8
((lp2862
tp2863
Rp2864
sL1568L
g8
((lp2865
tp2866
Rp2867
sL1569L
g8
((lp2868
tp2869
Rp2870
sL1570L
g8
((lp2871
tp2872
Rp2873
sL1571L
g8
((lp2874
tp2875
Rp2876
sL1572L
g8
((lp2877
tp2878
Rp2879
sL1573L
g8
((lp2880
L1321L
atp2881
Rp2882
sL1574L
g8
((lp2883
L1300L
atp2884
Rp2885
sL1575L
g8
((lp2886
tp2887
Rp2888
sL1576L
g8
((lp2889
tp2890
Rp2891
sL1577L
g8
((lp2892
L1284L
aL908L
aL1197L
aL1199L
aL1308L
aL1307L
aL1316L
aL1073L
aL808L
aL1067L
aL685L
aL1071L
aL689L
aL1202L
aL1203L
aL1205L
aL1078L
aL952L
aL697L
aL1339L
aL1342L
aL1343L
aL953L
aL1295L
aL738L
aL1264L
aL1279L
atp2893
Rp2894
sL1578L
g8
((lp2895
L1200L
aL1197L
atp2896
Rp2897
sL1579L
g8
((lp2898
L1340L
atp2899
Rp2900
sL1580L
g8
((lp2901
L1010L
aL1340L
aL711L
atp2902
Rp2903
sL1581L
g8
((lp2904
L1386L
atp2905
Rp2906
sL1583L
g8
((lp2907
tp2908
Rp2909
sL1584L
g8
((lp2910
L788L
atp2911
Rp2912
sL1585L
g8
((lp2913
tp2914
Rp2915
sL1587L
g8
((lp2916
tp2917
Rp2918
sL1588L
g8
((lp2919
tp2920
Rp2921
sL1589L
g8
((lp2922
L1064L
aL1358L
atp2923
Rp2924
sL1590L
g8
((lp2925
L1274L
atp2926
Rp2927
sL1591L
g8
((lp2928
L1286L
atp2929
Rp2930
sL1592L
g8
((lp2931
L1013L
atp2932
Rp2933
sL1593L
g8
((lp2934
tp2935
Rp2936
sL1594L
g8
((lp2937
tp2938
Rp2939
sL1595L
g8
((lp2940
tp2941
Rp2942
sL1596L
g8
((lp2943
tp2944
Rp2945
sL1597L
g8
((lp2946
tp2947
Rp2948
sL1598L
g8
((lp2949
L1408L
atp2950
Rp2951
sL1599L
g8
((lp2952
L871L
atp2953
Rp2954
sL1600L
g8
((lp2955
L1403L
aL871L
atp2956
Rp2957
sL1601L
g8
((lp2958
L1407L
aL871L
atp2959
Rp2960
sL1602L
g8
((lp2961
tp2962
Rp2963
sL1603L
g8
((lp2964
L1518L
atp2965
Rp2966
sL1604L
g8
((lp2967
L1527L
atp2968
Rp2969
ssS'names'
p2970
(dp2971
L591L
S'Integrated Decision Model for Interrelated Sub-Problems of Part Design or Selection, Machine Loading and Machining Optimization'
p2972
sL592L
S'Automated Synthesis and Optimization of Gear Train Topologies'
p2973
sL593L
S'Hybrid General Heuristic Gradient Projection for Frame Optimization of Micro and Macro Applications'
p2974
sL594L
S'Automated Vehicle Structural Crashworthiness Design via a Crash Mode Matching Algorithm'
p2975
sL595L
S'System Dynamics Through Graphical Dimensional Analysis'
p2976
sL596L
S'Development of a Changeable Airfoil Optimization Model for Use in the Multidisciplinary Design of Unmanned Aerial Vehicles'
p2977
sL597L
S'Design Optimization of a Special Class of Steel Structures via Genetic Algorithms and Stochastic Sampling'
p2978
sL598L
S'Variable Fidelity Modeling as Applied to Trajectory Optimization for a Hydraulic Backhoe'
p2979
sL599L
S'Creating Polytope Representation of Design Spaces for Visual Exploration Using Consistency Technique'
p2980
sL600L
S'Modular Product Design Using Cyberinfrastructure for Global Manufacturing'
p2981
sL601L
S'A Method and Software Tool for Automated Gearbox Synthesis'
p2982
sL602L
S'Genetic Evolution for the Development of Robust Artificial Neural Network Logic Gates'
p2983
sL604L
S'Early Design Modeling and Simulation of Behaviors: Case Study of Mobile Work Machine'
p2984
sL605L
S'Port-Based Ontology Semantic Similarities for Module Concept Creation'
p2985
sL606L
S'A Study of Different Metamodeling Techniques for Conceptual Design'
p2986
sL607L
S'Automatic Virtual Entity Simulation of the Symbolic Schemes Generated in Conceptual Design Processes'
p2987
sL608L
S'A Hybrid Sensitivity Analysis for Use in Early Design'
p2988
sL609L
S'Integrated Pahl and Beitz and the Theory of Inventive Problem Solving for the Conceptual Design of Multi-Domain Systems'
p2989
sL610L
S'Empirical Analysis of Transformers in the Development of a Storyboarding Methodology'
p2990
sL611L
S'A Function-Based Strategy for Analysis of Energy Systems in Transportation Vehicles'
p2991
sL612L
S'2D Multi-Objective Placement Algorithm for Free-Form Components'
p2992
sL613L
S'OPAS: Ontology Processing for Assisted Synthesis of Conceptual Design Solutions'
p2993
sL614L
S'Optimization of Machine Product Designs From Deeper Level Characteristics Using Collaboration Theory Concepts'
p2994
sL615L
S'The Effect of Reward Interdependence of Strategies in Evolutionary Multi-Agent Systems'
p2995
sL616L
S'Approach to Evaluate and Implement Information Systems That Satisfy Your Goals'
p2996
sL617L
S'Bayesian Networks for Set-Based Collaborative Design'
p2997
sL618L
S'Separating Design Optimization Problems for Bounded Rational Designers'
p2998
sL619L
S'Interactive Functional Reparameterization of Geometric Models'
p2999
sL620L
S'Entropic Method for Sequencing Discrete Design Decisions'
p3000
sL621L
S'Integration of Supply Chain Decisions at the Conceptual Design Stage: A Repository Enabled Decision Tool'
p3001
sL622L
S'Bayesian Hierarchical Choice Modeling Framework for Capturing Heterogeneous Preferences in Engineering System Design'
p3002
sL623L
S'A Comparative Study of Data-Intensive Demand Modeling Techniques in Relation to Product Design and Development'
p3003
sL624L
S'A Mixed Logit Choice Modeling Approach Using Customer Satisfaction Surveys to Support Engineering Design'
p3004
sL625L
S'Methods for Evaluating Suitability of Econometric Demand Models in Design for Market Systems'
p3005
sL626L
S'Usage Coverage Model for Choice Modeling: Principles'
p3006
sL627L
S'Assessing Fusibility in Enrichment Methods for Disparate Customer Data Sets'
p3007
sL628L
S'A Multi-Scale Design for a Robust Hydrogen Storage Tank'
p3008
sL629L
S'Metamorphosis of Periodic Surface Models'
p3009
sL630L
S'A Design Exploration Method for Adaptive Design Systems'
p3010
sL631L
S'Microstructure-Mediated Integration of Material and Product Design: Undersea Submersible'
p3011
sL632L
S'A Multiscale Design Methodology for Designing Hierarchical Multiscale Systems Considering Random Field Uncertainty'
p3012
sL633L
S'Parallel Population Based Incremental Learning With GPU Acceleration for Nonlinear Optimization'
p3013
sL634L
S'On the Application of Multi-Objective Parallel Asynchronous Particle Swarm Optimization to Engineering Design Problems'
p3014
sL635L
S'Particle Swarm Methodologies for Engineering Design Optimization'
p3015
sL636L
S'A Regularized Inexact Penalty Decomposition Algorithm for Multidisciplinary Design Optimization Problem With Complementarity Constraints'
p3016
sL637L
S'Hierarchical Optimization-Based Approach for Two-Dimensional Rectangular Layout Design Problems'
p3017
sL638L
S'Optimized Mask Image Projection for Solid Freeform Fabrication'
p3018
sL639L
S'An Approach to Support the Implementation of Product Configuration Tools'
p3019
sL640L
S'Shapley Value Based Attribute Selection for Configurators'
p3020
sL641L
S'The Effect of Toolpath Intersection Angle in Metal Deposition'
p3021
sL642L
S'Selection of Part Orientation for Multi-Axis Hybrid Manufacturing Process'
p3022
sL643L
S'Modeling of Geometric Variations Within a Tolerance-Zone for Circular Runout'
p3023
sL644L
S'Representation and Automated Generation of Analysis Feature Model for Finite Element Analysis'
p3024
sL645L
S'Neutral Definition and Recognition of Assembly Features for Legacy Systems Reverse Engineering'
p3025
sL646L
S'Modeling and Virtual Reality Realization of Coupled Processes in Integrated Open-Die Forging Plant'
p3026
sL647L
S'Path Planning in Topologically Evolving Planar Environments'
p3027
sL648L
S'An Application of Shape Grammars to Planning for CNC Machining'
p3028
sL649L
S'Design Language for Airplane Geometries Using the Unified Modeling Language'
p3029
sL650L
S'Recognizing Network-Like Hand-Drawn Sketches: A Convolutional Neural Network Approach'
p3030
sL651L
S'Learning Geometric Design Knowledge From Conceptual Sketches and Its Utilization in Shape Creation and Optimization'
p3031
sL652L
S'A Text Understanding Interface for Physical System Modeling and Simulation'
p3032
sL653L
S'Performance Comparison of Metamodeling Methods From the Perspective of Sample Quality Merits'
p3033
sL654L
S'Response Surface Algorithms for Engine Mount Optimization in Motorcycles'
p3034
sL655L
S'Development of Adaptive RBF-HDMR Model for Approximating High Dimensional Problems'
p3035
sL656L
S'Conservative Prediction via Safety Margin: Design Through Cross-Validation and Benefits of Multiple Surrogates'
p3036
sL657L
S'Hybrid and Adaptive Metamodel Based Global Optimization'
p3037
sL658L
S'Ensemble of Meta-Models Based on Local Error Measure Using Cross-Validation'
p3038
sL659L
S'Empirical Similarity Analysis Using Adaptive Trigonometric Functions'
p3039
sL660L
S'Valuable Theoretical Lessons Learned From the Application of Metamodels to a Variety of Industrial Problems'
p3040
sL661L
S'Design of Honeycomb Meta-Materials for High Shear Flexure'
p3041
sL662L
S'Optimal Design of a 3-DOF Parallel Micromanipulator'
p3042
sL663L
S'Interval Uncertainty Reduction and Single-Disciplinary Sensitivity Analysis With Multi-Objective Optimization'
p3043
sL664L
S'Design Improvement by Sensitivity Analysis (DISA) Under Interval Uncertainty Using Multi-Objective Optimization'
p3044
sL666L
S'A Comparison of Metamodel-Assisted Pre-Screening Criteria for Multi-Objective Genetic Algorithms'
p3045
sL667L
S'Analysis of Avoided Carbon-Dioxide Due to Photovoltaic and Wind Turbine Technologies Displacing Electrical Peaking Facilities'
p3046
sL668L
S'A Structural Optimization Method for Universal Design of Compliant Mechanism Scissors'
p3047
sL669L
S'Integrated Optimization for Supporting Functional and Layout Designs During Conceptual Design Phase'
p3048
sL670L
S'Simulation and Optimization of the Water-Jet Cleaning Process'
p3049
sL671L
S'Optimal Plug-in Hybrid Electric Vehicle Design and Allocation for Diverse Charging Patterns'
p3050
sL672L
S'Customer-Centric Product Modeling for Rapid Product Identification in One-of-a-Kind Production'
p3051
sL673L
S'Designing Product Families With Competition: A Design for Market Systems Approach'
p3052
sL674L
S'Automated Design of an Industrial Robot Family'
p3053
sL675L
S'A Design Method for Developing a Universal Product Family in a Dynamic Market Environment'
p3054
sL676L
S'Analysis of Product Flexibility for Future Evolution Based on Design Guidelines and a High-Definition Design Structure Matrix'
p3055
sL677L
S'Product Modular Design Using Atomic Theory'
p3056
sL678L
S'Shape Commonalization to Develop Common Platform for Product Family'
p3057
sL679L
S'Product Platform Selection in Lower-Dimensional Manifold Spaces'
p3058
sL680L
S'Are We There Yet? Investigating the Role of Design Process Architecture in Convergence Time'
p3059
sL681L
S'A Context-Aware Information Model for Elderly Homecare Services in a Smart Home'
p3060
sL682L
S'A Strategic Platform Design Method for Developing Customized Families of Services'
p3061
sL683L
S'Optimization of Tool Handle Shape for a Target User Population'
p3062
sL684L
S'Requirement Analysis and Negotiation for Feasible Service Development'
p3063
sL685L
S'A Filter-Based Sample Average SQP for Optimization Problems With Highly Nonlinear Probabilistic Constraints'
p3064
sL686L
S'Probabilistic Analysis of Manufacturing Uncertainty in Turbine Blades'
p3065
sL687L
S'Variation Analysis of Position, Velocity, and Acceleration of Two-Dimensional Mechanisms by the Direct Linearization Method'
p3066
sL688L
S'Robustness of Residual Stresses in Castings and an Improved Process Window'
p3067
sL689L
S'Reliable Design Optimization Under Aleatory and Epistemic Uncertainties'
p3068
sL690L
S'Design for Lifecycle Cost Using Time-Dependent Reliability'
p3069
sL691L
S'Reliability-Based Design Optimization With Confidence Level Under Input Model Uncertainty'
p3070
sL692L
S'Comparison Study Between Probabilistic and Possibilistic Approach for Problems With Correlated Input and Lack of Input Statistical Information'
p3071
sL693L
S'A Simulation-Based RBDO Method Using Probabilistic Re-Analysis and a Trust Region Approach'
p3072
sL694L
S'Designing MEMS Disk Resonator Based Biological Mass Sensors Under Fabrication Uncertainty'
p3073
sL695L
S'Response Surface Method Using Sequential Sampling for Reliability-Based Design Optimization'
p3074
sL696L
S'Reliability-Based Design Optimization Using Enhanced Dimension Reduction Method With Variable Sampling Points'
p3075
sL697L
S'Improving Multi-Objective Robust Optimization Under Interval Uncertainty Using Worst Possible Point Constraint Cuts'
p3076
sL698L
S'A New Sparse Grid Based Method for Uncertainty Propagation'
p3077
sL699L
S'An Extended Hierarchical Statistical Sensitivity Analysis Method for Multilevel Systems With Shared Variables'
p3078
sL700L
S'A Hierarchical Model Validation of Predictive Models for Engineering Product Development'
p3079
sL701L
S'Adaptive-Sparse Polynomial Chaos Expansion for Reliability Analysis and Design of Complex Engineering Systems'
p3080
sL702L
S'A Modified Reliability Index Approach for Reliability-Based Design Optimization'
p3081
sL703L
S'Topology Optimization of Non-Linear Elastic Structures by Using SLP'
p3082
sL704L
S'Strain-Based Topology Optimization for Crashworthiness Using Hybrid Cellular Automata'
p3083
sL705L
S'Level Set-Based Topology Optimization Method for Thermal Problems Considering Design-Dependent Boundary Effects'
p3084
sL706L
S'Topology Optimization of Piezoelectric Energy Harvesting Strap Buckle'
p3085
sL707L
S'Level Set Based Robust Shape and Topology Optimization Under Random Field Uncertainties'
p3086
sL708L
S'Numerical Experiments in Using Voronoi Cell Finite Elements for Topology Optimization'
p3087
sL709L
S'Characterization and Performance Optimization of 2D Lattice Materials With Hexagonal Bravais Lattice Symmetry'
p3088
sL710L
S'Metrics-Based Approach for VR Technology Evaluation in Styling Product Design'
p3089
sL711L
S'Supporting Trade Space Exploration of Multi-Dimensional Data With Interactive Multi-Scale Nested Clustering and Aggregation'
p3090
sL712L
S'A Virtual Reality Interface for the Design of Compliant Mechanisms'
p3091
sL713L
S"A Preliminary Study of Novice and Expert Users' Decision-Making Procedures During Visual Trade Space Exploration"
p3092
sL714L
S'Development of a Haptic Modeling and Simulation System for Handheld Product Design and Evaluation'
p3093
sL715L
S'Automatically Generating Form Concepts According to Consumer Preference: A Shape Grammar Implementation With Software Agents'
p3094
sL716L
S'Evolutive Design of Car Silhouettes'
p3095
sL717L
S'Generative Design and CNC Fabrication Using Shape Grammars'
p3096
sL718L
S'Pultrusion Process Analysis Using Knowledge-Based System'
p3097
sL719L
S'Causal Design Knowledge Acquisition by Constructing BBN Through FCM'
p3098
sL720L
S'Rough Set-Based Design Rule Selection for Collaborative Assembly Design'
p3099
sL721L
S'Agent Based Variation Propagation for Collaborative Top-Down Assembly Design'
p3100
sL722L
S'Integrating Assembly Design, Sequence Optimization, and Advanced Path Planning'
p3101
sL723L
S'Assembly and Variety Considerations During Conceptual Design'
p3102
sL724L
S'A Review of Recent Phase Transition Simulation Methods: Transition Path Search'
p3103
sL725L
S'A Review of Recent Phase Transition Simulation Methods: Saddle Point Search'
p3104
sL726L
S'A Multiscale Design Approach With Random Field Representation of Material Uncertainty'
p3105
sL727L
S'Feature-Based Crystal Construction in Computer-Aided Nano-Design'
p3106
sL728L
S'An Approach to Automate Concept Generation of Sheet Metal Parts Based on Manufacturing Operations'
p3107
sL729L
S'Energy Characteristic State Model for Automated Conceptual Design of Hydraulic System'
p3108
sL730L
S'A Growth Design Approach for Tolerancing'
p3109
sL731L
S'Port-Based Ontology Modeling for Product Conceptual Design'
p3110
sL732L
S'Customizing Products Using Functional Component Matrices'
p3111
sL733L
S'Exploiting the Features of ISO GPS Standards to Enhance a Knowledge-Based Method for Product Redesign and Process Reconfiguration'
p3112
sL734L
S'Lagrangian Relaxation for Decentralized Decision Making in Engineering Design'
p3113
sL735L
S'Design Achievement Model for Planning Creative and Concurrent Design Process'
p3114
sL736L
S'Product Realization in the Age of Mass Collaboration'
p3115
sL737L
S'A Proposed Taxonomy for Physical Prototypes: Structure and Validation'
p3116
sL738L
S'An Effective Random Field Characterization for Probability Analysis and Design'
p3117
sL739L
S'Bayesian Reliability Analysis With Evolving, Insufficient, and Subjective Data Sets'
p3118
sL740L
S'Planning on Mistakes: An Approach to Incorporate Error Checking Into the Design Process'
p3119
sL741L
S'Development of a Probabilistic Model for Mechanistic Evaluation of Reliability of Oil Pipelines Subject to Corrosion-Fatigue Cracking'
p3120
sL743L
S'Relating Two Domains via a Third: An Approach to Overcome Ambiguous Attributions Using Multiple Domain Matrices'
p3121
sL744L
S'A Unified Framework for Decomposition of Design Structure Matrix and Domain Mapping Matrix'
p3122
sL745L
S'Towards Rules for Functional Composition'
p3123
sL746L
S'A Deterministic Lagrangian-Based Global Optimization Approach for Large Scale Decomposable Problems'
p3124
sL747L
S'A Structure-Based Approach to Measuring Adaptability of Product Design'
p3125
sL748L
S'Transformation Facilitators: A Quantitative Analysis of Reconfigurable Products and Their Characteristics'
p3126
sL749L
S'Towards Adaptable Architecture'
p3127
sL750L
S'Should Designers Worry About Market Systems?'
p3128
sL751L
S'A Pareto Approach to Aligning Public and Private Objectives in Vehicle Design'
p3129
sL752L
S'Optimal Product Design Under Price Competition'
p3130
sL753L
S'Multi-Category Design of Bundled Products for Retail Channels Considering Demand Uncertainty and Competition'
p3131
sL754L
S'Optimal Experimental Design of Human Appraisals for Modeling Consumer Preferences in Engineering Design'
p3132
sL756L
S"Elicitation and Modeling of Customers' Preferences in Industrial Design: A Comparative Study on Vehicle Front End"
p3133
sL757L
S'Choice Model Specification in Market-Based Engineering Design'
p3134
sL758L
S'Establishing Correspondence Between Value Functions Used in Market-Based Engineering Design'
p3135
sL759L
S'Fuzzy Controlled Hooke-Jeeves Optimization Search Algorithm'
p3136
sL760L
S'Evolutionary Multi-Agent Systems: An Adaptive Approach to Optimization in Dynamic Environments'
p3137
sL761L
S'Incorporating Twinkling in Genetic Algorithms for Global Optimization'
p3138
sL762L
S'Evaluating the Performance of Visual Steering Commands for User-Guided Pareto Frontier Sampling During Trade Space Exploration'
p3139
sL763L
S'Improving the Performance of Visual Steering Commands for Multi-Dimensional Trade Space Exploration'
p3140
sL764L
S'Finite Element Model Updating Approach to Damage Identification in Beams Using Particle Swarm Optimization'
p3141
sL765L
S'Enhanced Multi-Agent Normal Sampling Technique for Global Optimization'
p3142
sL766L
S'A Fast and Efficient Compact Packing Algorithm for Free-Form Objects'
p3143
sL767L
S'Analytical Robust Design of Mechanical Systems'
p3144
sL768L
S'Modeling Variability in Torso Shape for Chair and Seat Design'
p3145
sL769L
S'A General Approach to Robustness Assessment for Multidisciplinary Systems'
p3146
sL770L
S'Predicting 5th and 95th Percentile Anthropometric Segment Lengths From Population Stature'
p3147
sL771L
S'An Integrated Process Planning System Architecture for Machining and On-Machine Inspection'
p3148
sL772L
S'Direct 3D Layer Metal Deposition and Toolpath Generation'
p3149
sL773L
S'A Method and Software Prototype to Support On-Line Planning on CNC Machines'
p3150
sL774L
S'Locating Precision of Fit Datums'
p3151
sL775L
S'Identifying Feature Handles of Freeform Shapes'
p3152
sL777L
S'Contact Analysis Between a Moving Solid and the Boundary of Its Swept Volume'
p3153
sL779L
S'A Hybrid Models Deformation Tool for Free-Form Shapes Manipulation'
p3154
sL780L
S'Interval Extensions of Signed Distance Functions: Uniform Samplings and the Range of Associated Implicit Objects'
p3155
sL781L
S'Shape Optimization of a Camoid Follower Surface'
p3156
sL782L
S'Euclidean Symmetry Detection From Scanned Meshes Based on a Combination of ICP and Region Growing Algorithms'
p3157
sL784L
S'A Measure of the Information Loss for Inspection Point Reduction'
p3158
sL785L
S'A Comparison of Virtual Condition Cylinder Evaluation Methods in Coordinate Metrology'
p3159
sL786L
S'A Subdivision Scheme for Discrete Motion Generation and Swept Volume Analysis'
p3160
sL787L
S'Novel Design of a 3-DOF Parallel Manipulator for Materials Handling'
p3161
sL788L
S'Benefit Evaluation for Manufacturing of Marine Propellers'
p3162
sL789L
S'An Industrial Trial of a Set-Based Approach to Collaborative Design'
p3163
sL790L
S'A Finite Element Approach for the Implementation of Magnetostrictive Material Terfenol-D in CNG Fuel Injection Actuation'
p3164
sL791L
S'Parametric Modeling and Optimization of Chemical Vapor Deposition Process'
p3165
sL792L
S'Optimization Design of a Spatial Six-Degree-of-Freedom Parallel Manipulator Based on Genetic Algorithms and Neural Networks'
p3166
sL793L
S'Optimal Kinematics Design of an Industrial Robot Family'
p3167
sL794L
S'Topology and Dimensional Synthesis of Linkage Mechanism Based on the Constrained Superposition Method'
p3168
sL795L
S'Genetic Programming of an Artificial Neural Network for Robust Control of a 2-D Path Following Robot'
p3169
sL796L
S'Decision Support for Strategic Redesign'
p3170
sL797L
S'Designing Embodiment Design Processes Using a Value-of-Information-Based Approach With Applications for Integrated Product and Materials Design'
p3171
sL798L
S'Knowledge Management for Fault Tree Analysis Based on Quantity Dimension Indexing'
p3172
sL799L
S'Using Multiple Surrogates for Minimization of the RMS Error in Meta-Modeling'
p3173
sL800L
S'Optimization of Engine Torque Management Under Uncertainty for Vehicle Driveline Clunk Using Time-Dependent Metamodels'
p3174
sL801L
S'A Practical Robust and Efficient RBF Metamodel Method for Typical Engineering Problems'
p3175
sL802L
S'A Study of Covariance Functions for Multi-Response Metamodeling for Simulation-Based Design and Optimization'
p3176
sL803L
S'A Sequential Linearization Technique for Analytical Target Cascading'
p3177
sL804L
S'Parallel Implementation of Particle Swarm Optimization (PSO) Through Digital Pheromone Sharing'
p3178
sL805L
S'Consistency Constraint Allocation in Augmented Lagrangian Coordination'
p3179
sL806L
S'Enhanced Collaborative Optimization: A Decomposition-Based Method for Multidisciplinary Design'
p3180
sL807L
S'Multiobjective Optimization Method for Lifecycle Design of Machine Products'
p3181
sL808L
S'Fundamental Strategies for System Optimization of Machine Product Designs'
p3182
sL809L
S'Multi-Objective Optimization of Product Configuration'
p3183
sL810L
S'Plug-In Hybrid Vehicle Simulation: How Battery Weight and Charging Patterns Impact Cost, Fuel Consumption, and CO2 Emissions'
p3184
sL811L
S'Heat Compensation in Buildings Using Thermoelectric Windows: An Energy Efficient Window Technology'
p3185
sL812L
S'The Application of Product Platform Design to the Reuse of Electronic Components Subject to Long-Term Supply Chain Disruptions'
p3186
sL813L
S'Product Family Commonality Selection Through Interactive Visualization'
p3187
sL814L
S'Assessing Functional and Shape Differentiation Within a Family of Products'
p3188
sL815L
S'Product Family Design: Strategic Principles to Choose Between Product-Driven and Platform-Driven Processes'
p3189
sL816L
S'Improving Cost Effectiveness in an Existing Product Line Using Component Product Platforms'
p3190
sL817L
S'Focused Product Family Improvement'
p3191
sL818L
S'A Strategic Module-Based Platform Design Method for Developing Customized Products in Dynamic and Uncertain Market Environments'
p3192
sL819L
S'Functional Part Families and Design Change for Mechanical Assemblies'
p3193
sL820L
S'Optimal Design of Product Family Throughout Commonalization, Customization and Lineup Arrangement'
p3194
sL821L
S'An Efficient Re-Analysis Methodology for Probabilistic Vibration of Large-Scale Structures'
p3195
sL822L
S'Uncertainty Analysis of Damage Evolution Computed Through Microstructure-Property Relations'
p3196
sL823L
S'Reliability-Based Shape Optimization of a Pressure Tank Under Random and Stochastic Environments'
p3197
sL824L
S'Sensitivity Analyses of FORM-Based and DRM-Based Performance Measure Approach for Reliability-Based Design Optimization'
p3198
sL825L
S'Selection of Copula to Generate Input Joint CDF for RBDO'
p3199
sL826L
S'Topology Optimization for Steady-State Heat Transfer Problems Including Design-Dependent Effects'
p3200
sL828L
S'Topology Optimization of Multiple Parts in Dynamic Controlled Systems'
p3201
sL829L
S'An Improved Initial Population Strategy for Compliant Mechanism Designs Using Evolutionary Optimization'
p3202
sL830L
S'On Pattern Recognition in Rule-Based Topology Modification'
p3203
sL831L
S'Topology Optimization of a MEMS Resonator Using Hybrid Fuzzy Techniques'
p3204
sL832L
S'Topology Optimization of Poroelastic Structures to Minimize Mean Sound Pressure Levels'
p3205
sL833L
S'Design of Compliant Thermal Actuators Using Structural Optimization Based on the Level Set Method'
p3206
sL834L
S'Design Automation Tools as a Support for Knowledge Management in Topology Optimization'
p3207
sL836L
S'Topology Synthesis of Multi-Component Structural Assemblies in Continuum Domains'
p3208
sL837L
S'Layer Separation for Optimization of Composite Laminates'
p3209
sL838L
S'Model Validation and Error Modeling to Support Sequential Sampling'
p3210
sL839L
S'Regression Modeling for Computer Model Validation With Functional Responses'
p3211
sL840L
S'A Comprehensive Metric for Comparing Time Histories in Validation of Simulation Models With Emphasis on Vehicle Safety Applications'
p3212
sL841L
S'Overlapped Grouping Genetic Algorithm for Optimization of Reels Cutting Planning Problems'
p3213
sL842L
S'A Perspective of Hierarchical Layout Design Optimization for Highly Packaged Equipments'
p3214
sL843L
S'A Genetic Algorithm Based Procedure for Extracting Optimal Solutions From a Morphological Chart'
p3215
sL845L
S'A Variable Fidelity Model Management Framework for Multiscale Computational Design of Continuous Fiber SiC-Si3N4 Ceramic Composites'
p3216
sL846L
S'Topology Optimization for Synthesizing Extrusion Based Nonlinear Transient Designs'
p3217
sL847L
S'An Intelligent and Efficient Tree Search Algorithm for Computer-Aided Component Selection'
p3218
sL848L
S'A Graph Grammar Approach to Generate Neural Network Topologies'
p3219
sL849L
S'A Learning Algorithm for Optimal Internal Combustion Engine Calibration in Real Time'
p3220
sL850L
S'A Simplified Systematic Method of Acquiring Design Specifications From Customer Requirements'
p3221
sL851L
S'Towards a Reference Ontology for Functional Knowledge Interoperability'
p3222
sL852L
S'Fuzzy Analytical Hierarchy Process-Based Assembly Unit Partition for Complex Products'
p3223
sL853L
S'PDM Implementation in Indian Industries: An Impact Study on Technology Adoption'
p3224
sL854L
S'A Framework for Collaborative Top-Down Assembly Design'
p3225
sL855L
S'A Design Strategy for Collaborative Decision Making in a Distributed Environment'
p3226
sL856L
S'An Approach to Improved Decentralized Design: The Modified Approximation-Based Decentralized Design (MADD) Framework'
p3227
sL857L
S'Design Optimization of a Laptop Computer Using Aggregate and Mixed Logit Demand Models With Consumer Survey Data'
p3228
sL858L
S'A Game-Theoretic Approach to Finding Market Equilibria for Automotive Design Under Environmental Regulation'
p3229
sL859L
S'Measurement of Headlight Form Preference Using a Choice Based Conjoint Analysis'
p3230
sL860L
S'Conjoint-HoQ: A Quantitative Methodology for Consumer-Driven Design'
p3231
sL861L
S'Preference Inconsistency in Multidisciplinary Design Decision Making'
p3232
sL862L
S'Theoretical Design and Control Analysis of Reconfigurable Parallel Kinematic Machine Tools'
p3233
sL863L
S'Design for Product Adaptability'
p3234
sL864L
S'Flexible and Reconfigurable Systems: Nomenclature and Review'
p3235
sL865L
S'Adaptive Complex Method for Efficient Design Optimization'
p3236
sL866L
S'Approximated Unimodal Region Elimination Based Global Optimization Method for Engineering Design'
p3237
sL867L
S'Bayesian Analysis of Adaptive One-Factor-at-a-Time Experimentation'
p3238
sL868L
S'Multi Agent Normal Sampling Technique (MANST) for Global Optimization'
p3239
sL869L
S'Non-Dominated Sorting Genetic Quantum Algorithm for Multi-Objective Optimization'
p3240
sL870L
S'Optimization of a Vehicle Space Frame Under Ballistic Impact Loading'
p3241
sL871L
S'Optimization of Bicycle Frames Using Genetic Algorithms'
p3242
sL872L
S'Generalization of Topological Sensitivity and Its Application to Defeaturing'
p3243
sL873L
S'A Hybrid Method for Surrogate Model Updating in Engineering Design Optimization'
p3244
sL874L
S'Pseudo-Hierarchical Multistage Model for System of Systems Design and Operations'
p3245
sL875L
S'Finite Element Analysis Applied to Ergonomic Design of 2-Piece Aluminum Beverage Cans and Bottles'
p3246
sL876L
S'Including Preference in Anthropometry-Driven Models for Design'
p3247
sL877L
S'Evaluation Method of Drinking Ease for Aluminum Beverage Bottles'
p3248
sL878L
S'Adaptive Deposition Coverage Toolpath Planning for Metal Deposition Process'
p3249
sL879L
S'Automated Synthesis of MEMS Fabrication Sequences Using Graph Grammars'
p3250
sL880L
S'Adaptive Slicing of Moving Least Squares Surfaces: Toward Direct Manufacturing of Point Set Surfaces'
p3251
sL881L
S'Product Reverse Engineering Based on Growth Design Process'
p3252
sL882L
S'High Performance Dirichlet Parametrization Through Triangular Bezier Surface Interpolation for Deformation of CAE Meshes'
p3253
sL883L
S'Curve Shape Modification and Fairness Evaluation'
p3254
sL884L
S'Application of Interactive Deformation to Assembled Mesh Models for CAE Analysis'
p3255
sL885L
S'Pre-Programmed Failure Behavior Using Biology-Inspired Structures'
p3256
sL886L
S'Finding All Undercut-Free Parting Directions for Solids of Revolution'
p3257
sL887L
S'Wavelet SDF-Reps: Solid Modeling With Volumetric Scans'
p3258
sL888L
S'Matching Geometric Shapes in 4D Space Incorporating Curvature Information'
p3259
sL889L
S'Motion-Based Shape Deformation of Solid Models'
p3260
sL890L
S'A Point Membership Classification for Sweeping Solids'
p3261
sL891L
S'Quasi-Optimal Mesh Segmentation Via Region Growing/Merging'
p3262
sL892L
S'Development of Validation Metrics for Vehicle Frontal Impact Simulation'
p3263
sL894L
S'A Development Methodology for Parametric Synthesis Tools'
p3264
sL895L
S'Incorporating Customer Preferences and Market Trends in Vehicle Package Design'
p3265
sL896L
S'A Case Study of Design Process and Development of a Design Enabling Tool for Wright Metal Products'
p3266
sL897L
S'A Process Model and Data Mining to Support Designing Families of Services'
p3267
sL898L
S'Quantity Dimension Indexing for Design Knowledge Management'
p3268
sL899L
S'Representation and Analysis Challenges in Design for Part-Reuse: An Automotive Case Study'
p3269
sL900L
S'Empirical Models for Non-Deterministic Simulation-Based Robust Design'
p3270
sL901L
S'Managing Design Process Complexity: A Value-of-Information Based Approach for Scale and Decision Decoupling'
p3271
sL902L
S'Q2S2: Merging Qualitative Information in Sequential DOE'
p3272
sL903L
S'Using Maximum Likelihood Estimation to Estimate Kriging Model Parameters'
p3273
sL904L
S'Reducing the Number of Variables in a Response Surface Approximation: Application to Thermal Design'
p3274
sL905L
S'Reduction of Non-Monomial Basis in the Dimensional Analysis of a Dynamical System'
p3275
sL906L
S'A New Variable Fidelity Optimization Framework Based on Model Fusion and Objective-Oriented Sequential Sampling'
p3276
sL907L
S'Optimal Partitioning and Coordination Decisions in Decomposition-Based Design Optimization'
p3277
sL908L
S'Multiobjective Collaborative Robust Optimization (McRO) With Interval Uncertainty and Interdisciplinary Uncertainty Propagation'
p3278
sL909L
S'Integrated Structure Decomposition, Optimization and Control Design'
p3279
sL910L
S'A Sequential Linear Programming Coordination Algorithm for Analytical Target Cascading'
p3280
sL911L
S'Diagonal Quadratic Approximation for Parallelization of Analytical Target Cascading'
p3281
sL912L
S'A Concept for a Material That Softens With Frequency'
p3282
sL913L
S'A Template-Based Approach for Multilevel Blast Resistant Panel Design'
p3283
sL914L
S'Predictive Carbon Nanotube Models Using the Eigenvector Dimension Reduction (EDR) Method'
p3284
sL915L
S'A Function-Based Approach for Integrated Design of Material and Product Concepts'
p3285
sL916L
S'A Dual Environment for 3D Modeling With User-Defined Free Form Features'
p3286
sL917L
S'Reverse Engineering of Geometric Surfaces Using Tabu Search Optimization Technique'
p3287
sL918L
S'Correspondences Matching on 3D Mesh Models'
p3288
sL919L
S'Procedural Design of Imprint Rolls for Fluid Pathway Fabrication'
p3289
sL920L
S'OAM+: An Assembly Data Model for Legacy Systems Engineering'
p3290
sL921L
S'Robust Product Design Optimization Method Using Hierarchical Representations of Characteristics'
p3291
sL922L
S'An Optimal Design Method for Reducing Brake Squeal in Disc Brake Systems'
p3292
sL923L
S'Cycle-Based Robot Drive Train Optimization Utilizing SVD Analysis'
p3293
sL924L
S'A Component Based Optimization Approach for Modular Robot Design'
p3294
sL925L
S'A Method for Benchmarking Product Family Design Alternatives'
p3295
sL926L
S'Recommending a Platform Leveraging Strategy Based on the Homogeneous or Heterogeneous Nature of a Product Line'
p3296
sL927L
S'Three Dimensional Design Structure Matrix With Cross-Module and Cross-Interface Analyses'
p3297
sL928L
S'A Product Platform Development Method Using QFD'
p3298
sL929L
S'A Customer-Driven Approach to One-of-a-Kind Product Design'
p3299
sL930L
S'Product Family Concept Generation and Validation Through Predictive Decision Tree Data Mining and Multi-Level Optimization'
p3300
sL931L
S'Robust Product Family Consolidation and Selection Using the Hypothetical Equivalents and Inequivalents Method'
p3301
sL932L
S'An Extension of the Commonality Index for Product Family Optimization'
p3302
sL933L
S'A Single-Stage Gradient-Based Approach for Solving the Joint Product Family Platform Selection and Design Problem Using Decomposition'
p3303
sL934L
S'An Investigation of the Impact of Assembly Sequencing on the Product Family Design Outcomes'
p3304
sL935L
S'Switchgear Component Commonality Design Method Considering Delivery Lead-Time and Inventory Level'
p3305
sL936L
S'Process Platform Formation for Product Families'
p3306
sL937L
S'Application of Product Platform Design for Engineered System'
p3307
sL938L
S'A Framework for Designing Balanced Product Platforms by Estimating Versatility of Components'
p3308
sL939L
S'Function Block Design to Enable Adaptive Job Shop Operations'
p3309
sL940L
S'Improving Confidence in Simulation-Based Design Through Error Functions'
p3310
sL941L
S'Interval Reliability Analysis'
p3311
sL942L
S'Evidence Theory-Based Reliability Analysis and Optimization in Engineering Design'
p3312
sL943L
S'Reliability Estimation for Time-Dependent Problems Using a Niching Genetic Algorithm'
p3313
sL944L
S'A Monte Carlo Reliability Assessment for Multiple Failure Region Problems Using Approximate Metamodels'
p3314
sL945L
S'Supervised Bayesian Models to Carry Out Kansei Engineering of Car Dashbaords'
p3315
sL946L
S'A New Inverse Reliability Analysis Method Using MPP-Based Dimension Reduction Method (DRM)'
p3316
sL947L
S'Reliability Based Design Optimization With Correlated Input Variables Using Copulas'
p3317
sL948L
S'Robust Design Concept in Possibility Theory and Optimization for System With Both Random and Fuzzy Input Variables'
p3318
sL949L
S'Updating Uncertainty Assessments: A Comparison of Statistical Approaches'
p3319
sL950L
S'Decision Making and Constraint Tradeoff Visualization for Design Under Uncertainty'
p3320
sL951L
S'Conservative Estimations of Reliability With Limited Sampling'
p3321
sL952L
S'Reliable Space Pursuing for RBDO With Black-Box Performance Functions'
p3322
sL953L
S'Bayesian Reliability Based Design Optimization Using Eigenvector Dimension Reduction (EDR) Method'
p3323
sL954L
S'A Hierarchical Statistical Sensitivity Analysis Method for Complex Engineering Systems'
p3324
sL955L
S'A Comparative Study of Uncertainty Propagation Methods for Black-Box Type Functions'
p3325
sL956L
S'Complementary Interaction Method (CIM) for System Reliability Analysis'
p3326
sL957L
S'Innovative Six Sigma Design Using the Eigenvector Dimension-Reduction (EDR) Method'
p3327
sL958L
S'Sensitivity-Free Approach for Reliability-Based Robust Design Optimization'
p3328
sL960L
S'Differential Evolution Applied to the Design of a Three-Dimensional Vehicular Structure'
p3329
sL961L
S'On Optimization of 2D Compliant Mechanisms Using Honeycomb Discretization With Material-Mask Overlay Strategy'
p3330
sL962L
S'Design of Piezoelectric Actuator With In-Plane Motion Using Topology Optimization'
p3331
sL963L
S'Indirect Encoding of Structures for Evolutionary Design'
p3332
sL964L
S'Interactive Mesh-Free Stress Analysis for Mechanical Design Assembly With Haptics'
p3333
sL965L
S'Visual Steering Commands for Trade Space Exploration: User-Guided Sampling With Example'
p3334
sL966L
S'Virtual Reality Systems: A Method to Evaluate the Applicability Based on the Design Context'
p3335
sL967L
S'Representing Historically Based Component-Function Relationships Through Design Templates'
p3336
sL968L
S'Immersive Product Configurator for Conceptual Design'
p3337
sL969L
S'Pattern-Based Reasoning in Critical Parameter Management (CPM) for Rapid Redesign'
p3338
sL970L
S'Topological Synthesis of Shell Structures'
p3339
sL971L
S'Growth Design Modeling'
p3340
sL972L
S'Fuzzy Preference Evaluation for Hierarchical Co-Evolutionary Design Concept Generation'
p3341
sL973L
S'Application of a Genetic Algorithm to Concept Variant Selection'
p3342
sL974L
S'A Hybrid Method for Parametric Conceptual Vehicle Design Using Legacy Components and Parametric Surfaces'
p3343
sL975L
S'Exploiting Shape Similarity in Engineering Analysis'
p3344
sL976L
S'Issues of Similarity in Engineering Design'
p3345
sL977L
S'Enabling Local Risk Assessment to Support Global Collaboration in a Distributed Environment'
p3346
sL978L
S'Enhanced Convergence in Distributed Design Processes'
p3347
sL979L
S'Investigating Different Approaches for Front-Loading Problem Solving in Product Development: Evidence From Engine Engineering'
p3348
sL980L
S'Case Study Instrument Development for Studying Collaborative Design'
p3349
sL981L
S'Topology and Classical Shape Optimization of a Lower Control Arm: A Case Study'
p3350
sL982L
S'Improved Head Restraint Design for Safety and Compliance'
p3351
sL983L
S'An Efficient Algorithm for Vehicle Crashworthiness Design Via Crash Mode Matching'
p3352
sL984L
S'Crashworthiness Design Using a Hybrid Cellular Automaton Algorithm'
p3353
sL985L
S'Preliminary Results on Generating Assembly Sequences for Shape Display'
p3354
sL986L
S'Process Planning Support System Considering Product Quality'
p3355
sL987L
S'Optimum Disassembly Process With Genetic Algorithms for a Compressor'
p3356
sL988L
S'Multiobjective Optimization for Integrated Tolerance Allocation and Fixture Layout Design in Multistation Assembly'
p3357
sL989L
S'Visibility for Determining the Rotational Axis CNC Rapid Prototyping and Rapid Manufacturing'
p3358
sL990L
S'Stereolithography Mock-Up With Internal Camera for Automatic Usability Data Acquisition and Functional Simulation'
p3359
sL991L
S'Determine Mesh Orientation by Voxel-Based Principal Component Analysis'
p3360
sL992L
S'Introducing Hierarchical Particle Swarm Optimization to Optimal Part Orientation in Fused Deposition Modeling'
p3361
sL993L
S'High Accuracy Laser Scanned View Registration Method for Reverse Engineering Using a CMM Generated CAD Model'
p3362
sL994L
S'Using Tolerance-Maps to Generate Frequency Distributions of Clearance for Pin-Hole Assemblies'
p3363
sL995L
S'Semantic Tolerance Modeling'
p3364
sL996L
S'Geometric Construction of Piecewise Line-Symmetric Spherical Motions Using Quaternion Biarcs'
p3365
sL997L
S'Aeronautical Planar Flank Milling Automation: Computing the G-Zones'
p3366
sL998L
S'Aerodynamic Shape Optimization and Knowledge Mining of Centrifugal Fans Using Simulated Annealing Coupled With a Neural Network'
p3367
sL999L
S'Optimal Tolerance Allocation of Automotive Pneumatic Control Valves Based on Product and Process Simulations'
p3368
sL1000L
S'Optimization of Chemical Vapor Deposition Process'
p3369
sL1001L
S'Data Mining and Fuzzy Clustering to Support Product Family Design'
p3370
sL1002L
S'Knowledge Model for Managing Product Variety and Its Reflective Design Process'
p3371
sL1003L
S'Design Information Support Tool (DIST): Its Development and Effectiveness Investigation'
p3372
sL1004L
S'Automating Redesign of Sheet-Metal Parts in Automotive Industry Using KBE and CBR'
p3373
sL1005L
S'Verve: A General Purpose Open Source Reinforcement Learning Toolkit'
p3374
sL1006L
S'Augmenting Tools for Reverse Engineering Methods'
p3375
sL1007L
S'Qualitative and Quantitative Sequential Sampling'
p3376
sL1008L
S'On Adaptive Sampling for Single and Multi-Response Bayesian Surrogate Models'
p3377
sL1009L
S'A Kriging Metamodel Assisted Multi-Objective Genetic Algorithm for Design Optimization'
p3378
sL1010L
S'Review of Metamodeling Techniques in Support of Engineering Design Optimization'
p3379
sL1012L
S'An Improved Genetic Algorithm for the Optimization of Composite Structures'
p3380
sL1013L
S'Surrogate Model Updating Using Clustering in a Genetic Algorithm Setup'
p3381
sL1014L
S'Exploration in the Preliminary Mechanical Design of Trade-Offs Between Automotive Architectural Constraints and Aggregate Noise Performances'
p3382
sL1015L
S'Heterogeneous Design Optimization From the Microstructure'
p3383
sL1016L
S'Parametric Structural Shape and Topology Optimization Method With Radial Basis Functions and Level-Set Method'
p3384
sL1017L
S'FEA-Based Design of Heterogeneous Objects'
p3385
sL1018L
S'Material Property Identification and Sensitivity Analysis Using Indentation and FEM'
p3386
sL1019L
S'Topology Optimization of Micromachined Structures With Surface Micromachining Manufacturing Constraints'
p3387
sL1020L
S'Multifunctional Topology Design of Cellular Material Structures'
p3388
sL1021L
S'Designing Design Processes for Integrated Materials and Products Realization: A Multifunctional Energetic Structural Material Example'
p3389
sL1022L
S'Exploring the Advantages of Materials Design in a Product Design Process'
p3390
sL1023L
S'Free-Form Feature Representation and Comparison'
p3391
sL1024L
S'Parametric Solid Modeling'
p3392
sL1025L
S'Poisson Based Reuse of Freeform Features'
p3393
sL1026L
S'Parametric and Topological Control in Shape Optimization'
p3394
sL1027L
S'Topology Synthesis and Classification of Low-Mobility Parallel Mechanisms'
p3395
sL1028L
S'Coupling Degree of Mechanism and Its Application'
p3396
sL1029L
S'A Survey of Various Encoding Schemes and Associated Placement Algorithms Applied to Packing and Layout Problems'
p3397
sL1030L
S'Vehicle Component Layout With Shape Morphing: An Initial Study'
p3398
sL1031L
S'Simultaneous Geometry Optimization and Material Selection for Truss Structures'
p3399
sL1032L
S'A Two-Stage Design Method for Compliant Mechanisms Having Specified Non-Linear Output Paths'
p3400
sL1033L
S'A Multicriteria System-Based Method for Simulation-Driven Design Synthesis'
p3401
sL1034L
S'Design and Verification of a New Computer Controlled Seating Buck'
p3402
sL1035L
S'An Efficient Method for Detecting Packaging Supporting Space'
p3403
sL1036L
S'Topology Optimization Considering Gravitational and Centrifugal Forces'
p3404
sL1037L
S'BB-ATC: Analytical Target Cascading Using Branch and Bound for Mixed-Integer Nonlinear Programming'
p3405
sL1038L
S'Applying the Mahalanobis-Taguchi System to Vehicle Handling'
p3406
sL1039L
S'Model-Based Decomposition Using Non-Binary Dependency Analysis and Heuristic Partitioning Analysis'
p3407
sL1040L
S'Product Optimization Incorporating Discrete Design Variables Based on Decomposition of Performance Characteristics'
p3408
sL1041L
S'Development of Distributed Computing Framework for Parallel Multi-Disciplinary Optimization'
p3409
sL1042L
S'Ontologies for Supporting Engineering Design Optimization'
p3410
sL1043L
S'Two-Stage System of Systems Model by Linking System Design With Resource Allocation'
p3411
sL1044L
S'Optimization of a PEM Fuel Cell System for Low-Speed Hybrid Electric Vehicles'
p3412
sL1045L
S"A Multidisciplinary and Multiobjective System Analysis and Optimization Methodology for Embedding Integrated Systems Health Management (ISHM) Into NASA's Complex Systems"
p3413
sL1046L
S'Flexible Product Platforms: Framework and Case Study'
p3414
sL1048L
S'Platform-Based Design and Development: Current Trends and Needs in Industry'
p3415
sL1049L
S'Two Methodologies for Identifying Product Platform Elements Within an Existing Set of Products'
p3416
sL1050L
S'A Comprehensive Metric for Evaluating Component Commonality in a Product Family'
p3417
sL1052L
S'Towards a Suite of Problems for Comparison of Product Platform Design Methods: A Proposed Classification'
p3418
sL1053L
S'Selection-Integrated Optimization (SIO) Methodology for Optimal Design of Adaptive Systems'
p3419
sL1054L
S'A Method to Improve Platform Leveraging in a Market Segmentation Grid for an Existing Product Line'
p3420
sL1055L
S'An Enhanced Change Modes and Effects Analysis (CMEA) Tool for Measuring Product Flexibility With Applications to Consumer Products'
p3421
sL1056L
S'Determination of Ranged Sets of Design Specifications by Incorporating Heterogeneous Design Capability Information'
p3422
sL1057L
S'Assessing and Improving Commonality and Diversity Within a Product Family'
p3423
sL1058L
S'Assessing and Increasing Product and Family Differentiation in the Market'
p3424
sL1059L
S'Module Interface Representation'
p3425
sL1060L
S'Product Platform Problem Taxonomy: Classification and Identification of Benchmark Problems'
p3426
sL1061L
S'Adapted Concept Generation and Computational Techniques for the Application of a Transformer Design Theory'
p3427
sL1062L
S'2-D Deposition Pattern and Strategy Study on Rapid Manufacturing'
p3428
sL1063L
S'Ruled Layer Generation Between Two Freeform Curves by Normal and Distance Matching'
p3429
sL1064L
S'Spiral-Like Path Planning Without Gap for Material Deposition Processes'
p3430
sL1065L
S'Fast Layered Manufacturing Support Volume Computation on GPUs'
p3431
sL1066L
S'A Sensitivity Analysis of Shot Peening Parameters'
p3432
sL1067L
S'Reliability-Based Design Using Saddlepoint Approximation'
p3433
sL1068L
S'Uncertainty Analysis With Probability and Evidence Theories'
p3434
sL1069L
S'Engineering Product Design Optimization for Retail Channel Acceptance'
p3435
sL1070L
S'A Comparison of Probability Bounds Analysis and Sensitivity Analysis in Environmentally Benign Design and Manufacture'
p3436
sL1071L
S'A Sequential Algorithm for Possibility-Based Design Optimization'
p3437
sL1072L
S'Numerical Methods for Propagating Imprecise Uncertainty'
p3438
sL1073L
S'A Single-Loop Approach for System Reliability-Based Design Optimization'
p3439
sL1074L
S'Robust Design of Compressor Blades Against Manufacturing Variations'
p3440
sL1075L
S'The Risk in Early Design (RED) Method: Likelihood and Consequence Formulations'
p3441
sL1076L
S'Optimal Design With Non-Normally Distributed Random Parameters, Conditional Probability, and Joint Constraint Reliabilities: A Case Study in Vehicle Emissions Regulations to Achieve Ambient Air Quality Standards'
p3442
sL1077L
S'Simulation Model Refinement for Decision Making Via a Value-of-Information Based Metric'
p3443
sL1078L
S'A Bayesian Approach to Reliability-Based Optimization With Incomplete Information'
p3444
sL1079L
S'Modeling Implications in Simulation-Based Design of Stents'
p3445
sL1080L
S'Understanding the Effects of Model Uncertainty in Robust Design With Computer Experiments'
p3446
sL1081L
S'A Function-Based Methodology for Analyzing Critical Events'
p3447
sL1082L
S'Some Metrics and a Bayesian Procedure for Validating Predictive Models in Engineering Design'
p3448
sL1083L
S'Multi-Disciplinary Conceptual Modeling and Optimization With Uncertainty Effects Consideration'
p3449
sL1084L
S'An Inverse Analysis Method for Design Optimization With Both Statistical and Fuzzy Uncertainties'
p3450
sL1085L
S'Alternative Methods for Reliability-Based Robust Design Optimization Including Dimension Reduction Method'
p3451
sL1086L
S'INSIDES: A New Design and Simulation Platform for Virtual Prototyping in Automotive and Aerospace Industry'
p3452
sL1087L
S'Development of Evaluation System for Style Design Using Mixed Reality Technology'
p3453
sL1088L
S'A Graphical Modeling Environment for Configuring Modular Product Families and Platforms'
p3454
sL1089L
S'Visual Representations as an Aid to Concept Generation'
p3455
sL1090L
S'Style Design Method Based on Form Impressions'
p3456
sL1091L
S'Automated Concept Generation: A Co-Evolutionary Approach'
p3457
sL1092L
S'Knowledge Sharing Between Designers and Accidentologists for the Development of Road Safety Systems'
p3458
sL1093L
S'A Method for Inferring Design Rules With Explicit Bounds of Applicability'
p3459
sL1094L
S'Using Q-Learning and Genetic Algorithms to Improve the Efficiency of Weight Adjustments for Optimal Control and Design Problems'
p3460
sL1095L
S'A Web-Enabled Engineering Object Modeling Environment to Support Interoperability and Intelligent Services in Collaborative Design'
p3461
sL1096L
S'Handling Multiple Objectives in Decentralized Design'
p3462
sL1097L
S'Facilitating Collaborative Design: A Review on Design Representations and Workstations'
p3463
sL1098L
S'Acquisition of Product Design Guidelines Considering User Kansei Data Pertaining to Product Environments'
p3464
sL1099L
S'Computational Methods Applied to Modelica Simulation Models in a Web Based Framework'
p3465
sL1100L
S'Evaluation of Modular Design Concepts of Complex Mechatronic Systems'
p3466
sL1101L
S'Modeling of Evolutionary Design Database'
p3467
sL1102L
S'On Performance Enhancement of Parallel Kinematic Machine'
p3468
sL1103L
S'An Information Theoretical Perspective on Performance, Refinement and Cost'
p3469
sL1104L
S'A Graph-Based Method for Mechanical Product Family Modeling and Functional Tolerancing'
p3470
sL1105L
S'A Cost Based Methodology for Design Optimization'
p3471
sL1106L
S'Can a House Without a Foundation Support Design?'
p3472
sL1107L
S'A Decision Support Formulation for Design Teams: A Study in Preference Aggregation and Handling Unequal Group Members'
p3473
sL1108L
S'Manufacturing Investment and Allocation in Product Line Design Decision-Making'
p3474
sL1109L
S'An Optimization Based Methodology to Design Flexible Systems Subjected to Changing Operating Conditions'
p3475
sL1110L
S'A Conceptual Design Tool With Error Warning'
p3476
sL1111L
S'Analyzing Accidents of Jamming Body Parts in Doors'
p3477
sL1112L
S'Organizational Applications of Failure Knowledge Management'
p3478
sL1113L
S'Development of a Robust Design Process Using a New Robustness Index'
p3479
sL1114L
S'On Providing Formal Manufacturability Information to Upstream Product Development Processes: Methodology and Case Study'
p3480
sL1115L
S'Modeling of Non-Linear Relations Among Different Design Evaluation Measures for Multi-Objective Design Optimization'
p3481
sL1116L
S'On the Impact of Coupling Strength on Complex System Optimization for Single-Level Formulations'
p3482
sL1117L
S'Feasibility Assessment in Preliminary Design Using Pareto Sets'
p3483
sL1118L
S'PSO Driven Genetic Range Genetic Algorithms'
p3484
sL1119L
S'Methods for Discrete Design Optimization'
p3485
sL1120L
S'Design Optimization by Integration of Evolutionary Search and Cumulative Approximation'
p3486
sL1121L
S'Twinkling a Random Search Algorithm for Design Optimization'
p3487
sL1122L
S'Pipe Route Design Using Variable Topography Distance Transforms'
p3488
sL1123L
S'Heuristic Gradient Projection for 3D Space Frame Optimization'
p3489
sL1124L
S'Fuzzy Heuristic Gradient Projection for Frame Topology Optimization'
p3490
sL1125L
S'Faster Generation of Feasible Design Points'
p3491
sL1126L
S'Methodology to Reach Optimal Design of CHP Plants'
p3492
sL1127L
S'A Comparison of Optimized Stacked-Ply Flywheel Designs That Are Based on Different Failure Criteria'
p3493
sL1128L
S'Roles and Observations of a Graduate Design Coach'
p3494
sL1129L
S'Low Cost Demonstrator as a Mean for Rapid Product Realization With an Electric Motorcycle Application'
p3495
sL1130L
S'Synthesis of Structural Symmetry Driven by Cost Savings'
p3496
sL1131L
S'An Interval-Based Focalization Method for Decision-Making in Decentralized, Multi-Functional Design'
p3497
sL1132L
S'A Parallel Grammar for Simulation-Driven Mechanical Design Synthesis'
p3498
sL1133L
S'A Study of Factor Effects in Data From Factorial Experiments'
p3499
sL1134L
S'Geometric Surface Features Applied to Volumetric CAE Mesh Models'
p3500
sL1135L
S'A CAD-Integrated System for Automated Idealization of CAD-Models for Finite Element Analysis'
p3501
sL1136L
S'A Method for Integrating Form Errors Into Geometric Tolerance Analysis'
p3502
sL1137L
S'Shape Recovery From Medical Image Data Using Extended Superquadrics'
p3503
sL1138L
S'Insertion of Planar Areas Into Free-Form Surfaces in Early Product Design'
p3504
sL1139L
S'Tolerance-Maps Applied to a Point-Line Cluster of Features'
p3505
sL1140L
S'Allocating Tolerances Statistically With Tolerance-Maps and Beta Distributions: The Target a Planar Face'
p3506
sL1141L
S'Design for Product-Embedded Disassembly'
p3507
sL1142L
S'Filleting and Rounding Using a Point-Based Method'
p3508
sL1143L
S'Recognition of Interacting Turning Features for Mill/Turn Parts'
p3509
sL1144L
S'A Packing Genetic Algorithm for Configuration Design'
p3510
sL1145L
S'Polygon Offsetting by Computing Winding Numbers'
p3511
sL1146L
S'Mesh Processing for Computerized Anthropometry'
p3512
sL1147L
S'A Complete Variation Algorithm for Slot and Tab Features for 3D Simulation-Based Tolerance Analysis'
p3513
sL1148L
S'On Tolerance Information Extraction of Feature Model in Automotive Engine CAPP System'
p3514
sL1149L
S'Hole-Making on a Bent Thick Plate'
p3515
sL1150L
S'Design and Experimental Research of Magneto-Rheological Fluid Fan Clutch'
p3516
sL1151L
S'Continuum-Based Design Sensitivity Analysis and Optimization of Springback in Stamping Process'
p3517
sL1152L
S'Design of an Automobile Seat With Regulations Using Axiomatic Design'
p3518
sL1153L
S'Design Optimization of Continuous Caster Refractory Components'
p3519
sL1155L
S'Methodology for Market Analysis of CHP Systems'
p3520
sL1156L
S'Integrating a Vision System With a Coordinate Measuring Machine to Automate the Datum Alignment Process'
p3521
sL1157L
S'A Study on the Feed Rate Optimization of a Ball Screw Feed Drive System for Minimum Vibrations'
p3522
sL1158L
S'Occupant Restraint System Design Under Uncertainty Using Analytical Uncertainty Propagation Via Metamodels'
p3523
sL1159L
S'Packing Optimization by Enhanced Rubber Band Analogy'
p3524
sL1160L
S'Automating Error Attenuation of Cutting Tools Using Smart Material'
p3525
sL1161L
S'Knowledge Based Design Method for Fibre Metal Laminate Fuselage Panels'
p3526
sL1162L
S'A Unified Information Model for Product Family Design Management'
p3527
sL1163L
S'Analysis of Information Complexity During Product Development'
p3528
sL1164L
S'Integrated Feature Modeller for Certain Manufacturing Processes'
p3529
sL1165L
S'Extended Radial Basis Functions for Metamodeling: A Comparative Study'
p3530
sL1166L
S'Selecting an Appropriate Metamodel: The Case for NURBs Metamodels'
p3531
sL1167L
S'A Hybrid Method Using Response Surface and Pattern Search for Design Optimization'
p3532
sL1168L
S'Gaussian Process Meta-Models for Efficient Probabilistic Design in Complex Engineering Design Spaces'
p3533
sL1169L
S'A Compromise Method for the Design of Parametric Polynomial Surrogate Models'
p3534
sL1170L
S'Robust Design of Cellular Materials With Topological and Dimensional Imperfections'
p3535
sL1171L
S'Microstructure Design for a Rotating Disk: With Application to Turbine Engines'
p3536
sL1172L
S'Design of Functionally Graded Structures for Enhanced Thermal Behavior'
p3537
sL1173L
S'A Strategy for Simulation-Based Multiscale, Multi-Functional Products and Associated Design Processes'
p3538
sL1174L
S'An Inductive Design Exploration Method for the Integrated Design of Multi-Scale Materials and Products'
p3539
sL1175L
S'The Generalized Cahn-Hilliard Equations of Multiphase Transition for Structural Topology Optimization'
p3540
sL1176L
S'A Topology Optimization Problem in Control of Structures Using Modal Disparity'
p3541
sL1177L
S'Synthesis of Bistable Periodic Structures Using Topology Optimization and a Genetic Algorithm'
p3542
sL1178L
S'Vehicle Crashworthiness Design Via a Surrogate Model Ensemble and a Co-Evolutionary Genetic Algorithm'
p3543
sL1179L
S'Structural Topology Optimization Using Frame Elements Based on the Complementary Strain Energy Concept for Eigen-Frequency Maximization'
p3544
sL1180L
S'Optimisation of a Robotic Workcell Layout Using Genetic Algorithms'
p3545
sL1181L
S'Topological Synthesis for Linkage Mechanism Design Using the Minimum Potential Energy Principle'
p3546
sL1182L
S'Structural Topology Optimization Under Design-Dependent Loads'
p3547
sL1183L
S'A Review of Software Solutions for the Management of New Product Development and Product Family Planning'
p3548
sL1184L
S'An Activity-Based Costing Method for Product Family Design in the Early Stages of Development'
p3549
sL1185L
S'Product Family Representation and Redesign: Increasing Commonality Using Formal Concept Analysis'
p3550
sL1186L
S'Towards Rapid Redesign: Pattern-Based Design Diagnostics for Large-Scale and Complex Redesign Problems'
p3551
sL1187L
S'Towards Rapid Redesign: Pattern-Based Redesign Planning for Large-Scale and Complex Redesign Problems'
p3552
sL1188L
S'Multi-Objective Design Optimization for Product Platform and Product Family Design Using Genetic Algorithms'
p3553
sL1189L
S'A Methodology to Support Product Family Redesign Using Genetic Algorithm and Commonality Indices'
p3554
sL1190L
S'Assembly Process Selection to Minimize Existing Assembly System Modification Cost During New Product Family Member Design'
p3555
sL1191L
S'Designing Product Families for a Changing Market Space'
p3556
sL1192L
S'A Group Technology Based Representation for Product Portfolios'
p3557
sL1193L
S'Customer Need Driven Function-Behavior Platform Formation'
p3558
sL1194L
S'Product Configuration Design Based on Extensible Product Family for Mass Customization'
p3559
sL1195L
S'Process Platform-Based Production Configuration'
p3560
sL1196L
S'Robust Truck Cabin Layout Optimization Using Advanced Driver Variance Models'
p3561
sL1197L
S'An Adaptive Sequential Linear Programming Algorithm for Optimal Design Problems With Probabilistic Constraints'
p3562
sL1198L
S'Reliability Assessment Based on the Concept of Failure Surface Frontier'
p3563
sL1199L
S'Reliability Optimization Involving Mixed Continuous-Discrete Uncertainties'
p3564
sL1200L
S'Uncertainty Analysis by Dimension Reduction Integration and Saddlepoint Approximations'
p3565
sL1201L
S'A Design Optimization Method Using Evidence Theory'
p3566
sL1202L
S'Enhanced Sequential Optimization and Reliability Assessment Method for Changing Design Variance'
p3567
sL1203L
S'Probabilistic Analytical Target Cascading: A Moment Matching Formulation for Multilevel Optimization Under Uncertainty'
p3568
sL1204L
S'A Methodology to Manage Uncertainty During System-Level Conceptual Design'
p3569
sL1205L
S'A Methodology for Trading-Off Performance and Robustness Under Uncertainty'
p3570
sL1206L
S'Efficient Genetic Algoritm Based Robust Design Method for Compressor Fan Blades'
p3571
sL1207L
S'A New Approach to Probabilistic Risk Analysis in Concurrent and Distributed Design of Aerospace Systems'
p3572
sL1208L
S'Effects of Uncertainty Reduction on Weight of Composite Laminates at Cryogenic Temperatures'
p3573
sL1209L
S'A New Deterministic Approach Using Sensitivity Region Measures for Multi-Objective Robust and Feasibilty Robust Design Optimization'
p3574
sL1210L
S'Reliability-Based Topology Optimization Considering Multicriteria Using Frame Elements'
p3575
sL1211L
S'Integrated Framework for Design Optimization Under Aleatory and/or Epistemic Uncertainties Using Adaptive-Loop Method'
p3576
sL1212L
S'Effect of Safety Measures on Reliability of Aircraft Structures Subjected to Damage Growth'
p3577
sL1213L
S'A Quadrature-Based Sampling Technique for Robust Design With Computer Models'
p3578
sL1214L
S'Automatic Decomposition and Refinement of Oversized Components for Rapid Prototyping'
p3579
sL1215L
S'Virtual Reality Interactive Design Utilizing Meshless Stress Re-Analysis'
p3580
sL1216L
S'Selective Clay Milling for Interactive Prototyping'
p3581
sL1217L
S'Building Sequence of Boundary Model in Layered Manufacturing'
p3582
sL1218L
S'Automatic Fairing of Two-Parameter Rational B-Spline Motion'
p3583
sL1219L
S'PDE-Driven Level Sets and Shape Sensitivity for Structural Topology Optimization'
p3584
sL1220L
S'An Efficient Feasibility Robust Optimization Method Using a Sensitivity Region Concept'
p3585
sL1221L
S'Numerical and Experimental Study of Shielding Gas Orientation Effects on Particle Stream Concentration Mode in Coaxial Laser Aided Material Deposition Process'
p3586
sL1222L
S'Analysis of Decomposability and Complexity for Design Problems in the Context of Decomposition'
p3587
sL1223L
S'Freeform Feature Retrieval by Signal Processing'
p3588
sL1224L
S'Covariance Modeling Method for Use in Compliant Assembly Tolerance Analysis'
p3589
sL1225L
S'A Product Ontology for Automotive Seat Specification'
p3590
sL1226L
S'Resistance Based Modeling of Collaborative Design'
p3591
sL1228L
S'An Optimization Study of the Ultrasonic Welding of Thin Film Polymers'
p3592
sL1229L
S'A Method to Solve Inverse Kinematics Problems Using Lie Algebra and Its Application to Robot Spray Painting Simulation'
p3593
sL1230L
S'Derivation of Design Guidelines for Miniature Machine Tools'
p3594
sL1231L
S'Automated Symmetry Exploitation in Engineering Analysis'
p3595
sL1232L
S'On the Design Synthesis of Multistable Equilibrium Systems'
p3596
sL1233L
S'Optimization of a Semi-Active Shock Absorber Using a Genetic Algorithm'
p3597
sL1234L
S'Concurrent Parameter Design Based on Constraint Network'
p3598
sL1236L
S'A Quantitative Analysis of the Evolution of Design Automation Conference Fields'
p3599
sL1237L
S'Optimization of Chemical Etching Process in Niobium Cavities'
p3600
sL1238L
S'An Efficient Weighting Update Method to Achieve Acceptable Consistency Deviation in Analytical Target Cascading'
p3601
sL1239L
S'A Comparison of Commonality Indices for Product Family Design'
p3602
sL1240L
S'A System Approach to Simulation-Based Design Under Uncertainty, Through Best in Class Simulation Process Integration and Design Optimization'
p3603
sL1241L
S'A Comparative Study of Constraint Programming Techniques Over Intervals in Preliminary Design'
p3604
sL1242L
S'Front Structure Design Procedure for Optimal Pedestrian Leg Impact Performance'
p3605
sL1243L
S'A Recursive, Line-Intersection Method for Finding the Area of a Mesh Projected Onto a Plane'
p3606
sL1244L
S'Task Scheduling of Parallel Development Projects Using Genetic Algorithms'
p3607
sL1245L
S'Dynamic Modeling and Simulation of Parallel Kinematic Machines'
p3608
sL1246L
S'DRed and Design Folders: A Way of Capturing, Storing and Passing On Knowledge Generated During Design Projects'
p3609
sL1247L
S'Identifying and Tracking Features in Freeform Shape'
p3610
sL1248L
S'Development of a Production Cost Estimation Framework for Product Family Design'
p3611
sL1249L
S'Modeling and Design of Materials for Controlled Wave Propagation in Plane Grid Structures'
p3612
sL1250L
S'An Efficient Pareto Set Identification Approach for Multi-Objective Optimization on Black-Box Functions'
p3613
sL1251L
S'Ant Colony Optimization Method for Product Platform Formation'
p3614
sL1252L
S'The Effects of Different Specifications on the Tolerance-Maps for an Angled Face'
p3615
sL1253L
S'Development of Process Optimization for an Intelligent Knowledge-Based System for Spur Gear Precision Forging Die Design'
p3616
sL1254L
S'Global Stiffness Improvement for Tricept Machine Tools Family'
p3617
sL1255L
S'A Parametric Approach to Vehicle Seating Buck Design'
p3618
sL1256L
S'Parameter and Tolerance Constraints Modeling for Assembly'
p3619
sL1257L
S'Fully Free-Form Deformation Features Incorporating Discontinuities'
p3620
sL1258L
S'Design of Components With Optimized Microstructure'
p3621
sL1259L
S'An Integrated Design Support Environment for a Micro-Scale Portable Absorption Cooling System'
p3622
sL1260L
S'A Conceptual Design Synthesis Framework for Micro-Electro-Mechanical Systems (MEMS)'
p3623
sL1261L
S'A Survey of the Study of Failure'
p3624
sL1262L
S'A Knowledge-Based System for Change Impact Analysis'
p3625
sL1263L
S'Evaluation Method for the Topological Synthesis of Sheet Metal Components'
p3626
sL1264L
S'A Single-Loop Method for Reliability-Based Design Optimization'
p3627
sL1265L
S'Geometric Design of Uniform Developable B-Spline Surfaces'
p3628
sL1266L
S'Creative Design, Issues and Strategies'
p3629
sL1267L
S'A Saddlepoint Approximation Method for Uncertainty Analysis'
p3630
sL1268L
S'Geometric Containment Analysis for Rotational Parts'
p3631
sL1269L
S'Integrating Freeform and Feature-Based Fitting Methods'
p3632
sL1270L
S'A Systems Framework for Platform Architecture Analysis'
p3633
sL1271L
S'On the Use of Kriging Models to Approximate Deterministic Computer Models'
p3634
sL1272L
S'Decomposition-Based Assembly Synthesis of Space Frame Structures Using Joint Library'
p3635
sL1273L
S'A New Approach for Simultaneous Shape and Topology Optimization Based on Implicit Topology Description Functions'
p3636
sL1274L
S'On Electrochemical Deposition for Layered Manufacturing'
p3637
sL1275L
S'Robustness and Performance Optimization of Engine Bearing System Using Computer Model and Surrogate Noise'
p3638
sL1276L
S'Design Optimization of Enclosed Liquid Containers With Baffles for Sloshing and Impact'
p3639
sL1277L
S'Design for Project Change Management: Part 1 -- Configuration Design'
p3640
sL1278L
S'Design for Project Change Management: Part 2 -- Attribute Design'
p3641
sL1279L
S'Moment Matching for Sensitivity Analysis of Probabilistic Model Output'
p3642
sL1280L
S'Product Design Selection With Variability in Preferences for an Implicit Value Function'
p3643
sL1281L
S'A Formal Approach to Handling Conflicts in Multiattribute Group Decision Making'
p3644
sL1282L
S'Convergence and Stability in Distributed Design of Large Systems'
p3645
sL1283L
S'Transient Root Cause Analysis: A Model-Based Systems Engineering Methodology'
p3646
sL1284L
S'Design Optimization of Hierarchically Decomposed Multilevel Systems Under Uncertainty'
p3647
sL1285L
S'Purely Declarative Feature-Based Design With Feature Type Property Maintenance'
p3648
sL1286L
S'A Weighted Three-Point-Based Strategy for Variance Estimation'
p3649
sL1287L
S'Hierarchical Arrangement of Characteristics in Product Design Optimization Problems for Deeper Insight Into Optimized Results'
p3650
sL1288L
S'A Method for Determining the Optimal Direction of the Principal Moment of Inertia in Frame Element Cross-Sections'
p3651
sL1289L
S'A Collaborative Rapid Analysis Method for Decision-Making in Assembly Line Design'
p3652
sL1290L
S'Text and Illustration Based Scenario Expressions for Conveying Failure Knowledge'
p3653
sL1291L
S'Variant Design Automation: Strategy and Procedure for Storing Design Process Information'
p3654
sL1292L
S'A Process-Oriented Approach for Management of Product Configuration Models'
p3655
sL1293L
S'Design of a Bimorph Driven Meander-Line Structure for Parts Feeder Application'
p3656
sL1294L
S'Optimisation and Robust Design in Aero Engine Development'
p3657
sL1295L
S'Decoupled and Single Loop Methods for Reliability-Based Optimization and Robust Design'
p3658
sL1296L
S'An Integrated Robust Design and Marketing Approach for Product Design Selection Process'
p3659
sL1297L
S'A CAD Package for High-Speed Cam Design Based on Direct Multiple Shooting Optimal Control Techniques'
p3660
sL1298L
S'A Fuzzy Dynamic Programming Approach for Mixed-Discrete Multistage Decision Processes'
p3661
sL1299L
S'Structural Topology Optimization Under Impact Loads Using Beam Ground Structures'
p3662
sL1300L
S'Objective Function Based Pattern Search: A Computationally Efficient Algorithm for 3D Component Layout'
p3663
sL1301L
S'Toward an Information Management Infrastructure for Product Family Planning and Mass Customization'
p3664
sL1302L
S'Application of Math-Based Marketing and Financial Tools in an Automated Parametric Design Framework'
p3665
sL1303L
S'An Information Theoretical Perspective on Design Optimization'
p3666
sL1304L
S'Economics of Sacrificial Fixturing for CNC Machining and Rapid Manufacturing'
p3667
sL1305L
S'A Benchmark Comparison of CAD 5-Axis Machining Packages'
p3668
sL1306L
S'A Comparative Study of Optimal Design for an Inkjet Printer Tube With and Without Performance Variations'
p3669
sL1307L
S'Reliability-Based Design Optimization Methods'
p3670
sL1308L
S'A Reliability-Based Design Method Using Simulation Techniques and Efficient Optimization Approach'
p3671
sL1309L
S'Assessing Product Architecture Costing: Product Life Cycles, Allocation Rules, and Cost Models'
p3672
sL1310L
S'Unified Distance Queries in a Heterogeneous Model Environment'
p3673
sL1311L
S'The Role of Constraints and Human Interaction in Evolving MEMS Designs: Microresonator Case Study'
p3674
sL1312L
S'Two-Level Approximation Method for Reliability-Based Design Optimization'
p3675
sL1313L
S'Product Platform Design Through Sensitivity Analysis and Cluster Analysis'
p3676
sL1315L
S'A Full Parametric Model for Turbomachinery Blade Design and Optimisation'
p3677
sL1316L
S'The Performance Moment Integration Method for Reliability-Based Robust Design Optimization'
p3678
sL1317L
S'Segmentation of Noisy Laser-Scanner Generated Meshes With Piecewise Polynomial Approximations'
p3679
sL1318L
S'Solid Modeler Evaluation and Comparison Cycle: A Methodology for Optimum Selection of Modeling Software'
p3680
sL1319L
S'Vehicle Structure Optimization for Crash Pulse'
p3681
sL1320L
S'Analytical Variance-Based Global Sensitivity Analysis in Simulation-Based Design Under Uncertainty'
p3682
sL1321L
S'Building Surrogate Models Based on Detailed and Approximate Simulations'
p3683
sL1322L
S'Graphical Modeling Environment and Supporting Framework for Function-Based Conceptual Design'
p3684
sL1323L
S'Relative Entropy Based Method for Global and Regional Sensitivity Analysis in Probabilistic Design'
p3685
sL1324L
S'A Haptic System for Virtual Prototyping of Polygonal Models'
p3686
sL1325L
S'Influence of Group Cohesion and Information Sharing on Effectiveness of Design Review'
p3687
sL1326L
S'Development of a J2EE Web Application for STEP-Based Design Conformance Checking'
p3688
sL1327L
S'A Sequential Exploratory Experimental Design Method: Development of Appropriate Empirical Models in Design'
p3689
sL1328L
S'Applicability of Design Spaces to Utilize Current Assembly Plant Resources to Produce New Product Family Members'
p3690
sL1329L
S'A Sketch-Based Interface for the Design and Analysis of Simple Vibratory Mechanical Systems'
p3691
sL1330L
S'Trim Loop Closure for Enhanced CAD Interoperability'
p3692
sL1331L
S'Haptically Guided Filtering for Reverse Engineering'
p3693
sL1332L
S'Design Configuration of Vehicle With Domain Knowledge Enhancement'
p3694
sL1333L
S'An Exploration-Estimation Algorithm for Synthesis and Analysis of Engineering Systems Using Minimal Physical Testing'
p3695
sL1334L
S'Quantifying Profit and Loss Associated With Failure Cases'
p3696
sL1335L
S'Using the Compromise Decision Support Problem in Microsystem Design: A Formulation for a Miniature Parylene Gas Chromatographic Column'
p3697
sL1336L
S'Improved Disassembly Matrices for Disassembly Processes'
p3698
sL1337L
S'Design Under Uncertainty Using Monte Carlo Simulation and Probabilistic Sufficiency Factor'
p3699
sL1338L
S'A Cross-Evaluation Matrix (CEM) Rating Based Approach to Pareto Efficient Frontier and Design Alternatives Enumeration'
p3700
sL1339L
S'An Integrated Framework for Probabilistic Optimization Using Inverse Reliability Strategy'
p3701
sL1340L
S'An Approach to Robust Multiattribute Concept Selection'
p3702
sL1341L
S'An Indicator Response Surface-Based Monte Carlo Method for Efficient Component and System Reliability Analysis'
p3703
sL1342L
S'Reliability-Based Design With the Mixture of Random and Interval Variables'
p3704
sL1343L
S'Application of the Sequential Optimization and Reliability Assessment Method to Structural Design Problems'
p3705
sL1344L
S'Structural Durability Design Optimization and Its Reliability Assessment'
p3706
sL1345L
S'Incorporating Epistemic Uncertainty in Robust Design'
p3707
sL1346L
S'Robust Optimization of an Automotive Valvetrain Using a Multiobjective Genetic Algorithm'
p3708
sL1347L
S'Robust Design Using Preference Aggregation Methods'
p3709
sL1348L
S'Non-Gradient Based Parameter Sensitivity Estimation for Robust Design Optimization'
p3710
sL1349L
S'Product Platform Design and Optimization: Status and Promise'
p3711
sL1350L
S'Optimal Design Methodology of Common Components for a Class of Products: Its Foundations and Promise'
p3712
sL1351L
S'Internet Based Framework to Perform Automated FEA on User Customized Products'
p3713
sL1352L
S'Production Cost Modeling to Support Product Family Design Optimization'
p3714
sL1353L
S'Product Family and Platform Portfolio Optimization'
p3715
sL1354L
S'Dimensional Adjustment for Assemblability of Rapid Protoyped Parts'
p3716
sL1355L
S'WirePATH Rapid Tooling Process and Supporting Software Development'
p3717
sL1356L
S'Layered Manufacturing by Electrophotographic Printing'
p3718
sL1357L
S'Towards Automated Design of Multi-Piece Permanent Molds'
p3719
sL1358L
S'Toward Automatic Process Planning of a Multi-Axis Hybrid Laser Aided Manufacturing System: Skeleton-Based Offset Edge Generation'
p3720
sL1359L
S'Extracting Freeform Shape Information by Template Fitting'
p3721
sL1360L
S'Extended Hierarchical Cluster Analysis for the Decomposition of Complex Design Problems'
p3722
sL1361L
S'Assembly Synthesis With Subassembly Partitioning for Optimal In-Process Dimensional Adjustability'
p3723
sL1362L
S'Topology Optimization of Multi-Component Structures via Decomposition-Based Assembly Synthesis'
p3724
sL1363L
S'Quantitative Exploratory Techniques to Simplify Multiple Objectives in Product Design Optimization'
p3725
sL1364L
S'Multi-Objective Optimisation of Ship Hull With Distributed Applications'
p3726
sL1365L
S'Structural Topology Design Optimization for Controlled Crash Behavior'
p3727
sL1366L
S'Analytical Target Setting: An Enterprise Context in Optimal Product Design'
p3728
sL1367L
S'Multi-Objective Configuration Optimization With Vehicle Dynamics Applied to Midsize Truck Design'
p3729
sL1368L
S'A New Mathematical Model for Geometric Tolerances as Applied to Axes'
p3730
sL1370L
S'Tolerance Synthesis of Mechanisms: A Robust Design Approach'
p3731
sL1371L
S'Development of a Design Reuse View of Cutting Tool Design Ontology'
p3732
sL1372L
S'A Study of Geometric Error Measurement of CNC Machine Tools Using the Improved Planar Encoder System'
p3733
sL1373L
S'Reducing Cycle Time and Errors in the Design and Layout of MEMS'
p3734
sL1374L
S'Approaches of Knowledge-Based Design'
p3735
sL1375L
S'A Methodology for the Study of the Effects of Communication Method on Design Review Effectiveness'
p3736
sL1376L
S'Development of Knowledge Based System to Facilitate Design of On-Board Car Safety Systems'
p3737
sL1377L
S'Shape Knowledge Indexing Using Invariant Shape Code'
p3738
sL1378L
S'Knowledge Management: A Concept Review'
p3739
sL1380L
S'A Design Alternatives Assessment and Management Approach'
p3740
sL1381L
S'Knowledge Intensive Collaborative Decision Support for Design Process'
p3741
sL1382L
S'A Knowledge-Supported System for Engineering Change Impact Analysis'
p3742
sL1383L
S'Design Optimization of a Vehicle B-Pillar Subjected to Roof Crush Using Mixed Reactive Taboo Search'
p3743
sL1384L
S'Design Optimization of Vehicle Structures for Crashworthiness Using Equivalent Mechanism Approximations'
p3744
sL1385L
S'Response Surface Methods and Pareto Optimization in Crashworthiness Design'
p3745
sL1386L
S'Parametric Design Sensitivity Analysis of High Frequency Structural-Acoustic Problems Using Energy Finite Element Method'
p3746
sL1387L
S'The Effect of Tempering (Artificial Aging) on the Crashworthiness Performance of Mass-Efficient Extruded Aluminum Structures'
p3747
sL1388L
S'Bayesian Approximation-Assisted Optimization Applied to Crashworthiness Design of a Pickup Truck'
p3748
sL1389L
S'Emerging Virtual Machine Tools'
p3749
sL1390L
S'Computer Model Validation in Vehicle Crash Safety Design'
p3750
sL1391L
S'Penalized Likelihood Kriging Model for Analysis of Computer Experiments'
p3751
sL1392L
S'Analysis of Support Vector Regression for Approximation of Complex Engineering Analyses'
p3752
sL1393L
S'An Efficient Algorithm for Constructing Optimal Design of Computer Experiments'
p3753
sL1394L
S'Introducing Rough Set for Design Space Exploration and Optimization'
p3754
sL1395L
S'A Study on the Use of Kriging Models to Approximate Deterministic Computer Models'
p3755
sL1396L
S'A New Global Optimization Method for Simultaneous Computation on Expensive Black-Box Functions'
p3756
sL1397L
S'Multidimensional Solution Clustering and Its Application to the Coolant Passage Optimization of a Turbine Blade'
p3757
sL1398L
S'Optimization of a Semi-Active Shock Absorber for Aircraft Landing Gear'
p3758
sL1399L
S'Towards a Conceptual Design Explorer Using Metamodeling Approaches and Constraint Programming'
p3759
sL1400L
S'A Study of Emission Policy Effects on Optimal Vehicle Design Decisions'
p3760
sL1401L
S'Level Set Models for Structural Topology Optimization'
p3761
sL1402L
S'Topology Optimization of Heat-Resistant Structures'
p3762
sL1403L
S'Topology Optimization of a Compliant Gripper Using Hybrid Simulated Annealing and Direct Search'
p3763
sL1404L
S'Topology Optimization and Dynamic Performance of a Bike Frame With Dampers'
p3764
sL1405L
S'Robust Topological Design of Cellular Materials'
p3765
sL1406L
S'Structural Topology Optimization Using Function-Oriented Elements Based on the Concept of First Order Analysis'
p3766
sL1407L
S'Design of Energy Absorbing Structure Using Topology Optimization With a Multi-Material Model'
p3767
sL1408L
S'Parameterization Strategy for Optimization of Shape Morphing Compliant Mechanisms Using Load Path Representation'
p3768
sL1409L
S'A Face Clustering Method for a Hexahedral Meshing'
p3769
sL1410L
S'A New Approach to Minimisations for Shape Control During Free-Form Surface Deformation'
p3770
sL1411L
S'Smoothing of Noisy Laser Scanner Generated Meshes Using Polynomial Fitting and Neighborhood Erosion'
p3771
sL1412L
S'Partitioning Positional and Normal Space for Fast Occlusion Detection'
p3772
sL1413L
S'Automatic Toolpath Generation for Multi-Axis Surface Machining in a Hybrid Manufacturing System'
p3773
sL1414L
S'A Taxonomy for Collaborative Design'
p3774
sL1415L
S'A Study of Convergence in Decentralized Design'
p3775
sL1416L
S'Port-Compatibility and Connectability Based Assembly Design'
p3776
sL1417L
S'A Concurrent Design Method for Multiple Cross-Sectional Automotive Body Frames Involving Discrete and Continuous Design Variables'
p3777
sL1418L
S'Design Space Visualization and Its Application to a Design by Shopping Paradigm'
p3778
sL1419L
S'Design Process Error-Proofing: Development of Automated Error-Proofing Information Systems'
p3779
sL1420L
S'Design Evaluation Method for Miniature Machine Tools Utilizing Form-Shaping Theory'
p3780
sL1421L
S'Design Shell for Parametric Design at Embodiment Stage'
p3781
sL1422L
S'Scenario Expression for Characterizing Failure Cases'
p3782
sL1423L
S'Design Methodology for the Thermal Packaging of Hybrid Electronic-Mechanical Products: A Case Study on the Berkeley Emulation Engine (BEE)'
p3783
sL1424L
S'A Modeling Method for Vibration Analysis of a Stator Frame of Turbine Generators and Its Application to a Design System: Vibration Analysis and Analysis System'
p3784
sL1425L
S'Strengthening of Bone Cement by Shape Optimization of Short Fibers'
p3785
sL1426L
S'Constraint Dominance Methods Applied to the Design of a Linear Motor'
p3786
sL1427L
S'Design Sensitivity Analysis of Nonlinear Shell Structure With Frictionless Contact'
p3787
sL1428L
S'Optimal Troubleshooting for Electro-Mechanical Systems'
p3788
sL1429L
S'Optimization for Mass Variation of System Including Shock Absorber'
p3789
sL1430L
S'Discretizing Continuous Problems for Faster Global Convergence'
p3790
sL1431L
S'Optimal Packaging of Tank Turret System'
p3791
sL1432L
S'Genetic Range Genetic Algorithms to Obtain Quasi-Optimum Solutions'
p3792
sL1433L
S'Optimization of Helicopter Air Intake Scoop Design'
p3793
sL1434L
S'A Study on Immune Algorithms Considering Interaction of Design With Environment Properties'
p3794
sL1435L
S'Optimizing Optimization for Design Optimization'
p3795
sL1436L
S'Generalized Random Tunneling Algorithm for Continuous Design Variables'
p3796
sL1437L
S'Improved Development Cycle of a Compliant Manipulator'
p3797
sL1438L
S'On Honeycomb Parameterization for Topology Optimization of Compliant Mechanisms'
p3798
sL1439L
S'On Design of Electro-Thermally Compliant MEMS for Strength'
p3799
sL1441L
S'Introduction to Compliant Long-Dwell Mechanism Synthesis Using Buckling Arc Theory'
p3800
sL1442L
S'Distributed Compliant Model for Efficient Dynamic Simulation of Systems With Frictional Contacts'
p3801
sL1443L
S'Suspension Synthesis for N:1 Roll Center Motion'
p3802
sL1444L
S'A Robust Solution to the Spherical Rigid-Body Guidance Problem'
p3803
sL1445L
S'Designing a Dexterous Reconfigurable Packaging System for Flexible Automation'
p3804
sL1446L
S'Kinematic Synthesis of RPS Serial Chains'
p3805
sL1447L
S'Approximate Motion Synthesis of Open and Closed Chains via Parametric Constraint Manifold Fitting: Preliminary Results'
p3806
sL1448L
S'Suggesting Joint Limitations and Physical Parameters for Motion Generating 3 DOF Planar Chains'
p3807
sL1449L
S'Geometric Design of Cylindric PRS Serial Chains'
p3808
sL1450L
S'On the Effects of Weights in Rational Motion Design'
p3809
sL1451L
S'Dimensional Synthesis of CRR Serial Chains'
p3810
sL1452L
S'Analytical Determination of Principal Twists and Singular Directions in Robot Manipulators'
p3811
sL1453L
S'Type Synthesis of Three-DOF Translational Parallel Mechanisms'
p3812
sL1454L
S'Forward Problem Singularities of Manipulators Which Become PS-2RS or 2PS-RS Structures When the Actuators Are Locked'
p3813
sL1455L
S'Singularity Analysis of a Novel 4-DOFs Parallel Robot H4 by Using Screw Theory'
p3814
sL1456L
S'Planar Translational Cable-Direct-Driven Robots: Hardware Implementation'
p3815
sL1457L
S'Interpolation Algorithm and Its Error Prediction of a Tripod-Based Parallel Kinematic Machine'
p3816
sL1458L
S'An Integrated Virtual Validation System for Parallel Kinematic Machine Analysis Design'
p3817
sL1459L
S'Design Optimization of 6-HTRT Parallel Robot Orientated on Workspace'
p3818
sL1460L
S'Cable-Based Metrology System for Sculpting Assistance'
p3819
sL1461L
S'Optimal Integration of Smart Actuators in the Structure of Serial and Parallel Robot Manipulators to Enhance Speed and Tracking Precision'
p3820
sL1462L
S'An XZ Micropositioning Mechanism (XZMM) With Out-of-Plane Translation'
p3821
sL1463L
S'Kinetic Analysis of Planar Frictionless Mechanisms Made Simple'
p3822
sL1464L
S'Computer Simulation of Path and Motion Generation With Six-Bar Linkage'
p3823
sL1465L
S'On the Existence of Special Cases of Input Speed Doubling Linkage Mechanisms'
p3824
sL1466L
S'The Radius of Curvature of a Coupler Curve of the Single Flier Eight-Bar Linkage'
p3825
sL1467L
S'An Analytical Comparison Between Ball and Crossed Roller Bearings for Utilization in Actuator Modules for Precision Modular Robots'
p3826
sL1468L
S'Influence of End-Effector Velocities on Robotic Manipulator Dynamic Performance: An Analytical Approach'
p3827
sL1469L
S'Analysis and Visualization of the Contact Force Solution Space for Multi-Limbed Mobile Robots With Three Feet Contact'
p3828
sL1470L
S'Choosing the Optimal Contact Force Distribution for Multi-Limbed Mobile Robots With Three Feet Contact'
p3829
sL1471L
S'An Articulated Body Algorithm for Modelling and Simulation of an Underwater Vehicle Equipped With Manipulator Arm'
p3830
sL1472L
S'On the Design of Nesting Forces for Exactly Constrained, Robust Mechanical Assemblies'
p3831
sL1473L
S'On the Robustness of Exactly Constrained Mechanical Assemblies'
p3832
sL1474L
S'Analysis of Multiple Equilibrium Positions in Magnetostatic Field'
p3833
sL1475L
S'On the Geometry of 3D Orientation Measurement Using a New Class of Wireless Angular Position Sensors'
p3834
sL1476L
S'Similarity and Equivalence of Nutating Mechanisms to Bevel Epicyclic Gear Trains'
p3835
sL1477L
S'Forward Kinematics of 3-GPR Planar Parallel Manipulators With Circular Rolling Contact Joints'
p3836
sL1478L
S'The Robust Design of a Two-Wheeled Quasiholonomic Mobile Robot'
p3837
sL1479L
S'Kinematics of Wheeled Mobile Robots With Toroidal Wheels on Uneven Terrain'
p3838
sL1480L
S'Design of a Self-Actuating, Traction Drive System for High-Speed Ratios'
p3839
sL1481L
S'Topology and Shape Optimization of an Interbody Fusion Implant for Lumbar Spine Fixation'
p3840
sL1482L
S'An Integrated Design Optimization Approach for Quantitative and Qualitative Search Space'
p3841
sL1483L
S'An Approach for Generating Variational Geometry of a Pattern of Holes With Composite Positional Tolerances'
p3842
sL1484L
S'Design Decision-Making in the Early Stages of Collaborative Engineering'
p3843
sL1486L
S'Identifying Variable Effects on the Dimensional Quality of Compliant Assembly, Using Computer Experiments'
p3844
sL1488L
S'Reconstructing Freeform Surface With Parameterized Features'
p3845
sL1489L
S'Analysis and Design of a Four-Bar Linkage Type of Vibratory Parts Feeder Driven by Piezoelectric Actuator'
p3846
sL1490L
S'Autogenetic Design Theory: An Approach to Optimise Both the Design Process and the Product'
p3847
sL1491L
S'Human Head Aesthetic Design Using Hybrid Genetic Algorithm'
p3848
sL1492L
S'Applying Universal Linking of Engineering Objects in the Automotive Industry: Practical Aspects, Benefits, and Prototypes'
p3849
sL1493L
S'Mini-Max Type Formulation of Strict Robust Design Optimization Under Correlative Variation'
p3850
sL1494L
S'Optimization of Machine System Designs Using Hierarchical Decomposition Based on Criteria Influence'
p3851
sL1495L
S'Lifecycle-Based Product Design Using Global Optimization Methods Based on Hierarchical Genotype Representation of Alternatives and Constraints'
p3852
sL1496L
S'Conceptual Design of Tool Storage Based on the Divergent Tree Method'
p3853
sL1497L
S'Comparison of Gradient and Non Gradient Based Methods for Crash Optimisation'
p3854
sL1498L
S'Computational Geometric Modeling and Unfolding of 3-D Folded Structures'
p3855
sL1499L
S'Performance Optimization of Extrusion Blow Molded Parts Using Fuzzy Neural-Taguchi Method and Genetic Algorithm'
p3856
sL1500L
S'An Evolutionary Clustering Approach to Pareto Solutions in Multiobjective Optimization'
p3857
sL1501L
S'Automatic Conceptual Design of Mechanical Devices Based on Reasoning the Design Rules'
p3858
sL1502L
S'A Study on Collaborative Design Considering Features of Design'
p3859
sL1503L
S'Reconfiguration of Kinematic Structure for Changing Motion Requirement Based on Reusability Evaluation in Lie Algebra'
p3860
sL1504L
S'A Study on Optimum Topology of Plate Structure Using Coordinate Transformation by Conformal Mapping'
p3861
sL1505L
S'Computer-Aided Analysis of Free Transverse-Vibration of Stepped Beams'
p3862
sL1506L
S'Thermal Robustness and Mass Optimization of Heat Pipe Shape for Spacecraft Panel Using a Combination of Response Surface Methodology and Monte Carlo Simulation'
p3863
sL1507L
S'Dual Stage Input Coupled Split Power Transmission Efficiency Optimization'
p3864
sL1508L
S'Informing Design Using Data Mining Methods'
p3865
sL1509L
S'Development of Multi-Stage and Hybrid Real-Coded Genetic Algorithms With Active Constraints'
p3866
sL1510L
S'Computational Recognition of Functional Parameters of Surfaces for the Kinematic Design of Window Regulator Systems'
p3867
sL1511L
S'Human Modelling: A Constraint-Based Feature Modelling Approach'
p3868
sL1512L
S'Analysis of Loads and Stresses for a Sewing Needle'
p3869
sL1513L
S'Artificial Immune System Based Isomorphism Identification Method for Mechanism Kinematics Chains'
p3870
sL1515L
S'Cross Model Shape Reuse: Copying and Pasting of Freeform Features'
p3871
sL1516L
S'Automated Design Synthesis for Micro-Electro-Mechanical Systems (MEMS)'
p3872
sL1517L
S'Use of Constrained Viscoelastic Layers in the Design of Satellite Panels to Predict the Amplification Factor'
p3873
sL1518L
S'Stiffness Testing of Hydraulic Hoses'
p3874
sL1519L
S'Finite Element Analysis in 3D Using the Penalty Boundary Method'
p3875
sL1520L
S'Integration of Commercial CAD/CAM System With Custom CAPP Using Orbix Middleware and CORBA Standard'
p3876
sL1521L
S'Counting Degrees of Freedom for Developable Bezier Surface Design'
p3877
sL1522L
S'Determination of Geometric Distortions in Automotive Lamps Using Non-Linear Parametric Estimations'
p3878
sL1523L
S'Macroscopic Shape-Information as a Curve Design-Guideline'
p3879
sL1524L
S'Collaborative Decision Making Across Digital Interfaces'
p3880
sL1525L
S'Local Least Squares Fitting for Surface Mesh Fairing in Automobile Panel Design'
p3881
sL1526L
S'A Stochastic Optimization Application for Vehicle Structures'
p3882
sL1527L
S'Math-Based Performance Evaluation of an Experimental Car: Side Impact Protection'
p3883
sL1528L
S'Model Reduction in Structural Analysis Using a Multiresolution Analysis'
p3884
sL1529L
S'A Web Enabled Process for Accessing Customized Parametric Designs'
p3885
sL1530L
S'Multiattribute Decision Making Using Hypothetical Equivalents'
p3886
sL1531L
S'Interactive Product Design Selection With an Implicit Value Function'
p3887
sL1532L
S'A Customer-Based Expected Utility Metric for Product Design Selection'
p3888
sL1533L
S'Empirical Analysis Using Advanced Similarity Methods'
p3889
sL1534L
S'Decomposition-Based Assembly Synthesis Based on Structural Stiffness Considerations'
p3890
sL1535L
S'An Analytical Approach to Functional Design'
p3891
sL1536L
S'Control, Design and Error Variables in Decomposition of Design Optimization Problems'
p3892
sL1537L
S'Decomposition-Based Assembly Synthesis for In-Process Dimensional Adjustability'
p3893
sL1538L
S'A Grammar-Based Approach to Sheet Metal Design'
p3894
sL1539L
S'Adaptive-Agent Based Simulation Model to Study Diffusion of Eco-Innovation Strategies'
p3895
sL1540L
S'A Knowledge-Based Approach to Spur Gear Fabrication in Precision Forging Process'
p3896
sL1541L
S'A Benchmark Comparison of Curvature Matched Machining versus Three- and Five-Axis Machining Methods Applied to Industrial Part Surfaces'
p3897
sL1542L
S'Adaptive Experimental Design Applied to Ergonomics Testing Procedure'
p3898
sL1543L
S'On Sequential Sampling for Global Metamodeling in Engineering Design'
p3899
sL1544L
S'Computer Implementation of an Improved Kutzbach-Grubler Mobility Criterion'
p3900
sL1545L
S'Modeling of Slope Discontinuities in Flexible Body Dynamics Using the Finite Element Method'
p3901
sL1546L
S'Design of Hierarchic Platforms for Customizable Products'
p3902
sL1547L
S'A Quantitative Approach for Designing Multiple Product Platforms for an Evolving Portfolio of Products'
p3903
sL1548L
S'Optimal Design Decisions in Product Portfolio Valuation'
p3904
sL1549L
S'Knowledge Intensive Support for Product Family Design'
p3905
sL1550L
S'Platform Selection Under Performance Loss Constraints in Optimal Design of Product Families'
p3906
sL1551L
S'Inverse Parametric Modeling From Independently Generated Product Data Sets'
p3907
sL1552L
S'A Hybrid Approach to Feature Recognition Using Approximate and Partial Exact CAD Models'
p3908
sL1553L
S'A Mesh Feature Paradigm for Rapid Generation of CAE-Based Design of Experiments Data'
p3909
sL1554L
S'Development of Adaptive Range Genetic Algorithms Considering Inheritance of Searching Range'
p3910
sL1555L
S'GA-Based Multi-Objective Fuzzy Matter-Element Optimization'
p3911
sL1556L
S'Using Genetic Algorithms With Niche Formation to Solve the Minimum Distance Problem Among Concave Objects'
p3912
sL1557L
S'A Genetic Algorithm Based Method for Product Family Design Optimization'
p3913
sL1558L
S'Shape Optimization of NURBS Modeled 3D C-Frames Using Hybrid Genetic Algorithm'
p3914
sL1559L
S'Robust Design Through the Use of a Hybrid Genetic Algorithm'
p3915
sL1560L
S'Nonlinear Kinematic Tolerance Analysis of Planar Higher Pairs'
p3916
sL1561L
S'Parameter Sensitivity in System Identification of Parallel Mechanisms'
p3917
sL1562L
S'A New Symbolic Method to Determine Base Inertia Parameters for General Spatial Mechanisms'
p3918
sL1563L
S'Redesign of a Spatial Gear Pair Using Configuration Spaces'
p3919
sL1564L
S'Error Sensitivity Analysis for Optimal Calibration of Parallel Kinematic Machines'
p3920
sL1565L
S'Development of an Interactive Web-Based Support System for Gear Design'
p3921
sL1566L
S'An Extensive Simplex Method Mapping the Global Feasibility'
p3922
sL1567L
S'Theoretical Evaluation of the Integrated Structure and Control Design Approach by Optimization Theory'
p3923
sL1568L
S'Finding the Shortest Path for Quality Assurance of Electric Components'
p3924
sL1569L
S'Development of an Automatic Design and Optimization System for Industrial Silencers'
p3925
sL1570L
S'Architectural Optimisation Using Real Options Theory and Dependency Structure Matrices'
p3926
sL1571L
S'Dynamic Analysis and Optimization of Tensioner in Automotive Serpentine Belt Drive Systems'
p3927
sL1572L
S'Configurable and Extensible System for Experimenting With Design Optimization'
p3928
sL1573L
S'On the Entropy of Multi-Objective Design Optimization Solution Sets'
p3929
sL1574L
S'A Sensitivity-Based Pattern Search Algorithm for 3D Component Layout'
p3930
sL1575L
S'Hybrid Approach for Containment Problems'
p3931
sL1576L
S'A Non-Deterministic Approach to Concept Selection Using S-Pareto Frontiers'
p3932
sL1577L
S'Sequential Optimization and Reliability Assessment Method for Efficient Probabilistic Design'
p3933
sL1578L
S'An Investigation of Nonlinearity of Reliability-Based Design Optimization Approaches'
p3934
sL1579L
S'New Concepts in Graphic Visualization of Objective Functions'
p3935
sL1580L
S'Visualization of Multidimensional Design and Optimization Data Using Cloud Visualization'
p3936
sL1581L
S'Design Optimization for Structural-Acoustic Problems Using FEM-BEM'
p3937
sL1583L
S'Dynamic Project Navigation: Modelling, Improving, and Review of Engineering Processes'
p3938
sL1584L
S'Benefit Evaluation of New Technologies'
p3939
sL1585L
S'Smart Assemblies for Robust Design: A Progress Report'
p3940
sL1587L
S'The Evolution of a Layered Manufacturing Interchange Format'
p3941
sL1588L
S'ModelAngelo: A Rapid Prototyping System for Polystyrene'
p3942
sL1589L
S'Automatic Process Planning of a Multi-Axis Hybrid Manufacturing System'
p3943
sL1590L
S'H-ISM: An Implementation of Heterogeneous Implicit Solid Modeling'
p3944
sL1591L
S'Model Validation via Uncertainty Propagation Using Response Surface Models'
p3945
sL1592L
S'Bayesian Evaluation of Engineering Models'
p3946
sL1593L
S'Uncertainty Analysis Using a Constraint Reliability Index'
p3947
sL1594L
S'A Tool Management System for Probabilistic Design Problems'
p3948
sL1595L
S'Evaluation of Conceptual Designs and Maintainability Incorporating Uncertainty'
p3949
sL1596L
S'Computer-Aided Fixture Design Verification: Part II -- Tolerance Analysis'
p3950
sL1597L
S'A Scheme for Transformation of Tolerance Specifications to Generalized Deviation Space for Use in Tolerance Synthesis and Analysis'
p3951
sL1598L
S'Topology Optimization of Compliant Mechanisms Using Evolutionary Algorithm With Design Geometry Encoded as a Graph'
p3952
sL1599L
S'Optimal Embedding in the Topology Design of Structures'
p3953
sL1600L
S'An Evolutionary Multi-Objective Optimization Approach to the Topology Optimization of Auxetic Structures'
p3954
sL1601L
S'Compliant Mechanism Design With Non-Linear Materials Using Topology Optimization'
p3955
sL1602L
S'An Interactive Virtual Environment for 3D Model Assembly With Video Immersion'
p3956
sL1603L
S'Modeling of Hydraulic Hose Paths'
p3957
sL1604L
S'Math-Based Performance Evaluation of an Experimental Car: Frontal Impact Crashworthiness'
p3958
ssb.