ccopy_reg
_reconstructor
p0
(c__main__
CitationNetwork
p1
c__builtin__
object
p2
Ntp3
Rp4
(dp5
S'network_dict'
p6
(dp7
L472L
c__builtin__
set
p8
((lp9
tp10
Rp11
sL473L
g8
((lp12
tp13
Rp14
sL474L
g8
((lp15
tp16
Rp17
sL475L
g8
((lp18
tp19
Rp20
sL476L
g8
((lp21
tp22
Rp23
sL477L
g8
((lp24
tp25
Rp26
sL478L
g8
((lp27
tp28
Rp29
sL479L
g8
((lp30
tp31
Rp32
sL480L
g8
((lp33
tp34
Rp35
sL481L
g8
((lp36
tp37
Rp38
sL482L
g8
((lp39
tp40
Rp41
sL483L
g8
((lp42
L1416L
aL731L
aL605L
atp43
Rp44
sL484L
g8
((lp45
tp46
Rp47
sL485L
g8
((lp48
tp49
Rp50
sL486L
g8
((lp51
L1313L
aL1353L
aL1550L
aL757L
aL1046L
aL857L
atp52
Rp53
sL487L
g8
((lp54
tp55
Rp56
sL488L
g8
((lp57
tp58
Rp59
sL489L
g8
((lp60
L843L
aL847L
atp61
Rp62
sL490L
g8
((lp63
tp64
Rp65
sL491L
g8
((lp66
L601L
aL1349L
aL639L
atp67
Rp68
sL492L
g8
((lp69
L864L
aL596L
aL748L
aL1061L
atp70
Rp71
sL493L
g8
((lp72
L863L
atp73
Rp74
sL495L
g8
((lp75
L864L
aL596L
aL748L
aL1053L
aL749L
atp76
Rp77
sL496L
g8
((lp78
L864L
aL1046L
atp79
Rp80
sL497L
g8
((lp81
L1108L
aL754L
aL1532L
aL506L
atp82
Rp83
sL498L
g8
((lp84
L752L
atp85
Rp86
sL499L
g8
((lp87
L752L
aL818L
aL1069L
aL750L
atp88
Rp89
sL500L
g8
((lp90
tp91
Rp92
sL501L
g8
((lp93
tp94
Rp95
sL502L
g8
((lp96
L1010L
aL1125L
aL1399L
atp97
Rp98
sL503L
g8
((lp99
tp100
Rp101
sL504L
g8
((lp102
L760L
atp103
Rp104
sL505L
g8
((lp105
L1121L
aL761L
atp106
Rp107
sL506L
g8
((lp108
L497L
aL626L
atp109
Rp110
sL507L
g8
((lp111
L713L
aL876L
atp112
Rp113
sL508L
g8
((lp114
L770L
aL876L
atp115
Rp116
sL509L
g8
((lp117
tp118
Rp119
sL510L
g8
((lp120
tp121
Rp122
sL511L
g8
((lp123
L1062L
aL638L
aL1358L
atp124
Rp125
sL512L
g8
((lp126
L772L
atp127
Rp128
sL513L
g8
((lp129
tp130
Rp131
sL514L
g8
((lp132
tp133
Rp134
sL515L
g8
((lp135
tp136
Rp137
sL519L
g8
((lp138
L1206L
atp139
Rp140
sL521L
g8
((lp141
tp142
Rp143
sL522L
g8
((lp144
tp145
Rp146
sL523L
g8
((lp147
tp148
Rp149
sL524L
g8
((lp150
tp151
Rp152
sL525L
g8
((lp153
tp154
Rp155
sL526L
g8
((lp156
L1056L
atp157
Rp158
sL527L
g8
((lp159
L1039L
atp160
Rp161
sL528L
g8
((lp162
L1282L
aL740L
aL1415L
aL680L
aL746L
aL1069L
aL750L
aL752L
aL978L
aL1530L
atp163
Rp164
sL529L
g8
((lp165
L1392L
aL1010L
atp166
Rp167
sL530L
g8
((lp168
L1170L
atp169
Rp170
sL531L
g8
((lp171
L1010L
aL1543L
atp172
Rp173
sL532L
g8
((lp174
L1010L
atp175
Rp176
sL533L
g8
((lp177
L802L
aL739L
aL1543L
aL1321L
aL906L
aL1008L
aL1010L
aL1078L
aL1271L
atp178
Rp179
sL534L
g8
((lp180
tp181
Rp182
sL535L
g8
((lp183
L907L
aL636L
atp184
Rp185
sL536L
g8
((lp186
tp187
Rp188
sL537L
g8
((lp189
L538L
atp190
Rp191
sL538L
g8
((lp192
L537L
atp193
Rp194
sL539L
g8
((lp195
tp196
Rp197
sL540L
g8
((lp198
tp199
Rp200
sL541L
g8
((lp201
L1250L
atp202
Rp203
sL542L
g8
((lp204
L754L
aL859L
atp205
Rp206
sL543L
g8
((lp207
tp208
Rp209
sL544L
g8
((lp210
tp211
Rp212
sL545L
g8
((lp213
tp214
Rp215
sL546L
g8
((lp216
L907L
aL805L
atp217
Rp218
sL547L
g8
((lp219
tp220
Rp221
sL548L
g8
((lp222
L911L
atp223
Rp224
sL549L
g8
((lp225
L1271L
aL1071L
aL1201L
aL1078L
aL663L
aL664L
aL953L
atp226
Rp227
sL550L
g8
((lp228
tp229
Rp230
sL551L
g8
((lp231
L1009L
aL1250L
aL1010L
atp232
Rp233
sL552L
g8
((lp234
L1056L
aL1559L
aL1580L
aL663L
atp235
Rp236
sL553L
g8
((lp237
tp238
Rp239
sL554L
g8
((lp240
L925L
aL1054L
atp241
Rp242
sL555L
g8
((lp243
L1002L
aL1162L
aL813L
atp244
Rp245
sL556L
g8
((lp246
L1002L
aL932L
aL938L
aL813L
atp247
Rp248
sL557L
g8
((lp249
L675L
aL1301L
aL1046L
atp250
Rp251
sL558L
g8
((lp252
tp253
Rp254
sL559L
g8
((lp255
L691L
aL572L
aL821L
aL693L
atp256
Rp257
sL560L
g8
((lp258
L690L
atp259
Rp260
sL561L
g8
((lp261
L1238L
aL663L
atp262
Rp263
sL562L
g8
((lp264
tp265
Rp266
sL563L
g8
((lp267
L1010L
atp268
Rp269
sL564L
g8
((lp270
L1200L
aL1577L
aL1578L
aL1073L
atp271
Rp272
sL565L
g8
((lp273
tp274
Rp275
sL566L
g8
((lp276
L568L
atp277
Rp278
sL567L
g8
((lp279
L623L
atp280
Rp281
sL568L
g8
((lp282
L566L
atp283
Rp284
sL569L
g8
((lp285
tp286
Rp287
sL570L
g8
((lp288
L1203L
aL1284L
atp289
Rp290
sL571L
g8
((lp291
L1344L
aL1386L
atp292
Rp293
sL572L
g8
((lp294
L691L
aL572L
aL559L
atp295
Rp296
sL573L
g8
((lp297
L632L
atp298
Rp299
sL574L
g8
((lp300
L1080L
aL1393L
atp301
Rp302
sL575L
g8
((lp303
L1312L
aL1577L
aL1578L
aL1084L
atp304
Rp305
sL576L
g8
((lp306
L632L
aL698L
aL1021L
atp307
Rp308
sL577L
g8
((lp309
tp310
Rp311
sL578L
g8
((lp312
L1344L
aL707L
atp313
Rp314
sL579L
g8
((lp315
tp316
Rp317
sL580L
g8
((lp318
L764L
atp319
Rp320
sL582L
g8
((lp321
tp322
Rp323
sL583L
g8
((lp324
tp325
Rp326
sL584L
g8
((lp327
L1026L
atp328
Rp329
sL585L
g8
((lp330
tp331
Rp332
sL586L
g8
((lp333
tp334
Rp335
sL588L
g8
((lp336
tp337
Rp338
sL589L
g8
((lp339
tp340
Rp341
sL590L
g8
((lp342
L597L
atp343
Rp344
sL591L
g8
((lp345
tp346
Rp347
sL592L
g8
((lp348
L848L
aL879L
atp349
Rp350
sL593L
g8
((lp351
L1403L
aL1123L
aL1516L
aL831L
atp352
Rp353
sL594L
g8
((lp354
L1365L
aL983L
atp355
Rp356
sL595L
g8
((lp357
tp358
Rp359
sL596L
g8
((lp360
L864L
aL495L
aL492L
aL1053L
aL749L
atp361
Rp362
sL597L
g8
((lp363
L590L
atp364
Rp365
sL598L
g8
((lp366
tp367
Rp368
sL599L
g8
((lp369
tp370
Rp371
sL600L
g8
((lp372
tp373
Rp374
sL601L
g8
((lp375
L491L
aL1132L
atp376
Rp377
sL602L
g8
((lp378
L795L
atp379
Rp380
sL604L
g8
((lp381
tp382
Rp383
sL605L
g8
((lp384
L1416L
aL731L
aL483L
atp385
Rp386
sL606L
g8
((lp387
tp388
Rp389
sL607L
g8
((lp390
L1101L
atp391
Rp392
sL608L
g8
((lp393
L1320L
atp394
Rp395
sL609L
g8
((lp396
tp397
Rp398
sL610L
g8
((lp399
tp400
Rp401
sL611L
g8
((lp402
tp403
Rp404
sL612L
g8
((lp405
tp406
Rp407
sL613L
g8
((lp408
tp409
Rp410
sL614L
g8
((lp411
L1040L
aL1287L
atp412
Rp413
sL615L
g8
((lp414
L766L
atp415
Rp416
sL616L
g8
((lp417
tp418
Rp419
sL617L
g8
((lp420
tp421
Rp422
sL618L
g8
((lp423
L1069L
aL750L
aL1287L
atp424
Rp425
sL619L
g8
((lp426
tp427
Rp428
sL620L
g8
((lp429
tp430
Rp431
sL621L
g8
((lp432
tp433
Rp434
sL622L
g8
((lp435
L754L
atp436
Rp437
sL623L
g8
((lp438
L567L
atp439
Rp440
sL624L
g8
((lp441
L754L
aL1532L
aL895L
atp442
Rp443
sL625L
g8
((lp444
L858L
aL751L
aL757L
aL750L
aL895L
atp445
Rp446
sL626L
g8
((lp447
L1108L
aL506L
aL1532L
atp448
Rp449
sL627L
g8
((lp450
tp451
Rp452
sL628L
g8
((lp453
tp454
Rp455
sL629L
g8
((lp456
L724L
aL725L
aL727L
atp457
Rp458
sL630L
g8
((lp459
tp460
Rp461
sL631L
g8
((lp462
tp463
Rp464
sL632L
g8
((lp465
L576L
aL573L
aL1393L
aL1203L
aL1174L
aL1080L
aL1082L
aL1021L
atp466
Rp467
sL633L
g8
((lp468
tp469
Rp470
sL634L
g8
((lp471
tp472
Rp473
sL635L
g8
((lp474
tp475
Rp476
sL636L
g8
((lp477
L752L
aL535L
atp478
Rp479
sL637L
g8
((lp480
L842L
atp481
Rp482
sL638L
g8
((lp483
L511L
atp484
Rp485
sL639L
g8
((lp486
L1089L
aL491L
aL1349L
atp487
Rp488
sL640L
g8
((lp489
tp490
Rp491
sL641L
g8
((lp492
tp493
Rp494
sL642L
g8
((lp495
tp496
Rp497
sL643L
g8
((lp498
tp499
Rp500
sL644L
g8
((lp501
tp502
Rp503
sL645L
g8
((lp504
L920L
atp505
Rp506
sL646L
g8
((lp507
tp508
Rp509
sL647L
g8
((lp510
tp511
Rp512
sL648L
g8
((lp513
L1132L
aL717L
atp514
Rp515
sL649L
g8
((lp516
tp517
Rp518
sL650L
g8
((lp519
tp520
Rp521
sL651L
g8
((lp522
tp523
Rp524
sL652L
g8
((lp525
tp526
Rp527
sL653L
g8
((lp528
L1543L
atp529
Rp530
sL654L
g8
((lp531
tp532
Rp533
sL655L
g8
((lp534
L1010L
atp535
Rp536
sL656L
g8
((lp537
tp538
Rp539
sL657L
g8
((lp540
L1010L
aL1395L
aL1543L
atp541
Rp542
sL658L
g8
((lp543
tp544
Rp545
sL659L
g8
((lp546
tp547
Rp548
sL660L
g8
((lp549
tp550
Rp551
sL661L
g8
((lp552
tp553
Rp554
sL662L
g8
((lp555
tp556
Rp557
sL663L
g8
((lp558
L549L
aL552L
aL1320L
aL1323L
aL1069L
aL561L
atp559
Rp560
sL664L
g8
((lp561
L769L
aL549L
aL1069L
aL1200L
aL1010L
aL1271L
aL1080L
aL953L
atp562
Rp563
sL666L
g8
((lp564
tp565
Rp566
sL667L
g8
((lp567
tp568
Rp569
sL668L
g8
((lp570
tp571
Rp572
sL669L
g8
((lp573
L842L
atp574
Rp575
sL670L
g8
((lp576
tp577
Rp578
sL671L
g8
((lp579
tp580
Rp581
sL672L
g8
((lp582
L1115L
atp583
Rp584
sL673L
g8
((lp585
L752L
aL1069L
atp586
Rp587
sL674L
g8
((lp588
L793L
atp589
Rp590
sL675L
g8
((lp591
L1301L
aL557L
atp592
Rp593
sL676L
g8
((lp594
L864L
aL1046L
aL927L
atp595
Rp596
sL677L
g8
((lp597
tp598
Rp599
sL678L
g8
((lp600
L1057L
aL812L
aL813L
aL814L
aL815L
atp601
Rp602
sL679L
g8
((lp603
L932L
aL819L
aL1188L
aL813L
atp604
Rp605
sL680L
g8
((lp606
L528L
aL746L
aL1282L
aL1415L
atp607
Rp608
sL681L
g8
((lp609
tp610
Rp611
sL682L
g8
((lp612
L1301L
atp613
Rp614
sL683L
g8
((lp615
L770L
aL876L
atp616
Rp617
sL684L
g8
((lp618
tp619
Rp620
sL685L
g8
((lp621
L1000L
aL1577L
aL1264L
aL1197L
atp622
Rp623
sL686L
g8
((lp624
tp625
Rp626
sL687L
g8
((lp627
tp628
Rp629
sL688L
g8
((lp630
tp631
Rp632
sL689L
g8
((lp633
L1201L
aL1084L
aL1577L
aL1071L
atp634
Rp635
sL690L
g8
((lp636
L560L
aL821L
aL693L
aL943L
atp637
Rp638
sL691L
g8
((lp639
L572L
aL559L
atp640
Rp641
sL692L
g8
((lp642
L1084L
atp643
Rp644
sL693L
g8
((lp645
L559L
aL944L
aL1073L
aL690L
aL821L
aL943L
atp646
Rp647
sL694L
g8
((lp648
tp649
Rp650
sL695L
g8
((lp651
L1200L
atp652
Rp653
sL696L
g8
((lp654
tp655
Rp656
sL697L
g8
((lp657
L1577L
aL1348L
aL1205L
aL1069L
atp658
Rp659
sL698L
g8
((lp660
L576L
aL1393L
aL1085L
atp661
Rp662
sL699L
g8
((lp663
L1320L
aL1203L
atp664
Rp665
sL700L
g8
((lp666
tp667
Rp668
sL701L
g8
((lp669
tp670
Rp671
sL702L
g8
((lp672
tp673
Rp674
sL703L
g8
((lp675
tp676
Rp677
sL704L
g8
((lp678
L1365L
aL846L
aL1407L
atp679
Rp680
sL705L
g8
((lp681
tp682
Rp683
sL706L
g8
((lp684
tp685
Rp686
sL707L
g8
((lp687
L1170L
aL578L
atp688
Rp689
sL708L
g8
((lp690
tp691
Rp692
sL709L
g8
((lp693
tp694
Rp695
sL710L
g8
((lp696
tp697
Rp698
sL711L
g8
((lp699
L1010L
aL1580L
aL1418L
atp700
Rp701
sL712L
g8
((lp702
tp703
Rp704
sL713L
g8
((lp705
L1418L
aL507L
aL762L
atp706
Rp707
sL714L
g8
((lp708
tp709
Rp710
sL715L
g8
((lp711
tp712
Rp713
sL716L
g8
((lp714
tp715
Rp716
sL717L
g8
((lp717
L648L
aL1132L
aL773L
atp718
Rp719
sL718L
g8
((lp720
tp721
Rp722
sL719L
g8
((lp723
tp724
Rp725
sL720L
g8
((lp726
tp727
Rp728
sL721L
g8
((lp729
L854L
atp730
Rp731
sL722L
g8
((lp732
tp733
Rp734
sL723L
g8
((lp735
tp736
Rp737
sL724L
g8
((lp738
L629L
atp739
Rp740
sL725L
g8
((lp741
L629L
atp742
Rp743
sL726L
g8
((lp744
L1393L
aL1203L
aL1021L
aL1343L
atp745
Rp746
sL727L
g8
((lp747
L629L
atp748
Rp749
sL728L
g8
((lp750
tp751
Rp752
sL729L
g8
((lp753
tp754
Rp755
sL730L
g8
((lp756
tp757
Rp758
sL731L
g8
((lp759
L1416L
aL483L
aL605L
atp760
Rp761
sL732L
g8
((lp762
L1048L
aL857L
aL1301L
aL1089L
atp763
Rp764
sL733L
g8
((lp765
tp766
Rp767
sL734L
g8
((lp768
tp769
Rp770
sL735L
g8
((lp771
L1226L
aL1419L
atp772
Rp773
sL736L
g8
((lp774
tp775
Rp776
sL737L
g8
((lp777
L1414L
atp778
Rp779
sL738L
g8
((lp780
L1577L
atp781
Rp782
sL739L
g8
((lp783
L533L
atp784
Rp785
sL740L
g8
((lp786
L1282L
aL1415L
aL1106L
aL528L
aL978L
aL1530L
aL895L
atp787
Rp788
sL741L
g8
((lp789
tp790
Rp791
sL743L
g8
((lp792
tp793
Rp794
sL744L
g8
((lp795
L1039L
atp796
Rp797
sL745L
g8
((lp798
tp799
Rp800
sL746L
g8
((lp801
L680L
aL528L
aL1188L
aL1557L
aL911L
atp802
Rp803
sL747L
g8
((lp804
tp805
Rp806
sL748L
g8
((lp807
L492L
aL495L
atp808
Rp809
sL749L
g8
((lp810
L864L
aL596L
aL495L
atp811
Rp812
sL750L
g8
((lp813
L528L
aL618L
aL1069L
aL752L
aL625L
aL499L
aL857L
aL858L
aL895L
atp814
Rp815
sL751L
g8
((lp816
L625L
aL861L
atp817
Rp818
sL752L
g8
((lp819
L673L
aL1069L
aL750L
aL528L
aL498L
aL499L
aL636L
atp820
Rp821
sL753L
g8
((lp822
L1069L
atp823
Rp824
sL754L
g8
((lp825
L1034L
aL622L
aL624L
aL497L
aL1532L
aL861L
aL542L
atp826
Rp827
sL756L
g8
((lp828
tp829
Rp830
sL757L
g8
((lp831
L857L
aL625L
aL486L
aL1302L
aL895L
atp832
Rp833
sL758L
g8
((lp834
L895L
atp835
Rp836
sL759L
g8
((lp837
tp838
Rp839
sL760L
g8
((lp840
L504L
atp841
Rp842
sL761L
g8
((lp843
L1121L
aL505L
atp844
Rp845
sL762L
g8
((lp846
L713L
aL1010L
atp847
Rp848
sL763L
g8
((lp849
L1418L
atp850
Rp851
sL764L
g8
((lp852
L580L
atp853
Rp854
sL765L
g8
((lp855
L868L
atp856
Rp857
sL766L
g8
((lp858
L1029L
aL615L
atp859
Rp860
sL767L
g8
((lp861
tp862
Rp863
sL768L
g8
((lp864
L982L
atp865
Rp866
sL769L
g8
((lp867
L664L
aL1068L
atp868
Rp869
sL770L
g8
((lp870
L508L
aL683L
aL876L
aL982L
atp871
Rp872
sL771L
g8
((lp873
tp874
Rp875
sL772L
g8
((lp876
L512L
atp877
Rp878
sL773L
g8
((lp879
L717L
atp880
Rp881
sL774L
g8
((lp882
tp883
Rp884
sL775L
g8
((lp885
tp886
Rp887
sL777L
g8
((lp888
L890L
atp889
Rp890
sL779L
g8
((lp891
tp892
Rp893
sL780L
g8
((lp894
tp895
Rp896
sL781L
g8
((lp897
tp898
Rp899
sL782L
g8
((lp900
L891L
atp901
Rp902
sL784L
g8
((lp903
tp904
Rp905
sL785L
g8
((lp906
tp907
Rp908
sL786L
g8
((lp909
tp910
Rp911
sL787L
g8
((lp912
tp913
Rp914
sL788L
g8
((lp915
L1584L
aL1541L
aL1086L
atp916
Rp917
sL789L
g8
((lp918
tp919
Rp920
sL790L
g8
((lp921
tp922
Rp923
sL791L
g8
((lp924
tp925
Rp926
sL792L
g8
((lp927
tp928
Rp929
sL793L
g8
((lp930
L674L
atp931
Rp932
sL794L
g8
((lp933
L1181L
atp934
Rp935
sL795L
g8
((lp936
L602L
atp937
Rp938
sL796L
g8
((lp939
L1185L
aL1186L
aL1187L
aL1349L
aL1222L
aL1546L
aL1557L
atp940
Rp941
sL797L
g8
((lp942
L915L
aL1021L
aL1327L
atp943
Rp944
sL798L
g8
((lp945
L898L
atp946
Rp947
sL799L
g8
((lp948
tp949
Rp950
sL800L
g8
((lp951
L1264L
atp952
Rp953
sL801L
g8
((lp954
L1168L
aL1392L
aL1010L
atp955
Rp956
sL802L
g8
((lp957
L1008L
aL533L
atp958
Rp959
sL803L
g8
((lp960
L1238L
aL1197L
aL1366L
aL911L
atp961
Rp962
sL804L
g8
((lp963
tp964
Rp965
sL805L
g8
((lp966
L546L
aL907L
atp967
Rp968
sL806L
g8
((lp969
tp970
Rp971
sL807L
g8
((lp972
tp973
Rp974
sL808L
g8
((lp975
L1537L
aL1287L
aL1384L
aL1321L
aL1040L
aL1577L
aL921L
atp976
Rp977
sL809L
g8
((lp978
tp979
Rp980
sL810L
g8
((lp981
tp982
Rp983
sL811L
g8
((lp984
tp985
Rp986
sL812L
g8
((lp987
L1048L
aL1353L
aL678L
atp988
Rp989
sL813L
g8
((lp990
L932L
aL933L
aL678L
aL679L
aL1418L
aL555L
aL556L
aL1048L
atp991
Rp992
sL814L
g8
((lp993
L1058L
aL678L
atp994
Rp995
sL815L
g8
((lp996
L678L
aL926L
atp997
Rp998
sL816L
g8
((lp999
L1248L
aL1547L
aL932L
aL1054L
atp1000
Rp1001
sL817L
g8
((lp1002
L1353L
aL1057L
atp1003
Rp1004
sL818L
g8
((lp1005
L1001L
aL499L
atp1006
Rp1007
sL819L
g8
((lp1008
L679L
aL1239L
atp1009
Rp1010
sL820L
g8
((lp1011
tp1012
Rp1013
sL821L
g8
((lp1014
L690L
aL693L
aL559L
atp1015
Rp1016
sL822L
g8
((lp1017
L1200L
atp1018
Rp1019
sL823L
g8
((lp1020
L1010L
aL903L
atp1021
Rp1022
sL824L
g8
((lp1023
L1200L
aL946L
atp1024
Rp1025
sL825L
g8
((lp1026
L947L
atp1027
Rp1028
sL826L
g8
((lp1029
tp1030
Rp1031
sL828L
g8
((lp1032
tp1033
Rp1034
sL829L
g8
((lp1035
tp1036
Rp1037
sL830L
g8
((lp1038
tp1039
Rp1040
sL831L
g8
((lp1041
L1516L
aL1124L
aL593L
atp1042
Rp1043
sL832L
g8
((lp1044
tp1045
Rp1046
sL833L
g8
((lp1047
tp1048
Rp1049
sL834L
g8
((lp1050
tp1051
Rp1052
sL836L
g8
((lp1053
tp1054
Rp1055
sL837L
g8
((lp1056
tp1057
Rp1058
sL838L
g8
((lp1059
tp1060
Rp1061
sL839L
g8
((lp1062
tp1063
Rp1064
sL840L
g8
((lp1065
tp1066
Rp1067
sL841L
g8
((lp1068
tp1069
Rp1070
sL842L
g8
((lp1071
L669L
aL1037L
aL637L
atp1072
Rp1073
sL843L
g8
((lp1074
L489L
aL973L
atp1075
Rp1076
sL845L
g8
((lp1077
tp1078
Rp1079
sL846L
g8
((lp1080
L704L
atp1081
Rp1082
sL847L
g8
((lp1083
L489L
atp1084
Rp1085
sL848L
g8
((lp1086
L592L
atp1087
Rp1088
sL849L
g8
((lp1089
tp1090
Rp1091
sL850L
g8
((lp1092
tp1093
Rp1094
sL851L
g8
((lp1095
tp1096
Rp1097
sL852L
g8
((lp1098
tp1099
Rp1100
sL853L
g8
((lp1101
tp1102
Rp1103
sL854L
g8
((lp1104
L721L
atp1105
Rp1106
sL855L
g8
((lp1107
tp1108
Rp1109
sL856L
g8
((lp1110
L1532L
atp1111
Rp1112
sL857L
g8
((lp1113
L859L
aL732L
aL750L
aL486L
aL757L
atp1114
Rp1115
sL858L
g8
((lp1116
L625L
aL750L
atp1117
Rp1118
sL859L
g8
((lp1119
L857L
aL542L
atp1120
Rp1121
sL860L
g8
((lp1122
tp1123
Rp1124
sL861L
g8
((lp1125
L754L
aL751L
atp1126
Rp1127
sL862L
g8
((lp1128
tp1129
Rp1130
sL863L
g8
((lp1131
L493L
atp1132
Rp1133
sL864L
g8
((lp1134
L676L
aL492L
aL749L
aL495L
aL496L
aL596L
aL1046L
aL1055L
aL1053L
aL1503L
atp1135
Rp1136
sL865L
g8
((lp1137
tp1138
Rp1139
sL866L
g8
((lp1140
tp1141
Rp1142
sL867L
g8
((lp1143
tp1144
Rp1145
sL868L
g8
((lp1146
L765L
atp1147
Rp1148
sL869L
g8
((lp1149
tp1150
Rp1151
sL870L
g8
((lp1152
tp1153
Rp1154
sL871L
g8
((lp1155
L1600L
aL1601L
aL1599L
atp1156
Rp1157
sL872L
g8
((lp1158
L1231L
atp1159
Rp1160
sL873L
g8
((lp1161
L1543L
aL1395L
aL1271L
aL1013L
aL1079L
atp1162
Rp1163
sL874L
g8
((lp1164
L1366L
atp1165
Rp1166
sL875L
g8
((lp1167
tp1168
Rp1169
sL876L
g8
((lp1170
L770L
aL683L
aL1196L
aL982L
aL507L
aL508L
atp1171
Rp1172
sL877L
g8
((lp1173
tp1174
Rp1175
sL878L
g8
((lp1176
tp1177
Rp1178
sL879L
g8
((lp1179
L592L
aL1516L
atp1180
Rp1181
sL880L
g8
((lp1182
tp1183
Rp1184
sL881L
g8
((lp1185
L971L
atp1186
Rp1187
sL882L
g8
((lp1188
L1553L
aL1134L
atp1189
Rp1190
sL883L
g8
((lp1191
tp1192
Rp1193
sL884L
g8
((lp1194
tp1195
Rp1196
sL885L
g8
((lp1197
tp1198
Rp1199
sL886L
g8
((lp1200
tp1201
Rp1202
sL887L
g8
((lp1203
tp1204
Rp1205
sL888L
g8
((lp1206
tp1207
Rp1208
sL889L
g8
((lp1209
L1024L
atp1210
Rp1211
sL890L
g8
((lp1212
L777L
atp1213
Rp1214
sL891L
g8
((lp1215
L1317L
aL782L
atp1216
Rp1217
sL892L
g8
((lp1218
L1082L
atp1219
Rp1220
sL894L
g8
((lp1221
tp1222
Rp1223
sL895L
g8
((lp1224
L740L
aL758L
aL1255L
aL1034L
aL750L
aL624L
aL625L
aL1108L
aL757L
aL1046L
aL1532L
atp1225
Rp1226
sL896L
g8
((lp1227
tp1228
Rp1229
sL897L
g8
((lp1230
L1301L
atp1231
Rp1232
sL898L
g8
((lp1233
L798L
atp1234
Rp1235
sL899L
g8
((lp1236
L1162L
aL1046L
atp1237
Rp1238
sL900L
g8
((lp1239
tp1240
Rp1241
sL901L
g8
((lp1242
L1222L
atp1243
Rp1244
sL902L
g8
((lp1245
L1007L
aL1542L
aL1543L
atp1246
Rp1247
sL903L
g8
((lp1248
L823L
aL1543L
aL1204L
aL1271L
atp1249
Rp1250
sL904L
g8
((lp1251
tp1252
Rp1253
sL905L
g8
((lp1254
tp1255
Rp1256
sL906L
g8
((lp1257
L1543L
aL1321L
aL1327L
aL1393L
aL533L
aL1080L
aL1082L
atp1258
Rp1259
sL907L
g8
((lp1260
L546L
aL805L
aL1222L
aL535L
atp1261
Rp1262
sL908L
g8
((lp1263
L1577L
aL1203L
atp1264
Rp1265
sL909L
g8
((lp1266
tp1267
Rp1268
sL910L
g8
((lp1269
L1203L
aL1284L
aL1197L
aL1238L
atp1270
Rp1271
sL911L
g8
((lp1272
L746L
aL803L
aL548L
aL933L
aL911L
atp1273
Rp1274
sL912L
g8
((lp1275
L1177L
atp1276
Rp1277
sL913L
g8
((lp1278
tp1279
Rp1280
sL914L
g8
((lp1281
tp1282
Rp1283
sL915L
g8
((lp1284
L1170L
aL797L
atp1285
Rp1286
sL916L
g8
((lp1287
tp1288
Rp1289
sL917L
g8
((lp1290
L1006L
atp1291
Rp1292
sL918L
g8
((lp1293
tp1294
Rp1295
sL919L
g8
((lp1296
tp1297
Rp1298
sL920L
g8
((lp1299
L645L
atp1300
Rp1301
sL921L
g8
((lp1302
L808L
atp1303
Rp1304
sL922L
g8
((lp1305
tp1306
Rp1307
sL923L
g8
((lp1308
tp1309
Rp1310
sL924L
g8
((lp1311
L1435L
aL1119L
atp1312
Rp1313
sL925L
g8
((lp1314
L1050L
aL554L
aL1189L
atp1315
Rp1316
sL926L
g8
((lp1317
L1057L
aL815L
atp1318
Rp1319
sL927L
g8
((lp1320
L1057L
aL1418L
aL676L
atp1321
Rp1322
sL928L
g8
((lp1323
tp1324
Rp1325
sL929L
g8
((lp1326
L1049L
atp1327
Rp1328
sL930L
g8
((lp1329
L1001L
aL1046L
atp1330
Rp1331
sL931L
g8
((lp1332
L1530L
aL1107L
atp1333
Rp1334
sL932L
g8
((lp1335
L816L
aL813L
aL556L
aL933L
aL679L
atp1336
Rp1337
sL933L
g8
((lp1338
L1313L
aL1188L
aL1353L
aL1546L
aL1547L
aL813L
aL911L
aL1557L
aL932L
atp1339
Rp1340
sL934L
g8
((lp1341
tp1342
Rp1343
sL935L
g8
((lp1344
L1184L
aL1557L
atp1345
Rp1346
sL936L
g8
((lp1347
tp1348
Rp1349
sL937L
g8
((lp1350
L1353L
aL1251L
aL1188L
aL1191L
atp1351
Rp1352
sL938L
g8
((lp1353
L556L
aL1239L
atp1354
Rp1355
sL939L
g8
((lp1356
tp1357
Rp1358
sL940L
g8
((lp1359
tp1360
Rp1361
sL941L
g8
((lp1362
L1084L
aL1068L
atp1363
Rp1364
sL942L
g8
((lp1365
L1201L
aL1339L
atp1366
Rp1367
sL943L
g8
((lp1368
L690L
aL1341L
aL693L
atp1369
Rp1370
sL944L
g8
((lp1371
L1067L
aL1341L
aL693L
atp1372
Rp1373
sL945L
g8
((lp1374
tp1375
Rp1376
sL946L
g8
((lp1377
L1200L
aL824L
aL1085L
atp1378
Rp1379
sL947L
g8
((lp1380
L825L
atp1381
Rp1382
sL948L
g8
((lp1383
L1084L
aL1205L
atp1384
Rp1385
sL949L
g8
((lp1386
tp1387
Rp1388
sL950L
g8
((lp1389
L1080L
aL1203L
aL1205L
atp1390
Rp1391
sL951L
g8
((lp1392
tp1393
Rp1394
sL952L
g8
((lp1395
L1264L
aL1577L
aL1250L
aL1395L
atp1396
Rp1397
sL953L
g8
((lp1398
L664L
aL1577L
aL549L
atp1399
Rp1400
sL954L
g8
((lp1401
tp1402
Rp1403
sL955L
g8
((lp1404
tp1405
Rp1406
sL956L
g8
((lp1407
tp1408
Rp1409
sL957L
g8
((lp1410
tp1411
Rp1412
sL958L
g8
((lp1413
tp1414
Rp1415
sL960L
g8
((lp1416
tp1417
Rp1418
sL961L
g8
((lp1419
tp1420
Rp1421
sL962L
g8
((lp1422
tp1423
Rp1424
sL963L
g8
((lp1425
tp1426
Rp1427
sL964L
g8
((lp1428
tp1429
Rp1430
sL965L
g8
((lp1431
tp1432
Rp1433
sL966L
g8
((lp1434
tp1435
Rp1436
sL967L
g8
((lp1437
tp1438
Rp1439
sL968L
g8
((lp1440
tp1441
Rp1442
sL969L
g8
((lp1443
L1186L
aL1187L
aL1428L
aL1222L
atp1444
Rp1445
sL970L
g8
((lp1446
L1132L
aL1222L
atp1447
Rp1448
sL971L
g8
((lp1449
L881L
atp1450
Rp1451
sL972L
g8
((lp1452
tp1453
Rp1454
sL973L
g8
((lp1455
L843L
atp1456
Rp1457
sL974L
g8
((lp1458
L1550L
aL1255L
atp1459
Rp1460
sL975L
g8
((lp1461
tp1462
Rp1463
sL976L
g8
((lp1464
tp1465
Rp1466
sL977L
g8
((lp1467
tp1468
Rp1469
sL978L
g8
((lp1470
L528L
aL740L
aL1238L
atp1471
Rp1472
sL979L
g8
((lp1473
tp1474
Rp1475
sL980L
g8
((lp1476
L1414L
atp1477
Rp1478
sL981L
g8
((lp1479
tp1480
Rp1481
sL982L
g8
((lp1482
L768L
aL876L
aL770L
aL1196L
atp1483
Rp1484
sL983L
g8
((lp1485
L594L
atp1486
Rp1487
sL984L
g8
((lp1488
tp1489
Rp1490
sL985L
g8
((lp1491
tp1492
Rp1493
sL986L
g8
((lp1494
L1110L
aL1422L
atp1495
Rp1496
sL987L
g8
((lp1497
L1141L
atp1498
Rp1499
sL988L
g8
((lp1500
tp1501
Rp1502
sL989L
g8
((lp1503
tp1504
Rp1505
sL990L
g8
((lp1506
tp1507
Rp1508
sL991L
g8
((lp1509
L1134L
atp1510
Rp1511
sL992L
g8
((lp1512
tp1513
Rp1514
sL993L
g8
((lp1515
L1317L
atp1516
Rp1517
sL994L
g8
((lp1518
L1368L
atp1519
Rp1520
sL995L
g8
((lp1521
L1368L
atp1522
Rp1523
sL996L
g8
((lp1524
tp1525
Rp1526
sL997L
g8
((lp1527
tp1528
Rp1529
sL998L
g8
((lp1530
tp1531
Rp1532
sL999L
g8
((lp1533
L1346L
atp1534
Rp1535
sL1000L
g8
((lp1536
L1169L
aL685L
atp1537
Rp1538
sL1001L
g8
((lp1539
L818L
aL930L
atp1540
Rp1541
sL1002L
g8
((lp1542
L1162L
aL555L
aL556L
atp1543
Rp1544
sL1003L
g8
((lp1545
tp1546
Rp1547
sL1004L
g8
((lp1548
tp1549
Rp1550
sL1005L
g8
((lp1551
tp1552
Rp1553
sL1006L
g8
((lp1554
L1106L
aL917L
atp1555
Rp1556
sL1007L
g8
((lp1557
L1010L
aL902L
aL1542L
atp1558
Rp1559
sL1008L
g8
((lp1560
L802L
aL1543L
aL1250L
aL1327L
aL533L
aL1271L
atp1561
Rp1562
sL1009L
g8
((lp1563
L551L
atp1564
Rp1565
sL1010L
g8
((lp1566
L1542L
aL655L
aL1168L
aL657L
aL531L
aL532L
aL533L
aL664L
aL1007L
aL801L
aL551L
aL1321L
aL1580L
aL563L
aL823L
aL1341L
aL711L
aL1250L
aL529L
aL1391L
aL502L
aL762L
atp1567
Rp1568
sL1012L
g8
((lp1569
L1012L
atp1570
Rp1571
sL1013L
g8
((lp1572
L1592L
aL873L
aL1271L
atp1573
Rp1574
sL1014L
g8
((lp1575
tp1576
Rp1577
sL1015L
g8
((lp1578
tp1579
Rp1580
sL1016L
g8
((lp1581
tp1582
Rp1583
sL1017L
g8
((lp1584
tp1585
Rp1586
sL1018L
g8
((lp1587
tp1588
Rp1589
sL1019L
g8
((lp1590
tp1591
Rp1592
sL1020L
g8
((lp1593
tp1594
Rp1595
sL1021L
g8
((lp1596
L632L
aL576L
aL797L
aL726L
atp1597
Rp1598
sL1022L
g8
((lp1599
tp1600
Rp1601
sL1023L
g8
((lp1602
tp1603
Rp1604
sL1024L
g8
((lp1605
L1553L
aL889L
atp1606
Rp1607
sL1025L
g8
((lp1608
L1515L
atp1609
Rp1610
sL1026L
g8
((lp1611
L584L
atp1612
Rp1613
sL1027L
g8
((lp1614
tp1615
Rp1616
sL1028L
g8
((lp1617
tp1618
Rp1619
sL1029L
g8
((lp1620
L766L
aL1367L
atp1621
Rp1622
sL1030L
g8
((lp1623
L1134L
aL1367L
atp1624
Rp1625
sL1031L
g8
((lp1626
tp1627
Rp1628
sL1032L
g8
((lp1629
tp1630
Rp1631
sL1033L
g8
((lp1632
tp1633
Rp1634
sL1034L
g8
((lp1635
L754L
aL895L
atp1636
Rp1637
sL1035L
g8
((lp1638
tp1639
Rp1640
sL1036L
g8
((lp1641
L1182L
atp1642
Rp1643
sL1037L
g8
((lp1644
L842L
atp1645
Rp1646
sL1038L
g8
((lp1647
tp1648
Rp1649
sL1039L
g8
((lp1650
L744L
aL1222L
aL527L
atp1651
Rp1652
sL1040L
g8
((lp1653
L808L
aL614L
aL1287L
atp1654
Rp1655
sL1041L
g8
((lp1656
L1366L
atp1657
Rp1658
sL1042L
g8
((lp1659
tp1660
Rp1661
sL1043L
g8
((lp1662
L1366L
atp1663
Rp1664
sL1044L
g8
((lp1665
tp1666
Rp1667
sL1045L
g8
((lp1668
tp1669
Rp1670
sL1046L
g8
((lp1671
L864L
aL930L
aL899L
aL676L
aL486L
aL1547L
aL557L
aL496L
aL1048L
aL895L
atp1672
Rp1673
sL1048L
g8
((lp1674
L1547L
aL812L
aL813L
aL1046L
aL732L
aL1183L
atp1675
Rp1676
sL1049L
g8
((lp1677
L929L
atp1678
Rp1679
sL1050L
g8
((lp1680
L1057L
aL1189L
aL925L
atp1681
Rp1682
sL1052L
g8
((lp1683
L1248L
aL1313L
aL1060L
aL1349L
aL1546L
aL1547L
aL1557L
aL1052L
atp1684
Rp1685
sL1053L
g8
((lp1686
L864L
aL1196L
aL495L
aL596L
aL1109L
aL1239L
aL1557L
atp1687
Rp1688
sL1054L
g8
((lp1689
L1353L
aL1546L
aL1547L
aL1548L
aL1550L
aL816L
aL1557L
aL554L
atp1690
Rp1691
sL1055L
g8
((lp1692
L864L
atp1693
Rp1694
sL1056L
g8
((lp1695
L552L
aL526L
aL1366L
atp1696
Rp1697
sL1057L
g8
((lp1698
L817L
aL1050L
aL678L
aL926L
aL927L
atp1699
Rp1700
sL1058L
g8
((lp1701
L814L
atp1702
Rp1703
sL1059L
g8
((lp1704
L1416L
atp1705
Rp1706
sL1060L
g8
((lp1707
L1248L
aL1251L
aL1190L
aL1191L
aL1193L
aL1557L
aL1353L
aL1052L
atp1708
Rp1709
sL1061L
g8
((lp1710
L492L
atp1711
Rp1712
sL1062L
g8
((lp1713
L1358L
aL511L
atp1714
Rp1715
sL1063L
g8
((lp1716
tp1717
Rp1718
sL1064L
g8
((lp1719
L1589L
aL1358L
atp1720
Rp1721
sL1065L
g8
((lp1722
tp1723
Rp1724
sL1066L
g8
((lp1725
tp1726
Rp1727
sL1067L
g8
((lp1728
L944L
aL1577L
aL1200L
aL1264L
aL1267L
aL1342L
atp1729
Rp1730
sL1068L
g8
((lp1731
L1201L
aL941L
aL1390L
aL769L
atp1732
Rp1733
sL1069L
g8
((lp1734
L673L
aL618L
aL750L
aL528L
aL753L
aL499L
aL1366L
aL663L
aL664L
aL697L
aL752L
atp1735
Rp1736
sL1070L
g8
((lp1737
L1072L
aL1201L
atp1738
Rp1739
sL1071L
g8
((lp1740
L1264L
aL1577L
aL549L
aL1342L
aL689L
atp1741
Rp1742
sL1072L
g8
((lp1743
L1070L
atp1744
Rp1745
sL1073L
g8
((lp1746
L1264L
aL1577L
aL564L
aL693L
atp1747
Rp1748
sL1074L
g8
((lp1749
L1348L
atp1750
Rp1751
sL1075L
g8
((lp1752
tp1753
Rp1754
sL1076L
g8
((lp1755
tp1756
Rp1757
sL1077L
g8
((lp1758
tp1759
Rp1760
sL1078L
g8
((lp1761
L1264L
aL1577L
aL549L
aL1342L
aL533L
atp1762
Rp1763
sL1079L
g8
((lp1764
L873L
aL1271L
atp1765
Rp1766
sL1080L
g8
((lp1767
L906L
aL632L
aL664L
aL950L
aL1080L
aL574L
atp1768
Rp1769
sL1081L
g8
((lp1770
tp1771
Rp1772
sL1082L
g8
((lp1773
L632L
aL906L
aL892L
atp1774
Rp1775
sL1083L
g8
((lp1776
tp1777
Rp1778
sL1084L
g8
((lp1779
L692L
aL575L
aL948L
aL941L
aL689L
atp1780
Rp1781
sL1085L
g8
((lp1782
L1200L
aL698L
aL1205L
aL1286L
aL946L
atp1783
Rp1784
sL1086L
g8
((lp1785
L788L
atp1786
Rp1787
sL1087L
g8
((lp1788
tp1789
Rp1790
sL1088L
g8
((lp1791
L1301L
atp1792
Rp1793
sL1089L
g8
((lp1794
L732L
aL639L
atp1795
Rp1796
sL1090L
g8
((lp1797
tp1798
Rp1799
sL1091L
g8
((lp1800
tp1801
Rp1802
sL1092L
g8
((lp1803
tp1804
Rp1805
sL1093L
g8
((lp1806
tp1807
Rp1808
sL1094L
g8
((lp1809
tp1810
Rp1811
sL1095L
g8
((lp1812
L1326L
atp1813
Rp1814
sL1096L
g8
((lp1815
L1282L
aL1399L
aL1325L
aL1238L
aL1415L
atp1816
Rp1817
sL1097L
g8
((lp1818
tp1819
Rp1820
sL1098L
g8
((lp1821
tp1822
Rp1823
sL1099L
g8
((lp1824
tp1825
Rp1826
sL1100L
g8
((lp1827
tp1828
Rp1829
sL1101L
g8
((lp1830
L607L
atp1831
Rp1832
sL1102L
g8
((lp1833
tp1834
Rp1835
sL1103L
g8
((lp1836
tp1837
Rp1838
sL1104L
g8
((lp1839
tp1840
Rp1841
sL1105L
g8
((lp1842
tp1843
Rp1844
sL1106L
g8
((lp1845
L740L
aL1006L
atp1846
Rp1847
sL1107L
g8
((lp1848
L1530L
aL931L
atp1849
Rp1850
sL1108L
g8
((lp1851
L497L
aL626L
aL895L
atp1852
Rp1853
sL1109L
g8
((lp1854
L1053L
atp1855
Rp1856
sL1110L
g8
((lp1857
L986L
aL1422L
atp1858
Rp1859
sL1111L
g8
((lp1860
tp1861
Rp1862
sL1112L
g8
((lp1863
tp1864
Rp1865
sL1113L
g8
((lp1866
tp1867
Rp1868
sL1114L
g8
((lp1869
tp1870
Rp1871
sL1115L
g8
((lp1872
L672L
aL1250L
atp1873
Rp1874
sL1116L
g8
((lp1875
L1282L
atp1876
Rp1877
sL1117L
g8
((lp1878
tp1879
Rp1880
sL1118L
g8
((lp1881
tp1882
Rp1883
sL1119L
g8
((lp1884
L1435L
aL924L
atp1885
Rp1886
sL1120L
g8
((lp1887
tp1888
Rp1889
sL1121L
g8
((lp1890
L505L
aL761L
atp1891
Rp1892
sL1122L
g8
((lp1893
tp1894
Rp1895
sL1123L
g8
((lp1896
L593L
aL1124L
atp1897
Rp1898
sL1124L
g8
((lp1899
L1403L
aL1123L
aL831L
atp1900
Rp1901
sL1125L
g8
((lp1902
L502L
atp1903
Rp1904
sL1126L
g8
((lp1905
tp1906
Rp1907
sL1127L
g8
((lp1908
tp1909
Rp1910
sL1128L
g8
((lp1911
tp1912
Rp1913
sL1129L
g8
((lp1914
tp1915
Rp1916
sL1130L
g8
((lp1917
tp1918
Rp1919
sL1131L
g8
((lp1920
tp1921
Rp1922
sL1132L
g8
((lp1923
L648L
aL601L
aL970L
aL717L
atp1924
Rp1925
sL1133L
g8
((lp1926
L1321L
aL1327L
aL1543L
atp1927
Rp1928
sL1134L
g8
((lp1929
L1553L
aL882L
aL1030L
aL991L
atp1930
Rp1931
sL1135L
g8
((lp1932
tp1933
Rp1934
sL1136L
g8
((lp1935
tp1936
Rp1937
sL1137L
g8
((lp1938
L1137L
atp1939
Rp1940
sL1138L
g8
((lp1941
L1269L
atp1942
Rp1943
sL1139L
g8
((lp1944
L1252L
atp1945
Rp1946
sL1140L
g8
((lp1947
tp1948
Rp1949
sL1141L
g8
((lp1950
L987L
atp1951
Rp1952
sL1142L
g8
((lp1953
tp1954
Rp1955
sL1143L
g8
((lp1956
tp1957
Rp1958
sL1144L
g8
((lp1959
tp1960
Rp1961
sL1145L
g8
((lp1962
tp1963
Rp1964
sL1146L
g8
((lp1965
tp1966
Rp1967
sL1147L
g8
((lp1968
tp1969
Rp1970
sL1148L
g8
((lp1971
tp1972
Rp1973
sL1149L
g8
((lp1974
tp1975
Rp1976
sL1150L
g8
((lp1977
tp1978
Rp1979
sL1151L
g8
((lp1980
L1427L
atp1981
Rp1982
sL1152L
g8
((lp1983
tp1984
Rp1985
sL1153L
g8
((lp1986
tp1987
Rp1988
sL1155L
g8
((lp1989
tp1990
Rp1991
sL1156L
g8
((lp1992
tp1993
Rp1994
sL1157L
g8
((lp1995
tp1996
Rp1997
sL1158L
g8
((lp1998
tp1999
Rp2000
sL1159L
g8
((lp2001
L1367L
atp2002
Rp2003
sL1160L
g8
((lp2004
tp2005
Rp2006
sL1161L
g8
((lp2007
tp2008
Rp2009
sL1162L
g8
((lp2010
L555L
aL1002L
aL899L
aL1239L
atp2011
Rp2012
sL1163L
g8
((lp2013
tp2014
Rp2015
sL1164L
g8
((lp2016
tp2017
Rp2018
sL1165L
g8
((lp2019
tp2020
Rp2021
sL1166L
g8
((lp2022
L1271L
atp2023
Rp2024
sL1167L
g8
((lp2025
tp2026
Rp2027
sL1168L
g8
((lp2028
L801L
aL1010L
atp2029
Rp2030
sL1169L
g8
((lp2031
L1000L
atp2032
Rp2033
sL1170L
g8
((lp2034
L530L
aL915L
aL707L
atp2035
Rp2036
sL1171L
g8
((lp2037
tp2038
Rp2039
sL1172L
g8
((lp2040
tp2041
Rp2042
sL1173L
g8
((lp2043
tp2044
Rp2045
sL1174L
g8
((lp2046
L632L
atp2047
Rp2048
sL1175L
g8
((lp2049
tp2050
Rp2051
sL1176L
g8
((lp2052
tp2053
Rp2054
sL1177L
g8
((lp2055
L1232L
aL912L
atp2056
Rp2057
sL1178L
g8
((lp2058
L1385L
aL1271L
aL1319L
atp2059
Rp2060
sL1179L
g8
((lp2061
L1288L
aL1406L
atp2062
Rp2063
sL1180L
g8
((lp2064
tp2065
Rp2066
sL1181L
g8
((lp2067
L794L
atp2068
Rp2069
sL1182L
g8
((lp2070
L1036L
atp2071
Rp2072
sL1183L
g8
((lp2073
L1048L
atp2074
Rp2075
sL1184L
g8
((lp2076
L1248L
aL1309L
aL935L
atp2077
Rp2078
sL1185L
g8
((lp2079
L796L
aL1239L
atp2080
Rp2081
sL1186L
g8
((lp2082
L969L
aL1187L
aL796L
aL1222L
atp2083
Rp2084
sL1187L
g8
((lp2085
L969L
aL1186L
aL1428L
aL796L
atp2086
Rp2087
sL1188L
g8
((lp2088
L1313L
aL1251L
aL933L
aL679L
aL937L
aL1546L
aL746L
atp2089
Rp2090
sL1189L
g8
((lp2091
L1248L
aL925L
aL1050L
aL1349L
aL1239L
atp2092
Rp2093
sL1190L
g8
((lp2094
L1328L
aL1060L
atp2095
Rp2096
sL1191L
g8
((lp2097
L937L
aL1546L
aL1547L
aL1060L
atp2098
Rp2099
sL1192L
g8
((lp2100
L1557L
atp2101
Rp2102
sL1193L
g8
((lp2103
L1251L
aL1060L
atp2104
Rp2105
sL1194L
g8
((lp2106
L1239L
atp2107
Rp2108
sL1195L
g8
((lp2109
tp2110
Rp2111
sL1196L
g8
((lp2112
L876L
aL1053L
aL982L
atp2113
Rp2114
sL1197L
g8
((lp2115
L803L
aL1577L
aL1578L
aL685L
aL910L
aL1264L
atp2116
Rp2117
sL1198L
g8
((lp2118
L1250L
aL1395L
aL1339L
aL1341L
aL1342L
aL1343L
atp2119
Rp2120
sL1199L
g8
((lp2121
L1220L
aL1577L
aL1264L
aL1493L
aL1307L
aL1342L
atp2122
Rp2123
sL1200L
g8
((lp2124
L1578L
aL1067L
aL664L
aL946L
aL1267L
aL564L
aL822L
aL695L
aL824L
aL1085L
atp2125
Rp2126
sL1201L
g8
((lp2127
L549L
aL1068L
aL1070L
aL1264L
aL689L
aL942L
aL1342L
atp2128
Rp2129
sL1202L
g8
((lp2130
L1264L
aL1577L
aL1343L
aL1295L
atp2131
Rp2132
sL1203L
g8
((lp2133
L1284L
aL950L
aL1577L
aL908L
aL910L
aL726L
aL1366L
aL632L
aL570L
aL699L
atp2134
Rp2135
sL1204L
g8
((lp2136
L1337L
aL903L
aL1271L
atp2137
Rp2138
sL1205L
g8
((lp2139
L1347L
aL1284L
aL1577L
aL1264L
aL948L
aL950L
aL1559L
aL697L
aL1085L
atp2140
Rp2141
sL1206L
g8
((lp2142
L519L
aL1271L
atp2143
Rp2144
sL1207L
g8
((lp2145
tp2146
Rp2147
sL1208L
g8
((lp2148
tp2149
Rp2150
sL1209L
g8
((lp2151
tp2152
Rp2153
sL1210L
g8
((lp2154
tp2155
Rp2156
sL1211L
g8
((lp2157
tp2158
Rp2159
sL1212L
g8
((lp2160
tp2161
Rp2162
sL1213L
g8
((lp2163
tp2164
Rp2165
sL1214L
g8
((lp2166
tp2167
Rp2168
sL1215L
g8
((lp2169
tp2170
Rp2171
sL1216L
g8
((lp2172
tp2173
Rp2174
sL1217L
g8
((lp2175
tp2176
Rp2177
sL1218L
g8
((lp2178
tp2179
Rp2180
sL1219L
g8
((lp2181
tp2182
Rp2183
sL1220L
g8
((lp2184
L1348L
aL1493L
aL1199L
atp2185
Rp2186
sL1221L
g8
((lp2187
tp2188
Rp2189
sL1222L
g8
((lp2190
L1186L
aL901L
aL969L
aL970L
aL907L
aL1039L
aL796L
atp2191
Rp2192
sL1223L
g8
((lp2193
L1515L
atp2194
Rp2195
sL1224L
g8
((lp2196
tp2197
Rp2198
sL1225L
g8
((lp2199
tp2200
Rp2201
sL1226L
g8
((lp2202
L1414L
aL735L
atp2203
Rp2204
sL1228L
g8
((lp2205
tp2206
Rp2207
sL1229L
g8
((lp2208
tp2209
Rp2210
sL1230L
g8
((lp2211
tp2212
Rp2213
sL1231L
g8
((lp2214
L872L
atp2215
Rp2216
sL1232L
g8
((lp2217
L1177L
atp2218
Rp2219
sL1233L
g8
((lp2220
L1398L
atp2221
Rp2222
sL1234L
g8
((lp2223
tp2224
Rp2225
sL1236L
g8
((lp2226
tp2227
Rp2228
sL1237L
g8
((lp2229
tp2230
Rp2231
sL1238L
g8
((lp2232
L1096L
aL561L
aL978L
aL803L
aL910L
atp2233
Rp2234
sL1239L
g8
((lp2235
L1185L
aL1189L
aL938L
aL1053L
aL819L
aL1194L
aL1239L
aL1162L
atp2236
Rp2237
sL1240L
g8
((lp2238
tp2239
Rp2240
sL1241L
g8
((lp2241
L1399L
atp2242
Rp2243
sL1242L
g8
((lp2244
tp2245
Rp2246
sL1243L
g8
((lp2247
L1553L
atp2248
Rp2249
sL1244L
g8
((lp2250
tp2251
Rp2252
sL1245L
g8
((lp2253
tp2254
Rp2255
sL1246L
g8
((lp2256
tp2257
Rp2258
sL1247L
g8
((lp2259
tp2260
Rp2261
sL1248L
g8
((lp2262
L1184L
aL1060L
aL1189L
aL1352L
aL816L
aL1052L
atp2263
Rp2264
sL1249L
g8
((lp2265
tp2266
Rp2267
sL1250L
g8
((lp2268
L551L
aL1198L
aL1008L
aL1010L
aL952L
aL1115L
aL541L
atp2269
Rp2270
sL1251L
g8
((lp2271
L1193L
aL1060L
aL1188L
aL1349L
aL937L
atp2272
Rp2273
sL1252L
g8
((lp2274
L1368L
aL1139L
atp2275
Rp2276
sL1253L
g8
((lp2277
L1540L
atp2278
Rp2279
sL1254L
g8
((lp2280
tp2281
Rp2282
sL1255L
g8
((lp2283
L974L
aL895L
atp2284
Rp2285
sL1256L
g8
((lp2286
tp2287
Rp2288
sL1257L
g8
((lp2289
L1410L
atp2290
Rp2291
sL1258L
g8
((lp2292
tp2293
Rp2294
sL1259L
g8
((lp2295
tp2296
Rp2297
sL1260L
g8
((lp2298
tp2299
Rp2300
sL1261L
g8
((lp2301
L1422L
atp2302
Rp2303
sL1262L
g8
((lp2304
L1376L
aL1382L
atp2305
Rp2306
sL1263L
g8
((lp2307
tp2308
Rp2309
sL1264L
g8
((lp2310
L800L
aL1199L
aL1284L
aL1073L
aL1577L
aL1067L
aL1071L
aL685L
aL1197L
aL1295L
aL1201L
aL1202L
aL1205L
aL1078L
aL952L
aL1307L
aL1308L
atp2311
Rp2312
sL1265L
g8
((lp2313
tp2314
Rp2315
sL1266L
g8
((lp2316
tp2317
Rp2318
sL1267L
g8
((lp2319
L1200L
aL1067L
atp2320
Rp2321
sL1268L
g8
((lp2322
tp2323
Rp2324
sL1269L
g8
((lp2325
L1138L
atp2326
Rp2327
sL1270L
g8
((lp2328
L1353L
aL1547L
atp2329
Rp2330
sL1271L
g8
((lp2331
L549L
aL1543L
aL873L
aL903L
aL1166L
aL1008L
aL1395L
aL1204L
aL533L
aL1206L
aL1079L
aL664L
aL1178L
aL1013L
atp2332
Rp2333
sL1272L
g8
((lp2334
L1362L
aL1534L
atp2335
Rp2336
sL1273L
g8
((lp2337
tp2338
Rp2339
sL1274L
g8
((lp2340
L1590L
atp2341
Rp2342
sL1275L
g8
((lp2343
tp2344
Rp2345
sL1276L
g8
((lp2346
tp2347
Rp2348
sL1277L
g8
((lp2349
L1278L
atp2350
Rp2351
sL1278L
g8
((lp2352
L1277L
atp2353
Rp2354
sL1279L
g8
((lp2355
L1577L
aL1391L
aL1393L
atp2356
Rp2357
sL1280L
g8
((lp2358
L1531L
atp2359
Rp2360
sL1281L
g8
((lp2361
L1530L
atp2362
Rp2363
sL1282L
g8
((lp2364
L740L
aL1415L
aL680L
aL528L
aL1096L
aL1116L
atp2365
Rp2366
sL1283L
g8
((lp2367
tp2368
Rp2369
sL1284L
g8
((lp2370
L1577L
aL910L
aL1264L
aL1203L
aL1205L
aL570L
atp2371
Rp2372
sL1285L
g8
((lp2373
tp2374
Rp2375
sL1286L
g8
((lp2376
L1085L
aL1591L
atp2377
Rp2378
sL1287L
g8
((lp2379
L1040L
aL808L
aL618L
aL614L
aL1494L
atp2380
Rp2381
sL1288L
g8
((lp2382
L1179L
aL1406L
atp2383
Rp2384
sL1289L
g8
((lp2385
tp2386
Rp2387
sL1290L
g8
((lp2388
L1422L
atp2389
Rp2390
sL1291L
g8
((lp2391
tp2392
Rp2393
sL1292L
g8
((lp2394
tp2395
Rp2396
sL1293L
g8
((lp2397
L1489L
atp2398
Rp2399
sL1294L
g8
((lp2400
tp2401
Rp2402
sL1295L
g8
((lp2403
L1264L
aL1577L
aL1202L
aL1339L
aL1308L
atp2404
Rp2405
sL1296L
g8
((lp2406
L1500L
atp2407
Rp2408
sL1297L
g8
((lp2409
tp2410
Rp2411
sL1298L
g8
((lp2412
tp2413
Rp2414
sL1299L
g8
((lp2415
L1365L
atp2416
Rp2417
sL1300L
g8
((lp2418
L1574L
atp2419
Rp2420
sL1301L
g8
((lp2421
L1088L
aL897L
aL675L
aL682L
aL557L
aL732L
atp2422
Rp2423
sL1302L
g8
((lp2424
L1400L
aL1548L
aL757L
atp2425
Rp2426
sL1303L
g8
((lp2427
tp2428
Rp2429
sL1304L
g8
((lp2430
tp2431
Rp2432
sL1305L
g8
((lp2433
L1541L
atp2434
Rp2435
sL1306L
g8
((lp2436
tp2437
Rp2438
sL1307L
g8
((lp2439
L1264L
aL1577L
aL1308L
aL1199L
atp2440
Rp2441
sL1308L
g8
((lp2442
L1264L
aL1577L
aL1307L
aL1295L
atp2443
Rp2444
sL1309L
g8
((lp2445
L1352L
aL1184L
aL1349L
atp2446
Rp2447
sL1310L
g8
((lp2448
tp2449
Rp2450
sL1311L
g8
((lp2451
L1516L
atp2452
Rp2453
sL1312L
g8
((lp2454
L575L
atp2455
Rp2456
sL1313L
g8
((lp2457
L1347L
aL1188L
aL1349L
aL1350L
aL1352L
aL486L
aL1547L
aL1550L
aL1052L
aL933L
atp2458
Rp2459
sL1315L
g8
((lp2460
tp2461
Rp2462
sL1316L
g8
((lp2463
L1577L
atp2464
Rp2465
sL1317L
g8
((lp2466
L891L
aL993L
aL1411L
atp2467
Rp2468
sL1318L
g8
((lp2469
tp2470
Rp2471
sL1319L
g8
((lp2472
L1178L
aL1390L
atp2473
Rp2474
sL1320L
g8
((lp2475
L608L
aL1323L
aL699L
aL663L
atp2476
Rp2477
sL1321L
g8
((lp2478
L1573L
aL808L
aL906L
aL1133L
aL1010L
aL533L
atp2479
Rp2480
sL1322L
g8
((lp2481
tp2482
Rp2483
sL1323L
g8
((lp2484
L1320L
aL663L
atp2485
Rp2486
sL1324L
g8
((lp2487
tp2488
Rp2489
sL1325L
g8
((lp2490
L1096L
atp2491
Rp2492
sL1326L
g8
((lp2493
L1095L
atp2494
Rp2495
sL1327L
g8
((lp2496
L1008L
aL906L
aL797L
aL1133L
aL1543L
atp2497
Rp2498
sL1328L
g8
((lp2499
L1190L
atp2500
Rp2501
sL1329L
g8
((lp2502
tp2503
Rp2504
sL1330L
g8
((lp2505
tp2506
Rp2507
sL1331L
g8
((lp2508
tp2509
Rp2510
sL1332L
g8
((lp2511
L1367L
atp2512
Rp2513
sL1333L
g8
((lp2514
tp2515
Rp2516
sL1334L
g8
((lp2517
tp2518
Rp2519
sL1335L
g8
((lp2520
tp2521
Rp2522
sL1336L
g8
((lp2523
tp2524
Rp2525
sL1337L
g8
((lp2526
L1204L
atp2527
Rp2528
sL1338L
g8
((lp2529
tp2530
Rp2531
sL1339L
g8
((lp2532
L1577L
aL942L
aL1198L
aL1295L
atp2533
Rp2534
sL1340L
g8
((lp2535
L1530L
aL1579L
aL1580L
atp2536
Rp2537
sL1341L
g8
((lp2538
L944L
aL1010L
aL1198L
aL943L
atp2539
Rp2540
sL1342L
g8
((lp2541
L1577L
aL1067L
aL1198L
aL1071L
aL1201L
aL1078L
aL1199L
atp2542
Rp2543
sL1343L
g8
((lp2544
L1577L
aL1202L
aL1198L
aL726L
atp2545
Rp2546
sL1344L
g8
((lp2547
L578L
aL571L
atp2548
Rp2549
sL1345L
g8
((lp2550
tp2551
Rp2552
sL1346L
g8
((lp2553
L999L
atp2554
Rp2555
sL1347L
g8
((lp2556
L1313L
aL1205L
atp2557
Rp2558
sL1348L
g8
((lp2559
L697L
aL1074L
aL1220L
aL1493L
atp2560
Rp2561
sL1349L
g8
((lp2562
L1313L
aL491L
aL1189L
aL1052L
aL1546L
aL1547L
aL1549L
aL1550L
aL1251L
aL1557L
aL1529L
aL796L
aL1309L
aL639L
atp2563
Rp2564
sL1350L
g8
((lp2565
L1313L
atp2566
Rp2567
sL1351L
g8
((lp2568
tp2569
Rp2570
sL1352L
g8
((lp2571
L1248L
aL1313L
aL1309L
atp2572
Rp2573
sL1353L
g8
((lp2574
L1060L
aL933L
aL486L
aL812L
aL937L
aL1547L
aL1548L
aL817L
aL1270L
aL1054L
atp2575
Rp2576
sL1354L
g8
((lp2577
tp2578
Rp2579
sL1355L
g8
((lp2580
tp2581
Rp2582
sL1356L
g8
((lp2583
tp2584
Rp2585
sL1357L
g8
((lp2586
tp2587
Rp2588
sL1358L
g8
((lp2589
L1064L
aL1589L
aL1062L
aL511L
atp2590
Rp2591
sL1359L
g8
((lp2592
tp2593
Rp2594
sL1360L
g8
((lp2595
tp2596
Rp2597
sL1361L
g8
((lp2598
L1537L
aL1534L
atp2599
Rp2600
sL1362L
g8
((lp2601
L1272L
aL1534L
atp2602
Rp2603
sL1363L
g8
((lp2604
tp2605
Rp2606
sL1364L
g8
((lp2607
tp2608
Rp2609
sL1365L
g8
((lp2610
L704L
aL594L
aL1299L
atp2611
Rp2612
sL1366L
g8
((lp2613
L1056L
aL803L
aL1203L
aL874L
aL1548L
aL1069L
aL1041L
aL1043L
atp2614
Rp2615
sL1367L
g8
((lp2616
L1332L
aL1029L
aL1030L
aL1159L
atp2617
Rp2618
sL1368L
g8
((lp2619
L994L
aL995L
aL1252L
atp2620
Rp2621
sL1370L
g8
((lp2622
tp2623
Rp2624
sL1371L
g8
((lp2625
tp2626
Rp2627
sL1372L
g8
((lp2628
tp2629
Rp2630
sL1373L
g8
((lp2631
tp2632
Rp2633
sL1374L
g8
((lp2634
tp2635
Rp2636
sL1375L
g8
((lp2637
tp2638
Rp2639
sL1376L
g8
((lp2640
L1262L
atp2641
Rp2642
sL1377L
g8
((lp2643
L1515L
atp2644
Rp2645
sL1378L
g8
((lp2646
tp2647
Rp2648
sL1380L
g8
((lp2649
tp2650
Rp2651
sL1381L
g8
((lp2652
L1524L
aL1549L
atp2653
Rp2654
sL1382L
g8
((lp2655
L1262L
atp2656
Rp2657
sL1383L
g8
((lp2658
tp2659
Rp2660
sL1384L
g8
((lp2661
L808L
atp2662
Rp2663
sL1385L
g8
((lp2664
L1178L
atp2665
Rp2666
sL1386L
g8
((lp2667
L571L
aL1581L
atp2668
Rp2669
sL1387L
g8
((lp2670
tp2671
Rp2672
sL1388L
g8
((lp2673
tp2674
Rp2675
sL1389L
g8
((lp2676
tp2677
Rp2678
sL1390L
g8
((lp2679
L1068L
aL1319L
atp2680
Rp2681
sL1391L
g8
((lp2682
L1393L
aL1010L
aL1279L
atp2683
Rp2684
sL1392L
g8
((lp2685
L529L
aL801L
atp2686
Rp2687
sL1393L
g8
((lp2688
L906L
aL1391L
aL726L
aL632L
aL698L
aL574L
aL1279L
atp2689
Rp2690
sL1394L
g8
((lp2691
tp2692
Rp2693
sL1395L
g8
((lp2694
L1543L
aL873L
aL1198L
aL657L
aL1271L
aL952L
atp2695
Rp2696
sL1396L
g8
((lp2697
tp2698
Rp2699
sL1397L
g8
((lp2700
L1500L
atp2701
Rp2702
sL1398L
g8
((lp2703
L1233L
atp2704
Rp2705
sL1399L
g8
((lp2706
L1096L
aL1241L
aL502L
atp2707
Rp2708
sL1400L
g8
((lp2709
L1548L
aL1302L
atp2710
Rp2711
sL1401L
g8
((lp2712
tp2713
Rp2714
sL1402L
g8
((lp2715
tp2716
Rp2717
sL1403L
g8
((lp2718
L1600L
aL593L
aL1124L
atp2719
Rp2720
sL1404L
g8
((lp2721
tp2722
Rp2723
sL1405L
g8
((lp2724
tp2725
Rp2726
sL1406L
g8
((lp2727
L1288L
aL1179L
atp2728
Rp2729
sL1407L
g8
((lp2730
L704L
aL1601L
atp2731
Rp2732
sL1408L
g8
((lp2733
L1598L
atp2734
Rp2735
sL1409L
g8
((lp2736
tp2737
Rp2738
sL1410L
g8
((lp2739
L1257L
atp2740
Rp2741
sL1411L
g8
((lp2742
L1525L
aL1317L
atp2743
Rp2744
sL1412L
g8
((lp2745
tp2746
Rp2747
sL1413L
g8
((lp2748
tp2749
Rp2750
sL1414L
g8
((lp2751
L737L
aL1226L
aL980L
atp2752
Rp2753
sL1415L
g8
((lp2754
L680L
aL528L
aL1096L
aL740L
aL1282L
atp2755
Rp2756
sL1416L
g8
((lp2757
L1059L
aL605L
aL731L
aL483L
atp2758
Rp2759
sL1417L
g8
((lp2760
tp2761
Rp2762
sL1418L
g8
((lp2763
L713L
aL763L
aL927L
aL813L
aL711L
atp2764
Rp2765
sL1419L
g8
((lp2766
L735L
atp2767
Rp2768
sL1420L
g8
((lp2769
tp2770
Rp2771
sL1421L
g8
((lp2772
tp2773
Rp2774
sL1422L
g8
((lp2775
L986L
aL1290L
aL1261L
aL1110L
atp2776
Rp2777
sL1423L
g8
((lp2778
tp2779
Rp2780
sL1424L
g8
((lp2781
tp2782
Rp2783
sL1425L
g8
((lp2784
tp2785
Rp2786
sL1426L
g8
((lp2787
tp2788
Rp2789
sL1427L
g8
((lp2790
L1151L
atp2791
Rp2792
sL1428L
g8
((lp2793
L969L
aL1187L
atp2794
Rp2795
sL1429L
g8
((lp2796
tp2797
Rp2798
sL1430L
g8
((lp2799
tp2800
Rp2801
sL1431L
g8
((lp2802
tp2803
Rp2804
sL1432L
g8
((lp2805
tp2806
Rp2807
sL1433L
g8
((lp2808
tp2809
Rp2810
sL1434L
g8
((lp2811
tp2812
Rp2813
sL1435L
g8
((lp2814
L924L
aL1119L
atp2815
Rp2816
sL1436L
g8
((lp2817
tp2818
Rp2819
sL1437L
g8
((lp2820
tp2821
Rp2822
sL1438L
g8
((lp2823
tp2824
Rp2825
sL1439L
g8
((lp2826
tp2827
Rp2828
sL1441L
g8
((lp2829
tp2830
Rp2831
sL1442L
g8
((lp2832
tp2833
Rp2834
sL1443L
g8
((lp2835
tp2836
Rp2837
sL1444L
g8
((lp2838
tp2839
Rp2840
sL1445L
g8
((lp2841
tp2842
Rp2843
sL1446L
g8
((lp2844
L1449L
atp2845
Rp2846
sL1447L
g8
((lp2847
tp2848
Rp2849
sL1448L
g8
((lp2850
tp2851
Rp2852
sL1449L
g8
((lp2853
L1446L
atp2854
Rp2855
sL1450L
g8
((lp2856
tp2857
Rp2858
sL1451L
g8
((lp2859
tp2860
Rp2861
sL1452L
g8
((lp2862
tp2863
Rp2864
sL1453L
g8
((lp2865
tp2866
Rp2867
sL1454L
g8
((lp2868
tp2869
Rp2870
sL1455L
g8
((lp2871
tp2872
Rp2873
sL1456L
g8
((lp2874
tp2875
Rp2876
sL1457L
g8
((lp2877
tp2878
Rp2879
sL1458L
g8
((lp2880
tp2881
Rp2882
sL1459L
g8
((lp2883
tp2884
Rp2885
sL1460L
g8
((lp2886
tp2887
Rp2888
sL1461L
g8
((lp2889
tp2890
Rp2891
sL1462L
g8
((lp2892
tp2893
Rp2894
sL1463L
g8
((lp2895
tp2896
Rp2897
sL1464L
g8
((lp2898
tp2899
Rp2900
sL1465L
g8
((lp2901
tp2902
Rp2903
sL1466L
g8
((lp2904
tp2905
Rp2906
sL1467L
g8
((lp2907
tp2908
Rp2909
sL1468L
g8
((lp2910
tp2911
Rp2912
sL1469L
g8
((lp2913
tp2914
Rp2915
sL1470L
g8
((lp2916
tp2917
Rp2918
sL1471L
g8
((lp2919
tp2920
Rp2921
sL1472L
g8
((lp2922
tp2923
Rp2924
sL1473L
g8
((lp2925
tp2926
Rp2927
sL1474L
g8
((lp2928
tp2929
Rp2930
sL1475L
g8
((lp2931
tp2932
Rp2933
sL1476L
g8
((lp2934
tp2935
Rp2936
sL1477L
g8
((lp2937
tp2938
Rp2939
sL1478L
g8
((lp2940
tp2941
Rp2942
sL1479L
g8
((lp2943
tp2944
Rp2945
sL1480L
g8
((lp2946
tp2947
Rp2948
sL1481L
g8
((lp2949
tp2950
Rp2951
sL1482L
g8
((lp2952
tp2953
Rp2954
sL1483L
g8
((lp2955
tp2956
Rp2957
sL1484L
g8
((lp2958
tp2959
Rp2960
sL1486L
g8
((lp2961
tp2962
Rp2963
sL1488L
g8
((lp2964
tp2965
Rp2966
sL1489L
g8
((lp2967
L1293L
atp2968
Rp2969
sL1490L
g8
((lp2970
tp2971
Rp2972
sL1491L
g8
((lp2973
tp2974
Rp2975
sL1492L
g8
((lp2976
tp2977
Rp2978
sL1493L
g8
((lp2979
L1348L
aL1220L
aL1199L
atp2980
Rp2981
sL1494L
g8
((lp2982
L1287L
atp2983
Rp2984
sL1495L
g8
((lp2985
tp2986
Rp2987
sL1496L
g8
((lp2988
tp2989
Rp2990
sL1497L
g8
((lp2991
tp2992
Rp2993
sL1498L
g8
((lp2994
tp2995
Rp2996
sL1499L
g8
((lp2997
tp2998
Rp2999
sL1500L
g8
((lp3000
L1296L
aL1397L
atp3001
Rp3002
sL1501L
g8
((lp3003
tp3004
Rp3005
sL1502L
g8
((lp3006
tp3007
Rp3008
sL1503L
g8
((lp3009
L864L
atp3010
Rp3011
sL1504L
g8
((lp3012
tp3013
Rp3014
sL1505L
g8
((lp3015
tp3016
Rp3017
sL1506L
g8
((lp3018
tp3019
Rp3020
sL1507L
g8
((lp3021
tp3022
Rp3023
sL1508L
g8
((lp3024
tp3025
Rp3026
sL1509L
g8
((lp3027
tp3028
Rp3029
sL1510L
g8
((lp3030
tp3031
Rp3032
sL1511L
g8
((lp3033
tp3034
Rp3035
sL1512L
g8
((lp3036
tp3037
Rp3038
sL1513L
g8
((lp3039
tp3040
Rp3041
sL1515L
g8
((lp3042
L1377L
aL1025L
aL1223L
atp3043
Rp3044
sL1516L
g8
((lp3045
L879L
aL593L
aL831L
aL1311L
atp3046
Rp3047
sL1517L
g8
((lp3048
tp3049
Rp3050
sL1518L
g8
((lp3051
L1603L
atp3052
Rp3053
sL1519L
g8
((lp3054
tp3055
Rp3056
sL1520L
g8
((lp3057
tp3058
Rp3059
sL1521L
g8
((lp3060
tp3061
Rp3062
sL1522L
g8
((lp3063
tp3064
Rp3065
sL1523L
g8
((lp3066
tp3067
Rp3068
sL1524L
g8
((lp3069
L1381L
atp3070
Rp3071
sL1525L
g8
((lp3072
L1411L
atp3073
Rp3074
sL1526L
g8
((lp3075
tp3076
Rp3077
sL1527L
g8
((lp3078
L1604L
atp3079
Rp3080
sL1528L
g8
((lp3081
tp3082
Rp3083
sL1529L
g8
((lp3084
L1349L
atp3085
Rp3086
sL1530L
g8
((lp3087
L1281L
aL931L
aL740L
aL528L
aL1107L
aL1340L
atp3088
Rp3089
sL1531L
g8
((lp3090
L1280L
atp3091
Rp3092
sL1532L
g8
((lp3093
L626L
aL624L
aL497L
aL754L
aL856L
aL895L
atp3094
Rp3095
sL1533L
g8
((lp3096
tp3097
Rp3098
sL1534L
g8
((lp3099
L1272L
aL1361L
aL1362L
aL1534L
atp3100
Rp3101
sL1535L
g8
((lp3102
tp3103
Rp3104
sL1536L
g8
((lp3105
tp3106
Rp3107
sL1537L
g8
((lp3108
L808L
aL1361L
atp3109
Rp3110
sL1538L
g8
((lp3111
tp3112
Rp3113
sL1539L
g8
((lp3114
tp3115
Rp3116
sL1540L
g8
((lp3117
L1253L
atp3118
Rp3119
sL1541L
g8
((lp3120
L1305L
aL788L
atp3121
Rp3122
sL1542L
g8
((lp3123
L1010L
aL902L
aL1007L
atp3124
Rp3125
sL1543L
g8
((lp3126
L653L
aL902L
aL903L
aL873L
aL906L
aL1133L
aL1327L
aL1008L
aL657L
aL1395L
aL533L
aL531L
aL1271L
atp3127
Rp3128
sL1544L
g8
((lp3129
tp3130
Rp3131
sL1545L
g8
((lp3132
tp3133
Rp3134
sL1546L
g8
((lp3135
L1188L
aL1349L
aL1191L
aL796L
aL1052L
aL1054L
aL933L
atp3136
Rp3137
sL1547L
g8
((lp3138
L1313L
aL1270L
aL1349L
aL1191L
aL1353L
aL816L
aL1046L
aL1048L
aL1052L
aL1054L
aL933L
atp3139
Rp3140
sL1548L
g8
((lp3141
L1400L
aL1353L
aL1054L
aL1302L
aL1366L
atp3142
Rp3143
sL1549L
g8
((lp3144
L1349L
aL1381L
atp3145
Rp3146
sL1550L
g8
((lp3147
L1313L
aL1054L
aL974L
aL486L
aL1349L
atp3148
Rp3149
sL1551L
g8
((lp3150
tp3151
Rp3152
sL1552L
g8
((lp3153
tp3154
Rp3155
sL1553L
g8
((lp3156
L1024L
aL882L
aL1243L
aL1134L
atp3157
Rp3158
sL1554L
g8
((lp3159
tp3160
Rp3161
sL1555L
g8
((lp3162
tp3163
Rp3164
sL1556L
g8
((lp3165
tp3166
Rp3167
sL1557L
g8
((lp3168
L1060L
aL1349L
aL935L
aL1192L
aL796L
aL746L
aL1052L
aL1053L
aL1054L
aL933L
atp3169
Rp3170
sL1558L
g8
((lp3171
tp3172
Rp3173
sL1559L
g8
((lp3174
L552L
aL1205L
atp3175
Rp3176
sL1560L
g8
((lp3177
tp3178
Rp3179
sL1561L
g8
((lp3180
tp3181
Rp3182
sL1562L
g8
((lp3183
tp3184
Rp3185
sL1563L
g8
((lp3186
tp3187
Rp3188
sL1564L
g8
((lp3189
tp3190
Rp3191
sL1565L
g8
((lp3192
tp3193
Rp3194
sL1566L
g8
((lp3195
tp3196
Rp3197
sL1567L
g8
((lp3198
tp3199
Rp3200
sL1568L
g8
((lp3201
tp3202
Rp3203
sL1569L
g8
((lp3204
tp3205
Rp3206
sL1570L
g8
((lp3207
tp3208
Rp3209
sL1571L
g8
((lp3210
tp3211
Rp3212
sL1572L
g8
((lp3213
tp3214
Rp3215
sL1573L
g8
((lp3216
L1321L
atp3217
Rp3218
sL1574L
g8
((lp3219
L1300L
atp3220
Rp3221
sL1575L
g8
((lp3222
tp3223
Rp3224
sL1576L
g8
((lp3225
tp3226
Rp3227
sL1577L
g8
((lp3228
L1284L
aL908L
aL1197L
aL1199L
aL1308L
aL1307L
aL1316L
aL1073L
aL808L
aL1067L
aL685L
aL1071L
aL689L
aL1202L
aL1203L
aL564L
aL1205L
aL1078L
aL952L
aL953L
aL1339L
aL1342L
aL575L
aL697L
aL1295L
aL738L
aL1264L
aL1343L
aL1279L
atp3229
Rp3230
sL1578L
g8
((lp3231
L1200L
aL564L
aL1197L
aL575L
atp3232
Rp3233
sL1579L
g8
((lp3234
L1340L
atp3235
Rp3236
sL1580L
g8
((lp3237
L552L
aL1010L
aL1340L
aL711L
atp3238
Rp3239
sL1581L
g8
((lp3240
L1386L
atp3241
Rp3242
sL1583L
g8
((lp3243
tp3244
Rp3245
sL1584L
g8
((lp3246
L788L
atp3247
Rp3248
sL1585L
g8
((lp3249
tp3250
Rp3251
sL1587L
g8
((lp3252
tp3253
Rp3254
sL1588L
g8
((lp3255
tp3256
Rp3257
sL1589L
g8
((lp3258
L1064L
aL1358L
atp3259
Rp3260
sL1590L
g8
((lp3261
L1274L
atp3262
Rp3263
sL1591L
g8
((lp3264
L1286L
atp3265
Rp3266
sL1592L
g8
((lp3267
L1013L
atp3268
Rp3269
sL1593L
g8
((lp3270
tp3271
Rp3272
sL1594L
g8
((lp3273
tp3274
Rp3275
sL1595L
g8
((lp3276
tp3277
Rp3278
sL1596L
g8
((lp3279
tp3280
Rp3281
sL1597L
g8
((lp3282
tp3283
Rp3284
sL1598L
g8
((lp3285
L1408L
atp3286
Rp3287
sL1599L
g8
((lp3288
L871L
atp3289
Rp3290
sL1600L
g8
((lp3291
L1403L
aL871L
atp3292
Rp3293
sL1601L
g8
((lp3294
L1407L
aL871L
atp3295
Rp3296
sL1602L
g8
((lp3297
tp3298
Rp3299
sL1603L
g8
((lp3300
L1518L
atp3301
Rp3302
sL1604L
g8
((lp3303
L1527L
atp3304
Rp3305
ssS'names'
p3306
(dp3307
L472L
S'Finite Element Modeling and Analysis of Orthotropic Butt Welds'
p3308
sL473L
S'Theoretical and Experimental Characterization of the 34.6 2D Lattice Material'
p3309
sL474L
S'A Viscoelastic Based Mechanism for Improving Spring-In Angle Predictions in Compression Molded Thermoplastic Matrix Composites'
p3310
sL475L
S'The Effect of Carbon Nanotubes on the Natural Frequencies of Microcantilever Beams'
p3311
sL476L
S'Experimental Damage Characterization of Hexagonal Honeycombs Subjected to In-Plane Shear Loading'
p3312
sL477L
S'Design of Chiral Honeycomb Meso-Structures for High Shear Flexure'
p3313
sL478L
S'A Study of the Effect of Geometry Changes on the Structural Stiffness of a Composite D-Spar'
p3314
sL479L
S'Low-Velocity Impact Behavior of Aluminum-Fiber/Epoxy Laminates: A Comprehensive Experimental Study'
p3315
sL480L
S'Safety of Spur Gear Design Under Non-Ideal Conditions With Uncertainty'
p3316
sL481L
S'Subfunctions as Parts of Functions: Some Formal Problems'
p3317
sL482L
S'Development and Application of a Patent-Based Design Around Process'
p3318
sL483L
S'A Port-Based Agent Approach to Guiding Concept Generation for Customizing Modular Varieties'
p3319
sL484L
S'Requirement Change Propagation Prediction Approach: Results From an Industry Case Study'
p3320
sL485L
S'A Graph Theory Based Method for Functional Decoupling of a Design With Complex Interaction Structure'
p3321
sL486L
S'Mass Customization: A Review of the Paradigm Across Marketing, Engineering and Distribution Domains'
p3322
sL487L
S'Automated Concept Generation Using Branched Functional Models'
p3323
sL488L
S'Development of Game Theoretic Protocols for Multilevel Design'
p3324
sL489L
S'Exploring Automated Concept Generator Output Through Principal Component Analysis'
p3325
sL490L
S'Concept Opportunity Diagrams: A Visual Modeling Method to Find Multifunctional Design Concepts'
p3326
sL491L
S'Modular Product Configuration: An Automatic Tool for Eliciting Design Knowledge From Parametric CAD Models'
p3327
sL492L
S'Reconfigurable Products and Their Means of Reconfiguration'
p3328
sL493L
S'Optimal Adaptable Design Considering Changes of Requirements, Configurations and Parameters in the Whole Product Life-Cycle'
p3329
sL495L
S'State Transition in Reconfigurable Systems'
p3330
sL496L
S'An Engineering Design Strategy for Reconfigurable Products That Support Poverty Alleviation'
p3331
sL497L
S'A Framework for Choice Modeling in Usage Context-Based Design'
p3332
sL498L
S'Product Family Deployment Through Optimal Resource Allocation Under Market System'
p3333
sL499L
S'Strategic Product Design Decisions for Uncertain Market Systems Using an Agent Based Approach'
p3334
sL500L
S'A Method for Supporting Service Design Based on Multiple Domain Knowledge'
p3335
sL501L
S'Parallel Biogeography-Based Optimization With GPU Acceleration for Nonlinear Optimization'
p3336
sL502L
S'Constraint Importance Mode Pursuing Sampling for Continuous Global Optimization'
p3337
sL503L
S'Design Preference Elicitation, Derivative-Free Optimization and Support Vector Machine Search'
p3338
sL504L
S'Protocol-Based Multi-Agent Systems: Examining the Effect of Diversity, Dynamism, and Cooperation in Heuristic Optimization Approaches'
p3339
sL505L
S'A Hybrid Biomimetic Genetic Algorithm Using a Local Fuzzy Simplex Search'
p3340
sL506L
S'Computation of the Usage Contexts Coverage of a Jigsaw With CSP Techniques'
p3341
sL507L
S'Visual Analysis of User Accommodation'
p3342
sL508L
S'Considering Secular and Demographic Trends in Designing for Present and Future Populations'
p3343
sL509L
S'Augmented Reality Visualization of Automobile Air Conditioning Using Optical Tracking Tools'
p3344
sL510L
S'Reverse Engineering for Spotting of Sheet Metal Forming Parts'
p3345
sL511L
S'2-D Path Planning for Direct Laser Deposition Process'
p3346
sL512L
S'A Multi-Axis Slicing Method for Direct Laser Deposition Process'
p3347
sL513L
S'Basic Study of Autologous-Bone-Replaceable Artificial Bone Fabrication With Porosity Distribution Using Electrolysis'
p3348
sL514L
S'Additive Manufacturing Based on Multiple Calibrated Projectors and Its Mask Image Planning'
p3349
sL515L
S'The Automated Planning for Fixture Location Based on Process Requirement'
p3350
sL519L
S'Robustness Analysis of Airfoil Performance'
p3351
sL521L
S'Symmetry Plane Detection for 3D CAD Volumes'
p3352
sL522L
S'Collision-Free Locating of Mobile Cranes in 3D Lifting System'
p3353
sL523L
S'A Fast Grid Deformation Algorithm for Aerodynamic Shape Optimization'
p3354
sL524L
S'Fundamental Concepts for Collaboratively Obtaining Optimum Product Designs'
p3355
sL525L
S'Investigation of Design Tools as Complexity Management Techniques'
p3356
sL526L
S'Bayesian Network Classifiers for Set-Based Collaborative Design'
p3357
sL527L
S'Functional Decomposition of the Clustering Approach for Matrix-Based Structuring'
p3358
sL528L
S'Examining Interactions Between Solution Architecture and Designer Mistakes'
p3359
sL529L
S'Support Vector Regression Modeling for Design and Analysis of Mechanical Snubbing'
p3360
sL530L
S'A Simulation-Based Robust Concept Exploration Method'
p3361
sL531L
S'Making the Most Out of Surrogate Models: Tricks of the Trade'
p3362
sL532L
S'Turning Black-Box Into White Functions'
p3363
sL533L
S'Improving Multi-Response Metamodels With Upper/Lower Bound Information Using Multi-Stage, Non-Stationary Covariance Functions'
p3364
sL534L
S'A MINLP Model for Global Optimization of Plug-In Hybrid Vehicle Design and Allocation to Minimize Life Cycle Greenhouse Gas Emissions'
p3365
sL535L
S'Hybrid Power/Energy Generation System Design Through Multistage Design Optimization Problem With Complementarity Constraints'
p3366
sL536L
S'Design and Analysis of Hybrid Guideway Heating System for Morgantown Personal Rapid Transit'
p3367
sL537L
S'Design Optimization of Reverse Osmosis Water Desalination Systems via Genetic Algorithms'
p3368
sL538L
S'Studies on the Design of Reverse Osmosis Water Desalination Systems for Cost and Energy Efficiency'
p3369
sL539L
S'An Extended Pattern Search Approach to Wind Farm Layout Optimization'
p3370
sL540L
S'Design of an Extended-Range Electric Vehicle for the EcoCAR Challenge'
p3371
sL541L
S'Plug-In Hybrid Electric Vehicle Battery Selection for Optimum Economic and Environmental Benefits Using Pareto Set Points and PSAT(tm)'
p3372
sL542L
S'An Investigation of Sustainability, Preference, and Profitability in Design Optimization'
p3373
sL543L
S'Response Surface Based Cost Model for Onshore Wind Farms Using Extended Radial Basis Functions'
p3374
sL544L
S'Optimal Camera Path Planning for the Inspection of Printed Circuit Boards Using a Two Stepped Optimization Approach'
p3375
sL545L
S'Constraint Management of Reduced Representation Variables in Decomposition-Based Design Optimization'
p3376
sL546L
S'Combined Plant and Controller Design Using Decomposition-Based Design Optimization and the Minimum Principle'
p3377
sL547L
S'Optimizing the Unrestricted Placement of Turbines of Differing Rotor Diameters in a Wind Farm for Maximum Power Generation'
p3378
sL548L
S'A Cutting Plane Method for Analytical Target Cascading With Augmented Lagrangian Coordination'
p3379
sL549L
S'Reducible Uncertain Interval Design (RUID) by Kriging Meta-Model Assisted Multi-Objective Optimization'
p3380
sL550L
S'Multi-Objective Optimization in Industrial Robotic Cell Design'
p3381
sL551L
S'An Improved Kriging Assisted Multi-Objective Genetic Algorithm'
p3382
sL552L
S'Investigating the Significance of "One-to-Many" Mappings in Multiobjective Optimization'
p3383
sL553L
S'Ball Bearing Fatigue and Wear Life Optimization Using Elastohydrodynamic and Genetic Algorithm'
p3384
sL554L
S'Development of a Product Family Analysis Toolkit for Systematic Benchmarking'
p3385
sL555L
S'User Interface Design for Interactive Product Family Analysis and Variants Derivation'
p3386
sL556L
S'Validating the Generational Variety Index (GVI) Through Product Family Optimization: A Preliminary Study'
p3387
sL557L
S'Universal Product Family Design Valuation in an Uncertain Market Environment'
p3388
sL558L
S'Designing a Product Package Platform'
p3389
sL559L
S'System RBDO With Correlated Variables Using Probabilistic Re-Analysis and Local Metamodels'
p3390
sL560L
S'A Simulation-Based Random Process Method for Time-Dependent Reliability of Dynamic Systems'
p3391
sL561L
S'Multi-Objective Design and Tolerance Allocation for Single- and Multi-Level Systems'
p3392
sL562L
S'Modified Reduced Gradient With Realizations Sorting for Hard Equality Constraints in Reliability-Based Design Optimization'
p3393
sL563L
S'Probabilistic Design Optimization of Frequency Dispersion for Rotating Blades'
p3394
sL564L
S'Second-Order Reliability Method With First-Order Efficiency'
p3395
sL565L
S'A Joint Probability Approach to Multiobjective Optimization Under Uncertainty'
p3396
sL566L
S'Parameter Screening in Dynamic Computer Model Calibration Using Global Sensitivities'
p3397
sL567L
S'Trending Mining for Predictive Product Design'
p3398
sL568L
S'Validating Designs Through Sequential Simulation-Based Optimization'
p3399
sL569L
S'Risk Management in Product Design: Current State, Conceptual Model and Future Research'
p3400
sL570L
S'Model-Based Method to Translate System Level Customer Need to Part Specification'
p3401
sL571L
S'Sampling-Based Stochastic Sensitivity Analysis Using Score Functions for RBDO Problems With Correlated Random Variables'
p3402
sL572L
S'Reliability-Based Design Optimization With Confidence Level for Non-Gaussian Distributions Using Bootstrap Method'
p3403
sL573L
S'Multiscale Variability and Uncertainty Quantification Based on a Generalized Multiscale Markov Model'
p3404
sL574L
S'Updating Predictive Models: Calibration, Bias Correction and Identifiability'
p3405
sL575L
S'A Hybrid Reliability Approach for Reliability-Based Design Optimization'
p3406
sL576L
S'Enabling Integrated Material and Product Design Under Uncertainty Through Stochastic Constitutive Relations'
p3407
sL577L
S'Tolerance Allocation of Assemblies Using Fuzzy Comprehensive Evaluation and Decision Support Processes'
p3408
sL578L
S'Effective Random Field Characterization Considering Statistical Dependence for Probability Analysis and Design'
p3409
sL579L
S'Validation of Computational Fluid Structure Interaction Models for Shape Optimization Under Blast Impact'
p3410
sL580L
S'A Modified Continuous Reactive Tabu Search for Damage Detection in Beams'
p3411
sL582L
S'An Efficient Tradeoff Approach for Topology Optimization With Manufacturing Constraints'
p3412
sL583L
S'Optimum Design of an Anchoring System for Percutaneous Mitral Valve Repair'
p3413
sL584L
S'Tracing Pareto-Optimal Frontiers in Topology Optimization'
p3414
sL585L
S'Topology Optimization of Piezoelectric Energy Harvesting Devices Subjected to Stochastic Excitation'
p3415
sL586L
S'Fastener Pattern Optimization of an Eccentrically Loaded Multi-Fastener Connection'
p3416
sL588L
S'The Mathematical Model of a Procedure for Percutaneous Annuloplasty'
p3417
sL589L
S'Using Level Set Method in Order to Design Structures Against Buckling'
p3418
sL590L
S'An Optimization Model for Parabolic-Trough Solar Power Generation Systems'
p3419
sL591L
S'Integrated Decision Model for Interrelated Sub-Problems of Part Design or Selection, Machine Loading and Machining Optimization'
p3420
sL592L
S'Automated Synthesis and Optimization of Gear Train Topologies'
p3421
sL593L
S'Hybrid General Heuristic Gradient Projection for Frame Optimization of Micro and Macro Applications'
p3422
sL594L
S'Automated Vehicle Structural Crashworthiness Design via a Crash Mode Matching Algorithm'
p3423
sL595L
S'System Dynamics Through Graphical Dimensional Analysis'
p3424
sL596L
S'Development of a Changeable Airfoil Optimization Model for Use in the Multidisciplinary Design of Unmanned Aerial Vehicles'
p3425
sL597L
S'Design Optimization of a Special Class of Steel Structures via Genetic Algorithms and Stochastic Sampling'
p3426
sL598L
S'Variable Fidelity Modeling as Applied to Trajectory Optimization for a Hydraulic Backhoe'
p3427
sL599L
S'Creating Polytope Representation of Design Spaces for Visual Exploration Using Consistency Technique'
p3428
sL600L
S'Modular Product Design Using Cyberinfrastructure for Global Manufacturing'
p3429
sL601L
S'A Method and Software Tool for Automated Gearbox Synthesis'
p3430
sL602L
S'Genetic Evolution for the Development of Robust Artificial Neural Network Logic Gates'
p3431
sL604L
S'Early Design Modeling and Simulation of Behaviors: Case Study of Mobile Work Machine'
p3432
sL605L
S'Port-Based Ontology Semantic Similarities for Module Concept Creation'
p3433
sL606L
S'A Study of Different Metamodeling Techniques for Conceptual Design'
p3434
sL607L
S'Automatic Virtual Entity Simulation of the Symbolic Schemes Generated in Conceptual Design Processes'
p3435
sL608L
S'A Hybrid Sensitivity Analysis for Use in Early Design'
p3436
sL609L
S'Integrated Pahl and Beitz and the Theory of Inventive Problem Solving for the Conceptual Design of Multi-Domain Systems'
p3437
sL610L
S'Empirical Analysis of Transformers in the Development of a Storyboarding Methodology'
p3438
sL611L
S'A Function-Based Strategy for Analysis of Energy Systems in Transportation Vehicles'
p3439
sL612L
S'2D Multi-Objective Placement Algorithm for Free-Form Components'
p3440
sL613L
S'OPAS: Ontology Processing for Assisted Synthesis of Conceptual Design Solutions'
p3441
sL614L
S'Optimization of Machine Product Designs From Deeper Level Characteristics Using Collaboration Theory Concepts'
p3442
sL615L
S'The Effect of Reward Interdependence of Strategies in Evolutionary Multi-Agent Systems'
p3443
sL616L
S'Approach to Evaluate and Implement Information Systems That Satisfy Your Goals'
p3444
sL617L
S'Bayesian Networks for Set-Based Collaborative Design'
p3445
sL618L
S'Separating Design Optimization Problems for Bounded Rational Designers'
p3446
sL619L
S'Interactive Functional Reparameterization of Geometric Models'
p3447
sL620L
S'Entropic Method for Sequencing Discrete Design Decisions'
p3448
sL621L
S'Integration of Supply Chain Decisions at the Conceptual Design Stage: A Repository Enabled Decision Tool'
p3449
sL622L
S'Bayesian Hierarchical Choice Modeling Framework for Capturing Heterogeneous Preferences in Engineering System Design'
p3450
sL623L
S'A Comparative Study of Data-Intensive Demand Modeling Techniques in Relation to Product Design and Development'
p3451
sL624L
S'A Mixed Logit Choice Modeling Approach Using Customer Satisfaction Surveys to Support Engineering Design'
p3452
sL625L
S'Methods for Evaluating Suitability of Econometric Demand Models in Design for Market Systems'
p3453
sL626L
S'Usage Coverage Model for Choice Modeling: Principles'
p3454
sL627L
S'Assessing Fusibility in Enrichment Methods for Disparate Customer Data Sets'
p3455
sL628L
S'A Multi-Scale Design for a Robust Hydrogen Storage Tank'
p3456
sL629L
S'Metamorphosis of Periodic Surface Models'
p3457
sL630L
S'A Design Exploration Method for Adaptive Design Systems'
p3458
sL631L
S'Microstructure-Mediated Integration of Material and Product Design: Undersea Submersible'
p3459
sL632L
S'A Multiscale Design Methodology for Designing Hierarchical Multiscale Systems Considering Random Field Uncertainty'
p3460
sL633L
S'Parallel Population Based Incremental Learning With GPU Acceleration for Nonlinear Optimization'
p3461
sL634L
S'On the Application of Multi-Objective Parallel Asynchronous Particle Swarm Optimization to Engineering Design Problems'
p3462
sL635L
S'Particle Swarm Methodologies for Engineering Design Optimization'
p3463
sL636L
S'A Regularized Inexact Penalty Decomposition Algorithm for Multidisciplinary Design Optimization Problem With Complementarity Constraints'
p3464
sL637L
S'Hierarchical Optimization-Based Approach for Two-Dimensional Rectangular Layout Design Problems'
p3465
sL638L
S'Optimized Mask Image Projection for Solid Freeform Fabrication'
p3466
sL639L
S'An Approach to Support the Implementation of Product Configuration Tools'
p3467
sL640L
S'Shapley Value Based Attribute Selection for Configurators'
p3468
sL641L
S'The Effect of Toolpath Intersection Angle in Metal Deposition'
p3469
sL642L
S'Selection of Part Orientation for Multi-Axis Hybrid Manufacturing Process'
p3470
sL643L
S'Modeling of Geometric Variations Within a Tolerance-Zone for Circular Runout'
p3471
sL644L
S'Representation and Automated Generation of Analysis Feature Model for Finite Element Analysis'
p3472
sL645L
S'Neutral Definition and Recognition of Assembly Features for Legacy Systems Reverse Engineering'
p3473
sL646L
S'Modeling and Virtual Reality Realization of Coupled Processes in Integrated Open-Die Forging Plant'
p3474
sL647L
S'Path Planning in Topologically Evolving Planar Environments'
p3475
sL648L
S'An Application of Shape Grammars to Planning for CNC Machining'
p3476
sL649L
S'Design Language for Airplane Geometries Using the Unified Modeling Language'
p3477
sL650L
S'Recognizing Network-Like Hand-Drawn Sketches: A Convolutional Neural Network Approach'
p3478
sL651L
S'Learning Geometric Design Knowledge From Conceptual Sketches and Its Utilization in Shape Creation and Optimization'
p3479
sL652L
S'A Text Understanding Interface for Physical System Modeling and Simulation'
p3480
sL653L
S'Performance Comparison of Metamodeling Methods From the Perspective of Sample Quality Merits'
p3481
sL654L
S'Response Surface Algorithms for Engine Mount Optimization in Motorcycles'
p3482
sL655L
S'Development of Adaptive RBF-HDMR Model for Approximating High Dimensional Problems'
p3483
sL656L
S'Conservative Prediction via Safety Margin: Design Through Cross-Validation and Benefits of Multiple Surrogates'
p3484
sL657L
S'Hybrid and Adaptive Metamodel Based Global Optimization'
p3485
sL658L
S'Ensemble of Meta-Models Based on Local Error Measure Using Cross-Validation'
p3486
sL659L
S'Empirical Similarity Analysis Using Adaptive Trigonometric Functions'
p3487
sL660L
S'Valuable Theoretical Lessons Learned From the Application of Metamodels to a Variety of Industrial Problems'
p3488
sL661L
S'Design of Honeycomb Meta-Materials for High Shear Flexure'
p3489
sL662L
S'Optimal Design of a 3-DOF Parallel Micromanipulator'
p3490
sL663L
S'Interval Uncertainty Reduction and Single-Disciplinary Sensitivity Analysis With Multi-Objective Optimization'
p3491
sL664L
S'Design Improvement by Sensitivity Analysis (DISA) Under Interval Uncertainty Using Multi-Objective Optimization'
p3492
sL666L
S'A Comparison of Metamodel-Assisted Pre-Screening Criteria for Multi-Objective Genetic Algorithms'
p3493
sL667L
S'Analysis of Avoided Carbon-Dioxide Due to Photovoltaic and Wind Turbine Technologies Displacing Electrical Peaking Facilities'
p3494
sL668L
S'A Structural Optimization Method for Universal Design of Compliant Mechanism Scissors'
p3495
sL669L
S'Integrated Optimization for Supporting Functional and Layout Designs During Conceptual Design Phase'
p3496
sL670L
S'Simulation and Optimization of the Water-Jet Cleaning Process'
p3497
sL671L
S'Optimal Plug-in Hybrid Electric Vehicle Design and Allocation for Diverse Charging Patterns'
p3498
sL672L
S'Customer-Centric Product Modeling for Rapid Product Identification in One-of-a-Kind Production'
p3499
sL673L
S'Designing Product Families With Competition: A Design for Market Systems Approach'
p3500
sL674L
S'Automated Design of an Industrial Robot Family'
p3501
sL675L
S'A Design Method for Developing a Universal Product Family in a Dynamic Market Environment'
p3502
sL676L
S'Analysis of Product Flexibility for Future Evolution Based on Design Guidelines and a High-Definition Design Structure Matrix'
p3503
sL677L
S'Product Modular Design Using Atomic Theory'
p3504
sL678L
S'Shape Commonalization to Develop Common Platform for Product Family'
p3505
sL679L
S'Product Platform Selection in Lower-Dimensional Manifold Spaces'
p3506
sL680L
S'Are We There Yet? Investigating the Role of Design Process Architecture in Convergence Time'
p3507
sL681L
S'A Context-Aware Information Model for Elderly Homecare Services in a Smart Home'
p3508
sL682L
S'A Strategic Platform Design Method for Developing Customized Families of Services'
p3509
sL683L
S'Optimization of Tool Handle Shape for a Target User Population'
p3510
sL684L
S'Requirement Analysis and Negotiation for Feasible Service Development'
p3511
sL685L
S'A Filter-Based Sample Average SQP for Optimization Problems With Highly Nonlinear Probabilistic Constraints'
p3512
sL686L
S'Probabilistic Analysis of Manufacturing Uncertainty in Turbine Blades'
p3513
sL687L
S'Variation Analysis of Position, Velocity, and Acceleration of Two-Dimensional Mechanisms by the Direct Linearization Method'
p3514
sL688L
S'Robustness of Residual Stresses in Castings and an Improved Process Window'
p3515
sL689L
S'Reliable Design Optimization Under Aleatory and Epistemic Uncertainties'
p3516
sL690L
S'Design for Lifecycle Cost Using Time-Dependent Reliability'
p3517
sL691L
S'Reliability-Based Design Optimization With Confidence Level Under Input Model Uncertainty'
p3518
sL692L
S'Comparison Study Between Probabilistic and Possibilistic Approach for Problems With Correlated Input and Lack of Input Statistical Information'
p3519
sL693L
S'A Simulation-Based RBDO Method Using Probabilistic Re-Analysis and a Trust Region Approach'
p3520
sL694L
S'Designing MEMS Disk Resonator Based Biological Mass Sensors Under Fabrication Uncertainty'
p3521
sL695L
S'Response Surface Method Using Sequential Sampling for Reliability-Based Design Optimization'
p3522
sL696L
S'Reliability-Based Design Optimization Using Enhanced Dimension Reduction Method With Variable Sampling Points'
p3523
sL697L
S'Improving Multi-Objective Robust Optimization Under Interval Uncertainty Using Worst Possible Point Constraint Cuts'
p3524
sL698L
S'A New Sparse Grid Based Method for Uncertainty Propagation'
p3525
sL699L
S'An Extended Hierarchical Statistical Sensitivity Analysis Method for Multilevel Systems With Shared Variables'
p3526
sL700L
S'A Hierarchical Model Validation of Predictive Models for Engineering Product Development'
p3527
sL701L
S'Adaptive-Sparse Polynomial Chaos Expansion for Reliability Analysis and Design of Complex Engineering Systems'
p3528
sL702L
S'A Modified Reliability Index Approach for Reliability-Based Design Optimization'
p3529
sL703L
S'Topology Optimization of Non-Linear Elastic Structures by Using SLP'
p3530
sL704L
S'Strain-Based Topology Optimization for Crashworthiness Using Hybrid Cellular Automata'
p3531
sL705L
S'Level Set-Based Topology Optimization Method for Thermal Problems Considering Design-Dependent Boundary Effects'
p3532
sL706L
S'Topology Optimization of Piezoelectric Energy Harvesting Strap Buckle'
p3533
sL707L
S'Level Set Based Robust Shape and Topology Optimization Under Random Field Uncertainties'
p3534
sL708L
S'Numerical Experiments in Using Voronoi Cell Finite Elements for Topology Optimization'
p3535
sL709L
S'Characterization and Performance Optimization of 2D Lattice Materials With Hexagonal Bravais Lattice Symmetry'
p3536
sL710L
S'Metrics-Based Approach for VR Technology Evaluation in Styling Product Design'
p3537
sL711L
S'Supporting Trade Space Exploration of Multi-Dimensional Data With Interactive Multi-Scale Nested Clustering and Aggregation'
p3538
sL712L
S'A Virtual Reality Interface for the Design of Compliant Mechanisms'
p3539
sL713L
S"A Preliminary Study of Novice and Expert Users' Decision-Making Procedures During Visual Trade Space Exploration"
p3540
sL714L
S'Development of a Haptic Modeling and Simulation System for Handheld Product Design and Evaluation'
p3541
sL715L
S'Automatically Generating Form Concepts According to Consumer Preference: A Shape Grammar Implementation With Software Agents'
p3542
sL716L
S'Evolutive Design of Car Silhouettes'
p3543
sL717L
S'Generative Design and CNC Fabrication Using Shape Grammars'
p3544
sL718L
S'Pultrusion Process Analysis Using Knowledge-Based System'
p3545
sL719L
S'Causal Design Knowledge Acquisition by Constructing BBN Through FCM'
p3546
sL720L
S'Rough Set-Based Design Rule Selection for Collaborative Assembly Design'
p3547
sL721L
S'Agent Based Variation Propagation for Collaborative Top-Down Assembly Design'
p3548
sL722L
S'Integrating Assembly Design, Sequence Optimization, and Advanced Path Planning'
p3549
sL723L
S'Assembly and Variety Considerations During Conceptual Design'
p3550
sL724L
S'A Review of Recent Phase Transition Simulation Methods: Transition Path Search'
p3551
sL725L
S'A Review of Recent Phase Transition Simulation Methods: Saddle Point Search'
p3552
sL726L
S'A Multiscale Design Approach With Random Field Representation of Material Uncertainty'
p3553
sL727L
S'Feature-Based Crystal Construction in Computer-Aided Nano-Design'
p3554
sL728L
S'An Approach to Automate Concept Generation of Sheet Metal Parts Based on Manufacturing Operations'
p3555
sL729L
S'Energy Characteristic State Model for Automated Conceptual Design of Hydraulic System'
p3556
sL730L
S'A Growth Design Approach for Tolerancing'
p3557
sL731L
S'Port-Based Ontology Modeling for Product Conceptual Design'
p3558
sL732L
S'Customizing Products Using Functional Component Matrices'
p3559
sL733L
S'Exploiting the Features of ISO GPS Standards to Enhance a Knowledge-Based Method for Product Redesign and Process Reconfiguration'
p3560
sL734L
S'Lagrangian Relaxation for Decentralized Decision Making in Engineering Design'
p3561
sL735L
S'Design Achievement Model for Planning Creative and Concurrent Design Process'
p3562
sL736L
S'Product Realization in the Age of Mass Collaboration'
p3563
sL737L
S'A Proposed Taxonomy for Physical Prototypes: Structure and Validation'
p3564
sL738L
S'An Effective Random Field Characterization for Probability Analysis and Design'
p3565
sL739L
S'Bayesian Reliability Analysis With Evolving, Insufficient, and Subjective Data Sets'
p3566
sL740L
S'Planning on Mistakes: An Approach to Incorporate Error Checking Into the Design Process'
p3567
sL741L
S'Development of a Probabilistic Model for Mechanistic Evaluation of Reliability of Oil Pipelines Subject to Corrosion-Fatigue Cracking'
p3568
sL743L
S'Relating Two Domains via a Third: An Approach to Overcome Ambiguous Attributions Using Multiple Domain Matrices'
p3569
sL744L
S'A Unified Framework for Decomposition of Design Structure Matrix and Domain Mapping Matrix'
p3570
sL745L
S'Towards Rules for Functional Composition'
p3571
sL746L
S'A Deterministic Lagrangian-Based Global Optimization Approach for Large Scale Decomposable Problems'
p3572
sL747L
S'A Structure-Based Approach to Measuring Adaptability of Product Design'
p3573
sL748L
S'Transformation Facilitators: A Quantitative Analysis of Reconfigurable Products and Their Characteristics'
p3574
sL749L
S'Towards Adaptable Architecture'
p3575
sL750L
S'Should Designers Worry About Market Systems?'
p3576
sL751L
S'A Pareto Approach to Aligning Public and Private Objectives in Vehicle Design'
p3577
sL752L
S'Optimal Product Design Under Price Competition'
p3578
sL753L
S'Multi-Category Design of Bundled Products for Retail Channels Considering Demand Uncertainty and Competition'
p3579
sL754L
S'Optimal Experimental Design of Human Appraisals for Modeling Consumer Preferences in Engineering Design'
p3580
sL756L
S"Elicitation and Modeling of Customers' Preferences in Industrial Design: A Comparative Study on Vehicle Front End"
p3581
sL757L
S'Choice Model Specification in Market-Based Engineering Design'
p3582
sL758L
S'Establishing Correspondence Between Value Functions Used in Market-Based Engineering Design'
p3583
sL759L
S'Fuzzy Controlled Hooke-Jeeves Optimization Search Algorithm'
p3584
sL760L
S'Evolutionary Multi-Agent Systems: An Adaptive Approach to Optimization in Dynamic Environments'
p3585
sL761L
S'Incorporating Twinkling in Genetic Algorithms for Global Optimization'
p3586
sL762L
S'Evaluating the Performance of Visual Steering Commands for User-Guided Pareto Frontier Sampling During Trade Space Exploration'
p3587
sL763L
S'Improving the Performance of Visual Steering Commands for Multi-Dimensional Trade Space Exploration'
p3588
sL764L
S'Finite Element Model Updating Approach to Damage Identification in Beams Using Particle Swarm Optimization'
p3589
sL765L
S'Enhanced Multi-Agent Normal Sampling Technique for Global Optimization'
p3590
sL766L
S'A Fast and Efficient Compact Packing Algorithm for Free-Form Objects'
p3591
sL767L
S'Analytical Robust Design of Mechanical Systems'
p3592
sL768L
S'Modeling Variability in Torso Shape for Chair and Seat Design'
p3593
sL769L
S'A General Approach to Robustness Assessment for Multidisciplinary Systems'
p3594
sL770L
S'Predicting 5th and 95th Percentile Anthropometric Segment Lengths From Population Stature'
p3595
sL771L
S'An Integrated Process Planning System Architecture for Machining and On-Machine Inspection'
p3596
sL772L
S'Direct 3D Layer Metal Deposition and Toolpath Generation'
p3597
sL773L
S'A Method and Software Prototype to Support On-Line Planning on CNC Machines'
p3598
sL774L
S'Locating Precision of Fit Datums'
p3599
sL775L
S'Identifying Feature Handles of Freeform Shapes'
p3600
sL777L
S'Contact Analysis Between a Moving Solid and the Boundary of Its Swept Volume'
p3601
sL779L
S'A Hybrid Models Deformation Tool for Free-Form Shapes Manipulation'
p3602
sL780L
S'Interval Extensions of Signed Distance Functions: Uniform Samplings and the Range of Associated Implicit Objects'
p3603
sL781L
S'Shape Optimization of a Camoid Follower Surface'
p3604
sL782L
S'Euclidean Symmetry Detection From Scanned Meshes Based on a Combination of ICP and Region Growing Algorithms'
p3605
sL784L
S'A Measure of the Information Loss for Inspection Point Reduction'
p3606
sL785L
S'A Comparison of Virtual Condition Cylinder Evaluation Methods in Coordinate Metrology'
p3607
sL786L
S'A Subdivision Scheme for Discrete Motion Generation and Swept Volume Analysis'
p3608
sL787L
S'Novel Design of a 3-DOF Parallel Manipulator for Materials Handling'
p3609
sL788L
S'Benefit Evaluation for Manufacturing of Marine Propellers'
p3610
sL789L
S'An Industrial Trial of a Set-Based Approach to Collaborative Design'
p3611
sL790L
S'A Finite Element Approach for the Implementation of Magnetostrictive Material Terfenol-D in CNG Fuel Injection Actuation'
p3612
sL791L
S'Parametric Modeling and Optimization of Chemical Vapor Deposition Process'
p3613
sL792L
S'Optimization Design of a Spatial Six-Degree-of-Freedom Parallel Manipulator Based on Genetic Algorithms and Neural Networks'
p3614
sL793L
S'Optimal Kinematics Design of an Industrial Robot Family'
p3615
sL794L
S'Topology and Dimensional Synthesis of Linkage Mechanism Based on the Constrained Superposition Method'
p3616
sL795L
S'Genetic Programming of an Artificial Neural Network for Robust Control of a 2-D Path Following Robot'
p3617
sL796L
S'Decision Support for Strategic Redesign'
p3618
sL797L
S'Designing Embodiment Design Processes Using a Value-of-Information-Based Approach With Applications for Integrated Product and Materials Design'
p3619
sL798L
S'Knowledge Management for Fault Tree Analysis Based on Quantity Dimension Indexing'
p3620
sL799L
S'Using Multiple Surrogates for Minimization of the RMS Error in Meta-Modeling'
p3621
sL800L
S'Optimization of Engine Torque Management Under Uncertainty for Vehicle Driveline Clunk Using Time-Dependent Metamodels'
p3622
sL801L
S'A Practical Robust and Efficient RBF Metamodel Method for Typical Engineering Problems'
p3623
sL802L
S'A Study of Covariance Functions for Multi-Response Metamodeling for Simulation-Based Design and Optimization'
p3624
sL803L
S'A Sequential Linearization Technique for Analytical Target Cascading'
p3625
sL804L
S'Parallel Implementation of Particle Swarm Optimization (PSO) Through Digital Pheromone Sharing'
p3626
sL805L
S'Consistency Constraint Allocation in Augmented Lagrangian Coordination'
p3627
sL806L
S'Enhanced Collaborative Optimization: A Decomposition-Based Method for Multidisciplinary Design'
p3628
sL807L
S'Multiobjective Optimization Method for Lifecycle Design of Machine Products'
p3629
sL808L
S'Fundamental Strategies for System Optimization of Machine Product Designs'
p3630
sL809L
S'Multi-Objective Optimization of Product Configuration'
p3631
sL810L
S'Plug-In Hybrid Vehicle Simulation: How Battery Weight and Charging Patterns Impact Cost, Fuel Consumption, and CO2 Emissions'
p3632
sL811L
S'Heat Compensation in Buildings Using Thermoelectric Windows: An Energy Efficient Window Technology'
p3633
sL812L
S'The Application of Product Platform Design to the Reuse of Electronic Components Subject to Long-Term Supply Chain Disruptions'
p3634
sL813L
S'Product Family Commonality Selection Through Interactive Visualization'
p3635
sL814L
S'Assessing Functional and Shape Differentiation Within a Family of Products'
p3636
sL815L
S'Product Family Design: Strategic Principles to Choose Between Product-Driven and Platform-Driven Processes'
p3637
sL816L
S'Improving Cost Effectiveness in an Existing Product Line Using Component Product Platforms'
p3638
sL817L
S'Focused Product Family Improvement'
p3639
sL818L
S'A Strategic Module-Based Platform Design Method for Developing Customized Products in Dynamic and Uncertain Market Environments'
p3640
sL819L
S'Functional Part Families and Design Change for Mechanical Assemblies'
p3641
sL820L
S'Optimal Design of Product Family Throughout Commonalization, Customization and Lineup Arrangement'
p3642
sL821L
S'An Efficient Re-Analysis Methodology for Probabilistic Vibration of Large-Scale Structures'
p3643
sL822L
S'Uncertainty Analysis of Damage Evolution Computed Through Microstructure-Property Relations'
p3644
sL823L
S'Reliability-Based Shape Optimization of a Pressure Tank Under Random and Stochastic Environments'
p3645
sL824L
S'Sensitivity Analyses of FORM-Based and DRM-Based Performance Measure Approach for Reliability-Based Design Optimization'
p3646
sL825L
S'Selection of Copula to Generate Input Joint CDF for RBDO'
p3647
sL826L
S'Topology Optimization for Steady-State Heat Transfer Problems Including Design-Dependent Effects'
p3648
sL828L
S'Topology Optimization of Multiple Parts in Dynamic Controlled Systems'
p3649
sL829L
S'An Improved Initial Population Strategy for Compliant Mechanism Designs Using Evolutionary Optimization'
p3650
sL830L
S'On Pattern Recognition in Rule-Based Topology Modification'
p3651
sL831L
S'Topology Optimization of a MEMS Resonator Using Hybrid Fuzzy Techniques'
p3652
sL832L
S'Topology Optimization of Poroelastic Structures to Minimize Mean Sound Pressure Levels'
p3653
sL833L
S'Design of Compliant Thermal Actuators Using Structural Optimization Based on the Level Set Method'
p3654
sL834L
S'Design Automation Tools as a Support for Knowledge Management in Topology Optimization'
p3655
sL836L
S'Topology Synthesis of Multi-Component Structural Assemblies in Continuum Domains'
p3656
sL837L
S'Layer Separation for Optimization of Composite Laminates'
p3657
sL838L
S'Model Validation and Error Modeling to Support Sequential Sampling'
p3658
sL839L
S'Regression Modeling for Computer Model Validation With Functional Responses'
p3659
sL840L
S'A Comprehensive Metric for Comparing Time Histories in Validation of Simulation Models With Emphasis on Vehicle Safety Applications'
p3660
sL841L
S'Overlapped Grouping Genetic Algorithm for Optimization of Reels Cutting Planning Problems'
p3661
sL842L
S'A Perspective of Hierarchical Layout Design Optimization for Highly Packaged Equipments'
p3662
sL843L
S'A Genetic Algorithm Based Procedure for Extracting Optimal Solutions From a Morphological Chart'
p3663
sL845L
S'A Variable Fidelity Model Management Framework for Multiscale Computational Design of Continuous Fiber SiC-Si3N4 Ceramic Composites'
p3664
sL846L
S'Topology Optimization for Synthesizing Extrusion Based Nonlinear Transient Designs'
p3665
sL847L
S'An Intelligent and Efficient Tree Search Algorithm for Computer-Aided Component Selection'
p3666
sL848L
S'A Graph Grammar Approach to Generate Neural Network Topologies'
p3667
sL849L
S'A Learning Algorithm for Optimal Internal Combustion Engine Calibration in Real Time'
p3668
sL850L
S'A Simplified Systematic Method of Acquiring Design Specifications From Customer Requirements'
p3669
sL851L
S'Towards a Reference Ontology for Functional Knowledge Interoperability'
p3670
sL852L
S'Fuzzy Analytical Hierarchy Process-Based Assembly Unit Partition for Complex Products'
p3671
sL853L
S'PDM Implementation in Indian Industries: An Impact Study on Technology Adoption'
p3672
sL854L
S'A Framework for Collaborative Top-Down Assembly Design'
p3673
sL855L
S'A Design Strategy for Collaborative Decision Making in a Distributed Environment'
p3674
sL856L
S'An Approach to Improved Decentralized Design: The Modified Approximation-Based Decentralized Design (MADD) Framework'
p3675
sL857L
S'Design Optimization of a Laptop Computer Using Aggregate and Mixed Logit Demand Models With Consumer Survey Data'
p3676
sL858L
S'A Game-Theoretic Approach to Finding Market Equilibria for Automotive Design Under Environmental Regulation'
p3677
sL859L
S'Measurement of Headlight Form Preference Using a Choice Based Conjoint Analysis'
p3678
sL860L
S'Conjoint-HoQ: A Quantitative Methodology for Consumer-Driven Design'
p3679
sL861L
S'Preference Inconsistency in Multidisciplinary Design Decision Making'
p3680
sL862L
S'Theoretical Design and Control Analysis of Reconfigurable Parallel Kinematic Machine Tools'
p3681
sL863L
S'Design for Product Adaptability'
p3682
sL864L
S'Flexible and Reconfigurable Systems: Nomenclature and Review'
p3683
sL865L
S'Adaptive Complex Method for Efficient Design Optimization'
p3684
sL866L
S'Approximated Unimodal Region Elimination Based Global Optimization Method for Engineering Design'
p3685
sL867L
S'Bayesian Analysis of Adaptive One-Factor-at-a-Time Experimentation'
p3686
sL868L
S'Multi Agent Normal Sampling Technique (MANST) for Global Optimization'
p3687
sL869L
S'Non-Dominated Sorting Genetic Quantum Algorithm for Multi-Objective Optimization'
p3688
sL870L
S'Optimization of a Vehicle Space Frame Under Ballistic Impact Loading'
p3689
sL871L
S'Optimization of Bicycle Frames Using Genetic Algorithms'
p3690
sL872L
S'Generalization of Topological Sensitivity and Its Application to Defeaturing'
p3691
sL873L
S'A Hybrid Method for Surrogate Model Updating in Engineering Design Optimization'
p3692
sL874L
S'Pseudo-Hierarchical Multistage Model for System of Systems Design and Operations'
p3693
sL875L
S'Finite Element Analysis Applied to Ergonomic Design of 2-Piece Aluminum Beverage Cans and Bottles'
p3694
sL876L
S'Including Preference in Anthropometry-Driven Models for Design'
p3695
sL877L
S'Evaluation Method of Drinking Ease for Aluminum Beverage Bottles'
p3696
sL878L
S'Adaptive Deposition Coverage Toolpath Planning for Metal Deposition Process'
p3697
sL879L
S'Automated Synthesis of MEMS Fabrication Sequences Using Graph Grammars'
p3698
sL880L
S'Adaptive Slicing of Moving Least Squares Surfaces: Toward Direct Manufacturing of Point Set Surfaces'
p3699
sL881L
S'Product Reverse Engineering Based on Growth Design Process'
p3700
sL882L
S'High Performance Dirichlet Parametrization Through Triangular Bezier Surface Interpolation for Deformation of CAE Meshes'
p3701
sL883L
S'Curve Shape Modification and Fairness Evaluation'
p3702
sL884L
S'Application of Interactive Deformation to Assembled Mesh Models for CAE Analysis'
p3703
sL885L
S'Pre-Programmed Failure Behavior Using Biology-Inspired Structures'
p3704
sL886L
S'Finding All Undercut-Free Parting Directions for Solids of Revolution'
p3705
sL887L
S'Wavelet SDF-Reps: Solid Modeling With Volumetric Scans'
p3706
sL888L
S'Matching Geometric Shapes in 4D Space Incorporating Curvature Information'
p3707
sL889L
S'Motion-Based Shape Deformation of Solid Models'
p3708
sL890L
S'A Point Membership Classification for Sweeping Solids'
p3709
sL891L
S'Quasi-Optimal Mesh Segmentation Via Region Growing/Merging'
p3710
sL892L
S'Development of Validation Metrics for Vehicle Frontal Impact Simulation'
p3711
sL894L
S'A Development Methodology for Parametric Synthesis Tools'
p3712
sL895L
S'Incorporating Customer Preferences and Market Trends in Vehicle Package Design'
p3713
sL896L
S'A Case Study of Design Process and Development of a Design Enabling Tool for Wright Metal Products'
p3714
sL897L
S'A Process Model and Data Mining to Support Designing Families of Services'
p3715
sL898L
S'Quantity Dimension Indexing for Design Knowledge Management'
p3716
sL899L
S'Representation and Analysis Challenges in Design for Part-Reuse: An Automotive Case Study'
p3717
sL900L
S'Empirical Models for Non-Deterministic Simulation-Based Robust Design'
p3718
sL901L
S'Managing Design Process Complexity: A Value-of-Information Based Approach for Scale and Decision Decoupling'
p3719
sL902L
S'Q2S2: Merging Qualitative Information in Sequential DOE'
p3720
sL903L
S'Using Maximum Likelihood Estimation to Estimate Kriging Model Parameters'
p3721
sL904L
S'Reducing the Number of Variables in a Response Surface Approximation: Application to Thermal Design'
p3722
sL905L
S'Reduction of Non-Monomial Basis in the Dimensional Analysis of a Dynamical System'
p3723
sL906L
S'A New Variable Fidelity Optimization Framework Based on Model Fusion and Objective-Oriented Sequential Sampling'
p3724
sL907L
S'Optimal Partitioning and Coordination Decisions in Decomposition-Based Design Optimization'
p3725
sL908L
S'Multiobjective Collaborative Robust Optimization (McRO) With Interval Uncertainty and Interdisciplinary Uncertainty Propagation'
p3726
sL909L
S'Integrated Structure Decomposition, Optimization and Control Design'
p3727
sL910L
S'A Sequential Linear Programming Coordination Algorithm for Analytical Target Cascading'
p3728
sL911L
S'Diagonal Quadratic Approximation for Parallelization of Analytical Target Cascading'
p3729
sL912L
S'A Concept for a Material That Softens With Frequency'
p3730
sL913L
S'A Template-Based Approach for Multilevel Blast Resistant Panel Design'
p3731
sL914L
S'Predictive Carbon Nanotube Models Using the Eigenvector Dimension Reduction (EDR) Method'
p3732
sL915L
S'A Function-Based Approach for Integrated Design of Material and Product Concepts'
p3733
sL916L
S'A Dual Environment for 3D Modeling With User-Defined Free Form Features'
p3734
sL917L
S'Reverse Engineering of Geometric Surfaces Using Tabu Search Optimization Technique'
p3735
sL918L
S'Correspondences Matching on 3D Mesh Models'
p3736
sL919L
S'Procedural Design of Imprint Rolls for Fluid Pathway Fabrication'
p3737
sL920L
S'OAM+: An Assembly Data Model for Legacy Systems Engineering'
p3738
sL921L
S'Robust Product Design Optimization Method Using Hierarchical Representations of Characteristics'
p3739
sL922L
S'An Optimal Design Method for Reducing Brake Squeal in Disc Brake Systems'
p3740
sL923L
S'Cycle-Based Robot Drive Train Optimization Utilizing SVD Analysis'
p3741
sL924L
S'A Component Based Optimization Approach for Modular Robot Design'
p3742
sL925L
S'A Method for Benchmarking Product Family Design Alternatives'
p3743
sL926L
S'Recommending a Platform Leveraging Strategy Based on the Homogeneous or Heterogeneous Nature of a Product Line'
p3744
sL927L
S'Three Dimensional Design Structure Matrix With Cross-Module and Cross-Interface Analyses'
p3745
sL928L
S'A Product Platform Development Method Using QFD'
p3746
sL929L
S'A Customer-Driven Approach to One-of-a-Kind Product Design'
p3747
sL930L
S'Product Family Concept Generation and Validation Through Predictive Decision Tree Data Mining and Multi-Level Optimization'
p3748
sL931L
S'Robust Product Family Consolidation and Selection Using the Hypothetical Equivalents and Inequivalents Method'
p3749
sL932L
S'An Extension of the Commonality Index for Product Family Optimization'
p3750
sL933L
S'A Single-Stage Gradient-Based Approach for Solving the Joint Product Family Platform Selection and Design Problem Using Decomposition'
p3751
sL934L
S'An Investigation of the Impact of Assembly Sequencing on the Product Family Design Outcomes'
p3752
sL935L
S'Switchgear Component Commonality Design Method Considering Delivery Lead-Time and Inventory Level'
p3753
sL936L
S'Process Platform Formation for Product Families'
p3754
sL937L
S'Application of Product Platform Design for Engineered System'
p3755
sL938L
S'A Framework for Designing Balanced Product Platforms by Estimating Versatility of Components'
p3756
sL939L
S'Function Block Design to Enable Adaptive Job Shop Operations'
p3757
sL940L
S'Improving Confidence in Simulation-Based Design Through Error Functions'
p3758
sL941L
S'Interval Reliability Analysis'
p3759
sL942L
S'Evidence Theory-Based Reliability Analysis and Optimization in Engineering Design'
p3760
sL943L
S'Reliability Estimation for Time-Dependent Problems Using a Niching Genetic Algorithm'
p3761
sL944L
S'A Monte Carlo Reliability Assessment for Multiple Failure Region Problems Using Approximate Metamodels'
p3762
sL945L
S'Supervised Bayesian Models to Carry Out Kansei Engineering of Car Dashbaords'
p3763
sL946L
S'A New Inverse Reliability Analysis Method Using MPP-Based Dimension Reduction Method (DRM)'
p3764
sL947L
S'Reliability Based Design Optimization With Correlated Input Variables Using Copulas'
p3765
sL948L
S'Robust Design Concept in Possibility Theory and Optimization for System With Both Random and Fuzzy Input Variables'
p3766
sL949L
S'Updating Uncertainty Assessments: A Comparison of Statistical Approaches'
p3767
sL950L
S'Decision Making and Constraint Tradeoff Visualization for Design Under Uncertainty'
p3768
sL951L
S'Conservative Estimations of Reliability With Limited Sampling'
p3769
sL952L
S'Reliable Space Pursuing for RBDO With Black-Box Performance Functions'
p3770
sL953L
S'Bayesian Reliability Based Design Optimization Using Eigenvector Dimension Reduction (EDR) Method'
p3771
sL954L
S'A Hierarchical Statistical Sensitivity Analysis Method for Complex Engineering Systems'
p3772
sL955L
S'A Comparative Study of Uncertainty Propagation Methods for Black-Box Type Functions'
p3773
sL956L
S'Complementary Interaction Method (CIM) for System Reliability Analysis'
p3774
sL957L
S'Innovative Six Sigma Design Using the Eigenvector Dimension-Reduction (EDR) Method'
p3775
sL958L
S'Sensitivity-Free Approach for Reliability-Based Robust Design Optimization'
p3776
sL960L
S'Differential Evolution Applied to the Design of a Three-Dimensional Vehicular Structure'
p3777
sL961L
S'On Optimization of 2D Compliant Mechanisms Using Honeycomb Discretization With Material-Mask Overlay Strategy'
p3778
sL962L
S'Design of Piezoelectric Actuator With In-Plane Motion Using Topology Optimization'
p3779
sL963L
S'Indirect Encoding of Structures for Evolutionary Design'
p3780
sL964L
S'Interactive Mesh-Free Stress Analysis for Mechanical Design Assembly With Haptics'
p3781
sL965L
S'Visual Steering Commands for Trade Space Exploration: User-Guided Sampling With Example'
p3782
sL966L
S'Virtual Reality Systems: A Method to Evaluate the Applicability Based on the Design Context'
p3783
sL967L
S'Representing Historically Based Component-Function Relationships Through Design Templates'
p3784
sL968L
S'Immersive Product Configurator for Conceptual Design'
p3785
sL969L
S'Pattern-Based Reasoning in Critical Parameter Management (CPM) for Rapid Redesign'
p3786
sL970L
S'Topological Synthesis of Shell Structures'
p3787
sL971L
S'Growth Design Modeling'
p3788
sL972L
S'Fuzzy Preference Evaluation for Hierarchical Co-Evolutionary Design Concept Generation'
p3789
sL973L
S'Application of a Genetic Algorithm to Concept Variant Selection'
p3790
sL974L
S'A Hybrid Method for Parametric Conceptual Vehicle Design Using Legacy Components and Parametric Surfaces'
p3791
sL975L
S'Exploiting Shape Similarity in Engineering Analysis'
p3792
sL976L
S'Issues of Similarity in Engineering Design'
p3793
sL977L
S'Enabling Local Risk Assessment to Support Global Collaboration in a Distributed Environment'
p3794
sL978L
S'Enhanced Convergence in Distributed Design Processes'
p3795
sL979L
S'Investigating Different Approaches for Front-Loading Problem Solving in Product Development: Evidence From Engine Engineering'
p3796
sL980L
S'Case Study Instrument Development for Studying Collaborative Design'
p3797
sL981L
S'Topology and Classical Shape Optimization of a Lower Control Arm: A Case Study'
p3798
sL982L
S'Improved Head Restraint Design for Safety and Compliance'
p3799
sL983L
S'An Efficient Algorithm for Vehicle Crashworthiness Design Via Crash Mode Matching'
p3800
sL984L
S'Crashworthiness Design Using a Hybrid Cellular Automaton Algorithm'
p3801
sL985L
S'Preliminary Results on Generating Assembly Sequences for Shape Display'
p3802
sL986L
S'Process Planning Support System Considering Product Quality'
p3803
sL987L
S'Optimum Disassembly Process With Genetic Algorithms for a Compressor'
p3804
sL988L
S'Multiobjective Optimization for Integrated Tolerance Allocation and Fixture Layout Design in Multistation Assembly'
p3805
sL989L
S'Visibility for Determining the Rotational Axis CNC Rapid Prototyping and Rapid Manufacturing'
p3806
sL990L
S'Stereolithography Mock-Up With Internal Camera for Automatic Usability Data Acquisition and Functional Simulation'
p3807
sL991L
S'Determine Mesh Orientation by Voxel-Based Principal Component Analysis'
p3808
sL992L
S'Introducing Hierarchical Particle Swarm Optimization to Optimal Part Orientation in Fused Deposition Modeling'
p3809
sL993L
S'High Accuracy Laser Scanned View Registration Method for Reverse Engineering Using a CMM Generated CAD Model'
p3810
sL994L
S'Using Tolerance-Maps to Generate Frequency Distributions of Clearance for Pin-Hole Assemblies'
p3811
sL995L
S'Semantic Tolerance Modeling'
p3812
sL996L
S'Geometric Construction of Piecewise Line-Symmetric Spherical Motions Using Quaternion Biarcs'
p3813
sL997L
S'Aeronautical Planar Flank Milling Automation: Computing the G-Zones'
p3814
sL998L
S'Aerodynamic Shape Optimization and Knowledge Mining of Centrifugal Fans Using Simulated Annealing Coupled With a Neural Network'
p3815
sL999L
S'Optimal Tolerance Allocation of Automotive Pneumatic Control Valves Based on Product and Process Simulations'
p3816
sL1000L
S'Optimization of Chemical Vapor Deposition Process'
p3817
sL1001L
S'Data Mining and Fuzzy Clustering to Support Product Family Design'
p3818
sL1002L
S'Knowledge Model for Managing Product Variety and Its Reflective Design Process'
p3819
sL1003L
S'Design Information Support Tool (DIST): Its Development and Effectiveness Investigation'
p3820
sL1004L
S'Automating Redesign of Sheet-Metal Parts in Automotive Industry Using KBE and CBR'
p3821
sL1005L
S'Verve: A General Purpose Open Source Reinforcement Learning Toolkit'
p3822
sL1006L
S'Augmenting Tools for Reverse Engineering Methods'
p3823
sL1007L
S'Qualitative and Quantitative Sequential Sampling'
p3824
sL1008L
S'On Adaptive Sampling for Single and Multi-Response Bayesian Surrogate Models'
p3825
sL1009L
S'A Kriging Metamodel Assisted Multi-Objective Genetic Algorithm for Design Optimization'
p3826
sL1010L
S'Review of Metamodeling Techniques in Support of Engineering Design Optimization'
p3827
sL1012L
S'An Improved Genetic Algorithm for the Optimization of Composite Structures'
p3828
sL1013L
S'Surrogate Model Updating Using Clustering in a Genetic Algorithm Setup'
p3829
sL1014L
S'Exploration in the Preliminary Mechanical Design of Trade-Offs Between Automotive Architectural Constraints and Aggregate Noise Performances'
p3830
sL1015L
S'Heterogeneous Design Optimization From the Microstructure'
p3831
sL1016L
S'Parametric Structural Shape and Topology Optimization Method With Radial Basis Functions and Level-Set Method'
p3832
sL1017L
S'FEA-Based Design of Heterogeneous Objects'
p3833
sL1018L
S'Material Property Identification and Sensitivity Analysis Using Indentation and FEM'
p3834
sL1019L
S'Topology Optimization of Micromachined Structures With Surface Micromachining Manufacturing Constraints'
p3835
sL1020L
S'Multifunctional Topology Design of Cellular Material Structures'
p3836
sL1021L
S'Designing Design Processes for Integrated Materials and Products Realization: A Multifunctional Energetic Structural Material Example'
p3837
sL1022L
S'Exploring the Advantages of Materials Design in a Product Design Process'
p3838
sL1023L
S'Free-Form Feature Representation and Comparison'
p3839
sL1024L
S'Parametric Solid Modeling'
p3840
sL1025L
S'Poisson Based Reuse of Freeform Features'
p3841
sL1026L
S'Parametric and Topological Control in Shape Optimization'
p3842
sL1027L
S'Topology Synthesis and Classification of Low-Mobility Parallel Mechanisms'
p3843
sL1028L
S'Coupling Degree of Mechanism and Its Application'
p3844
sL1029L
S'A Survey of Various Encoding Schemes and Associated Placement Algorithms Applied to Packing and Layout Problems'
p3845
sL1030L
S'Vehicle Component Layout With Shape Morphing: An Initial Study'
p3846
sL1031L
S'Simultaneous Geometry Optimization and Material Selection for Truss Structures'
p3847
sL1032L
S'A Two-Stage Design Method for Compliant Mechanisms Having Specified Non-Linear Output Paths'
p3848
sL1033L
S'A Multicriteria System-Based Method for Simulation-Driven Design Synthesis'
p3849
sL1034L
S'Design and Verification of a New Computer Controlled Seating Buck'
p3850
sL1035L
S'An Efficient Method for Detecting Packaging Supporting Space'
p3851
sL1036L
S'Topology Optimization Considering Gravitational and Centrifugal Forces'
p3852
sL1037L
S'BB-ATC: Analytical Target Cascading Using Branch and Bound for Mixed-Integer Nonlinear Programming'
p3853
sL1038L
S'Applying the Mahalanobis-Taguchi System to Vehicle Handling'
p3854
sL1039L
S'Model-Based Decomposition Using Non-Binary Dependency Analysis and Heuristic Partitioning Analysis'
p3855
sL1040L
S'Product Optimization Incorporating Discrete Design Variables Based on Decomposition of Performance Characteristics'
p3856
sL1041L
S'Development of Distributed Computing Framework for Parallel Multi-Disciplinary Optimization'
p3857
sL1042L
S'Ontologies for Supporting Engineering Design Optimization'
p3858
sL1043L
S'Two-Stage System of Systems Model by Linking System Design With Resource Allocation'
p3859
sL1044L
S'Optimization of a PEM Fuel Cell System for Low-Speed Hybrid Electric Vehicles'
p3860
sL1045L
S"A Multidisciplinary and Multiobjective System Analysis and Optimization Methodology for Embedding Integrated Systems Health Management (ISHM) Into NASA's Complex Systems"
p3861
sL1046L
S'Flexible Product Platforms: Framework and Case Study'
p3862
sL1048L
S'Platform-Based Design and Development: Current Trends and Needs in Industry'
p3863
sL1049L
S'Two Methodologies for Identifying Product Platform Elements Within an Existing Set of Products'
p3864
sL1050L
S'A Comprehensive Metric for Evaluating Component Commonality in a Product Family'
p3865
sL1052L
S'Towards a Suite of Problems for Comparison of Product Platform Design Methods: A Proposed Classification'
p3866
sL1053L
S'Selection-Integrated Optimization (SIO) Methodology for Optimal Design of Adaptive Systems'
p3867
sL1054L
S'A Method to Improve Platform Leveraging in a Market Segmentation Grid for an Existing Product Line'
p3868
sL1055L
S'An Enhanced Change Modes and Effects Analysis (CMEA) Tool for Measuring Product Flexibility With Applications to Consumer Products'
p3869
sL1056L
S'Determination of Ranged Sets of Design Specifications by Incorporating Heterogeneous Design Capability Information'
p3870
sL1057L
S'Assessing and Improving Commonality and Diversity Within a Product Family'
p3871
sL1058L
S'Assessing and Increasing Product and Family Differentiation in the Market'
p3872
sL1059L
S'Module Interface Representation'
p3873
sL1060L
S'Product Platform Problem Taxonomy: Classification and Identification of Benchmark Problems'
p3874
sL1061L
S'Adapted Concept Generation and Computational Techniques for the Application of a Transformer Design Theory'
p3875
sL1062L
S'2-D Deposition Pattern and Strategy Study on Rapid Manufacturing'
p3876
sL1063L
S'Ruled Layer Generation Between Two Freeform Curves by Normal and Distance Matching'
p3877
sL1064L
S'Spiral-Like Path Planning Without Gap for Material Deposition Processes'
p3878
sL1065L
S'Fast Layered Manufacturing Support Volume Computation on GPUs'
p3879
sL1066L
S'A Sensitivity Analysis of Shot Peening Parameters'
p3880
sL1067L
S'Reliability-Based Design Using Saddlepoint Approximation'
p3881
sL1068L
S'Uncertainty Analysis With Probability and Evidence Theories'
p3882
sL1069L
S'Engineering Product Design Optimization for Retail Channel Acceptance'
p3883
sL1070L
S'A Comparison of Probability Bounds Analysis and Sensitivity Analysis in Environmentally Benign Design and Manufacture'
p3884
sL1071L
S'A Sequential Algorithm for Possibility-Based Design Optimization'
p3885
sL1072L
S'Numerical Methods for Propagating Imprecise Uncertainty'
p3886
sL1073L
S'A Single-Loop Approach for System Reliability-Based Design Optimization'
p3887
sL1074L
S'Robust Design of Compressor Blades Against Manufacturing Variations'
p3888
sL1075L
S'The Risk in Early Design (RED) Method: Likelihood and Consequence Formulations'
p3889
sL1076L
S'Optimal Design With Non-Normally Distributed Random Parameters, Conditional Probability, and Joint Constraint Reliabilities: A Case Study in Vehicle Emissions Regulations to Achieve Ambient Air Quality Standards'
p3890
sL1077L
S'Simulation Model Refinement for Decision Making Via a Value-of-Information Based Metric'
p3891
sL1078L
S'A Bayesian Approach to Reliability-Based Optimization With Incomplete Information'
p3892
sL1079L
S'Modeling Implications in Simulation-Based Design of Stents'
p3893
sL1080L
S'Understanding the Effects of Model Uncertainty in Robust Design With Computer Experiments'
p3894
sL1081L
S'A Function-Based Methodology for Analyzing Critical Events'
p3895
sL1082L
S'Some Metrics and a Bayesian Procedure for Validating Predictive Models in Engineering Design'
p3896
sL1083L
S'Multi-Disciplinary Conceptual Modeling and Optimization With Uncertainty Effects Consideration'
p3897
sL1084L
S'An Inverse Analysis Method for Design Optimization With Both Statistical and Fuzzy Uncertainties'
p3898
sL1085L
S'Alternative Methods for Reliability-Based Robust Design Optimization Including Dimension Reduction Method'
p3899
sL1086L
S'INSIDES: A New Design and Simulation Platform for Virtual Prototyping in Automotive and Aerospace Industry'
p3900
sL1087L
S'Development of Evaluation System for Style Design Using Mixed Reality Technology'
p3901
sL1088L
S'A Graphical Modeling Environment for Configuring Modular Product Families and Platforms'
p3902
sL1089L
S'Visual Representations as an Aid to Concept Generation'
p3903
sL1090L
S'Style Design Method Based on Form Impressions'
p3904
sL1091L
S'Automated Concept Generation: A Co-Evolutionary Approach'
p3905
sL1092L
S'Knowledge Sharing Between Designers and Accidentologists for the Development of Road Safety Systems'
p3906
sL1093L
S'A Method for Inferring Design Rules With Explicit Bounds of Applicability'
p3907
sL1094L
S'Using Q-Learning and Genetic Algorithms to Improve the Efficiency of Weight Adjustments for Optimal Control and Design Problems'
p3908
sL1095L
S'A Web-Enabled Engineering Object Modeling Environment to Support Interoperability and Intelligent Services in Collaborative Design'
p3909
sL1096L
S'Handling Multiple Objectives in Decentralized Design'
p3910
sL1097L
S'Facilitating Collaborative Design: A Review on Design Representations and Workstations'
p3911
sL1098L
S'Acquisition of Product Design Guidelines Considering User Kansei Data Pertaining to Product Environments'
p3912
sL1099L
S'Computational Methods Applied to Modelica Simulation Models in a Web Based Framework'
p3913
sL1100L
S'Evaluation of Modular Design Concepts of Complex Mechatronic Systems'
p3914
sL1101L
S'Modeling of Evolutionary Design Database'
p3915
sL1102L
S'On Performance Enhancement of Parallel Kinematic Machine'
p3916
sL1103L
S'An Information Theoretical Perspective on Performance, Refinement and Cost'
p3917
sL1104L
S'A Graph-Based Method for Mechanical Product Family Modeling and Functional Tolerancing'
p3918
sL1105L
S'A Cost Based Methodology for Design Optimization'
p3919
sL1106L
S'Can a House Without a Foundation Support Design?'
p3920
sL1107L
S'A Decision Support Formulation for Design Teams: A Study in Preference Aggregation and Handling Unequal Group Members'
p3921
sL1108L
S'Manufacturing Investment and Allocation in Product Line Design Decision-Making'
p3922
sL1109L
S'An Optimization Based Methodology to Design Flexible Systems Subjected to Changing Operating Conditions'
p3923
sL1110L
S'A Conceptual Design Tool With Error Warning'
p3924
sL1111L
S'Analyzing Accidents of Jamming Body Parts in Doors'
p3925
sL1112L
S'Organizational Applications of Failure Knowledge Management'
p3926
sL1113L
S'Development of a Robust Design Process Using a New Robustness Index'
p3927
sL1114L
S'On Providing Formal Manufacturability Information to Upstream Product Development Processes: Methodology and Case Study'
p3928
sL1115L
S'Modeling of Non-Linear Relations Among Different Design Evaluation Measures for Multi-Objective Design Optimization'
p3929
sL1116L
S'On the Impact of Coupling Strength on Complex System Optimization for Single-Level Formulations'
p3930
sL1117L
S'Feasibility Assessment in Preliminary Design Using Pareto Sets'
p3931
sL1118L
S'PSO Driven Genetic Range Genetic Algorithms'
p3932
sL1119L
S'Methods for Discrete Design Optimization'
p3933
sL1120L
S'Design Optimization by Integration of Evolutionary Search and Cumulative Approximation'
p3934
sL1121L
S'Twinkling a Random Search Algorithm for Design Optimization'
p3935
sL1122L
S'Pipe Route Design Using Variable Topography Distance Transforms'
p3936
sL1123L
S'Heuristic Gradient Projection for 3D Space Frame Optimization'
p3937
sL1124L
S'Fuzzy Heuristic Gradient Projection for Frame Topology Optimization'
p3938
sL1125L
S'Faster Generation of Feasible Design Points'
p3939
sL1126L
S'Methodology to Reach Optimal Design of CHP Plants'
p3940
sL1127L
S'A Comparison of Optimized Stacked-Ply Flywheel Designs That Are Based on Different Failure Criteria'
p3941
sL1128L
S'Roles and Observations of a Graduate Design Coach'
p3942
sL1129L
S'Low Cost Demonstrator as a Mean for Rapid Product Realization With an Electric Motorcycle Application'
p3943
sL1130L
S'Synthesis of Structural Symmetry Driven by Cost Savings'
p3944
sL1131L
S'An Interval-Based Focalization Method for Decision-Making in Decentralized, Multi-Functional Design'
p3945
sL1132L
S'A Parallel Grammar for Simulation-Driven Mechanical Design Synthesis'
p3946
sL1133L
S'A Study of Factor Effects in Data From Factorial Experiments'
p3947
sL1134L
S'Geometric Surface Features Applied to Volumetric CAE Mesh Models'
p3948
sL1135L
S'A CAD-Integrated System for Automated Idealization of CAD-Models for Finite Element Analysis'
p3949
sL1136L
S'A Method for Integrating Form Errors Into Geometric Tolerance Analysis'
p3950
sL1137L
S'Shape Recovery From Medical Image Data Using Extended Superquadrics'
p3951
sL1138L
S'Insertion of Planar Areas Into Free-Form Surfaces in Early Product Design'
p3952
sL1139L
S'Tolerance-Maps Applied to a Point-Line Cluster of Features'
p3953
sL1140L
S'Allocating Tolerances Statistically With Tolerance-Maps and Beta Distributions: The Target a Planar Face'
p3954
sL1141L
S'Design for Product-Embedded Disassembly'
p3955
sL1142L
S'Filleting and Rounding Using a Point-Based Method'
p3956
sL1143L
S'Recognition of Interacting Turning Features for Mill/Turn Parts'
p3957
sL1144L
S'A Packing Genetic Algorithm for Configuration Design'
p3958
sL1145L
S'Polygon Offsetting by Computing Winding Numbers'
p3959
sL1146L
S'Mesh Processing for Computerized Anthropometry'
p3960
sL1147L
S'A Complete Variation Algorithm for Slot and Tab Features for 3D Simulation-Based Tolerance Analysis'
p3961
sL1148L
S'On Tolerance Information Extraction of Feature Model in Automotive Engine CAPP System'
p3962
sL1149L
S'Hole-Making on a Bent Thick Plate'
p3963
sL1150L
S'Design and Experimental Research of Magneto-Rheological Fluid Fan Clutch'
p3964
sL1151L
S'Continuum-Based Design Sensitivity Analysis and Optimization of Springback in Stamping Process'
p3965
sL1152L
S'Design of an Automobile Seat With Regulations Using Axiomatic Design'
p3966
sL1153L
S'Design Optimization of Continuous Caster Refractory Components'
p3967
sL1155L
S'Methodology for Market Analysis of CHP Systems'
p3968
sL1156L
S'Integrating a Vision System With a Coordinate Measuring Machine to Automate the Datum Alignment Process'
p3969
sL1157L
S'A Study on the Feed Rate Optimization of a Ball Screw Feed Drive System for Minimum Vibrations'
p3970
sL1158L
S'Occupant Restraint System Design Under Uncertainty Using Analytical Uncertainty Propagation Via Metamodels'
p3971
sL1159L
S'Packing Optimization by Enhanced Rubber Band Analogy'
p3972
sL1160L
S'Automating Error Attenuation of Cutting Tools Using Smart Material'
p3973
sL1161L
S'Knowledge Based Design Method for Fibre Metal Laminate Fuselage Panels'
p3974
sL1162L
S'A Unified Information Model for Product Family Design Management'
p3975
sL1163L
S'Analysis of Information Complexity During Product Development'
p3976
sL1164L
S'Integrated Feature Modeller for Certain Manufacturing Processes'
p3977
sL1165L
S'Extended Radial Basis Functions for Metamodeling: A Comparative Study'
p3978
sL1166L
S'Selecting an Appropriate Metamodel: The Case for NURBs Metamodels'
p3979
sL1167L
S'A Hybrid Method Using Response Surface and Pattern Search for Design Optimization'
p3980
sL1168L
S'Gaussian Process Meta-Models for Efficient Probabilistic Design in Complex Engineering Design Spaces'
p3981
sL1169L
S'A Compromise Method for the Design of Parametric Polynomial Surrogate Models'
p3982
sL1170L
S'Robust Design of Cellular Materials With Topological and Dimensional Imperfections'
p3983
sL1171L
S'Microstructure Design for a Rotating Disk: With Application to Turbine Engines'
p3984
sL1172L
S'Design of Functionally Graded Structures for Enhanced Thermal Behavior'
p3985
sL1173L
S'A Strategy for Simulation-Based Multiscale, Multi-Functional Products and Associated Design Processes'
p3986
sL1174L
S'An Inductive Design Exploration Method for the Integrated Design of Multi-Scale Materials and Products'
p3987
sL1175L
S'The Generalized Cahn-Hilliard Equations of Multiphase Transition for Structural Topology Optimization'
p3988
sL1176L
S'A Topology Optimization Problem in Control of Structures Using Modal Disparity'
p3989
sL1177L
S'Synthesis of Bistable Periodic Structures Using Topology Optimization and a Genetic Algorithm'
p3990
sL1178L
S'Vehicle Crashworthiness Design Via a Surrogate Model Ensemble and a Co-Evolutionary Genetic Algorithm'
p3991
sL1179L
S'Structural Topology Optimization Using Frame Elements Based on the Complementary Strain Energy Concept for Eigen-Frequency Maximization'
p3992
sL1180L
S'Optimisation of a Robotic Workcell Layout Using Genetic Algorithms'
p3993
sL1181L
S'Topological Synthesis for Linkage Mechanism Design Using the Minimum Potential Energy Principle'
p3994
sL1182L
S'Structural Topology Optimization Under Design-Dependent Loads'
p3995
sL1183L
S'A Review of Software Solutions for the Management of New Product Development and Product Family Planning'
p3996
sL1184L
S'An Activity-Based Costing Method for Product Family Design in the Early Stages of Development'
p3997
sL1185L
S'Product Family Representation and Redesign: Increasing Commonality Using Formal Concept Analysis'
p3998
sL1186L
S'Towards Rapid Redesign: Pattern-Based Design Diagnostics for Large-Scale and Complex Redesign Problems'
p3999
sL1187L
S'Towards Rapid Redesign: Pattern-Based Redesign Planning for Large-Scale and Complex Redesign Problems'
p4000
sL1188L
S'Multi-Objective Design Optimization for Product Platform and Product Family Design Using Genetic Algorithms'
p4001
sL1189L
S'A Methodology to Support Product Family Redesign Using Genetic Algorithm and Commonality Indices'
p4002
sL1190L
S'Assembly Process Selection to Minimize Existing Assembly System Modification Cost During New Product Family Member Design'
p4003
sL1191L
S'Designing Product Families for a Changing Market Space'
p4004
sL1192L
S'A Group Technology Based Representation for Product Portfolios'
p4005
sL1193L
S'Customer Need Driven Function-Behavior Platform Formation'
p4006
sL1194L
S'Product Configuration Design Based on Extensible Product Family for Mass Customization'
p4007
sL1195L
S'Process Platform-Based Production Configuration'
p4008
sL1196L
S'Robust Truck Cabin Layout Optimization Using Advanced Driver Variance Models'
p4009
sL1197L
S'An Adaptive Sequential Linear Programming Algorithm for Optimal Design Problems With Probabilistic Constraints'
p4010
sL1198L
S'Reliability Assessment Based on the Concept of Failure Surface Frontier'
p4011
sL1199L
S'Reliability Optimization Involving Mixed Continuous-Discrete Uncertainties'
p4012
sL1200L
S'Uncertainty Analysis by Dimension Reduction Integration and Saddlepoint Approximations'
p4013
sL1201L
S'A Design Optimization Method Using Evidence Theory'
p4014
sL1202L
S'Enhanced Sequential Optimization and Reliability Assessment Method for Changing Design Variance'
p4015
sL1203L
S'Probabilistic Analytical Target Cascading: A Moment Matching Formulation for Multilevel Optimization Under Uncertainty'
p4016
sL1204L
S'A Methodology to Manage Uncertainty During System-Level Conceptual Design'
p4017
sL1205L
S'A Methodology for Trading-Off Performance and Robustness Under Uncertainty'
p4018
sL1206L
S'Efficient Genetic Algoritm Based Robust Design Method for Compressor Fan Blades'
p4019
sL1207L
S'A New Approach to Probabilistic Risk Analysis in Concurrent and Distributed Design of Aerospace Systems'
p4020
sL1208L
S'Effects of Uncertainty Reduction on Weight of Composite Laminates at Cryogenic Temperatures'
p4021
sL1209L
S'A New Deterministic Approach Using Sensitivity Region Measures for Multi-Objective Robust and Feasibilty Robust Design Optimization'
p4022
sL1210L
S'Reliability-Based Topology Optimization Considering Multicriteria Using Frame Elements'
p4023
sL1211L
S'Integrated Framework for Design Optimization Under Aleatory and/or Epistemic Uncertainties Using Adaptive-Loop Method'
p4024
sL1212L
S'Effect of Safety Measures on Reliability of Aircraft Structures Subjected to Damage Growth'
p4025
sL1213L
S'A Quadrature-Based Sampling Technique for Robust Design With Computer Models'
p4026
sL1214L
S'Automatic Decomposition and Refinement of Oversized Components for Rapid Prototyping'
p4027
sL1215L
S'Virtual Reality Interactive Design Utilizing Meshless Stress Re-Analysis'
p4028
sL1216L
S'Selective Clay Milling for Interactive Prototyping'
p4029
sL1217L
S'Building Sequence of Boundary Model in Layered Manufacturing'
p4030
sL1218L
S'Automatic Fairing of Two-Parameter Rational B-Spline Motion'
p4031
sL1219L
S'PDE-Driven Level Sets and Shape Sensitivity for Structural Topology Optimization'
p4032
sL1220L
S'An Efficient Feasibility Robust Optimization Method Using a Sensitivity Region Concept'
p4033
sL1221L
S'Numerical and Experimental Study of Shielding Gas Orientation Effects on Particle Stream Concentration Mode in Coaxial Laser Aided Material Deposition Process'
p4034
sL1222L
S'Analysis of Decomposability and Complexity for Design Problems in the Context of Decomposition'
p4035
sL1223L
S'Freeform Feature Retrieval by Signal Processing'
p4036
sL1224L
S'Covariance Modeling Method for Use in Compliant Assembly Tolerance Analysis'
p4037
sL1225L
S'A Product Ontology for Automotive Seat Specification'
p4038
sL1226L
S'Resistance Based Modeling of Collaborative Design'
p4039
sL1228L
S'An Optimization Study of the Ultrasonic Welding of Thin Film Polymers'
p4040
sL1229L
S'A Method to Solve Inverse Kinematics Problems Using Lie Algebra and Its Application to Robot Spray Painting Simulation'
p4041
sL1230L
S'Derivation of Design Guidelines for Miniature Machine Tools'
p4042
sL1231L
S'Automated Symmetry Exploitation in Engineering Analysis'
p4043
sL1232L
S'On the Design Synthesis of Multistable Equilibrium Systems'
p4044
sL1233L
S'Optimization of a Semi-Active Shock Absorber Using a Genetic Algorithm'
p4045
sL1234L
S'Concurrent Parameter Design Based on Constraint Network'
p4046
sL1236L
S'A Quantitative Analysis of the Evolution of Design Automation Conference Fields'
p4047
sL1237L
S'Optimization of Chemical Etching Process in Niobium Cavities'
p4048
sL1238L
S'An Efficient Weighting Update Method to Achieve Acceptable Consistency Deviation in Analytical Target Cascading'
p4049
sL1239L
S'A Comparison of Commonality Indices for Product Family Design'
p4050
sL1240L
S'A System Approach to Simulation-Based Design Under Uncertainty, Through Best in Class Simulation Process Integration and Design Optimization'
p4051
sL1241L
S'A Comparative Study of Constraint Programming Techniques Over Intervals in Preliminary Design'
p4052
sL1242L
S'Front Structure Design Procedure for Optimal Pedestrian Leg Impact Performance'
p4053
sL1243L
S'A Recursive, Line-Intersection Method for Finding the Area of a Mesh Projected Onto a Plane'
p4054
sL1244L
S'Task Scheduling of Parallel Development Projects Using Genetic Algorithms'
p4055
sL1245L
S'Dynamic Modeling and Simulation of Parallel Kinematic Machines'
p4056
sL1246L
S'DRed and Design Folders: A Way of Capturing, Storing and Passing On Knowledge Generated During Design Projects'
p4057
sL1247L
S'Identifying and Tracking Features in Freeform Shape'
p4058
sL1248L
S'Development of a Production Cost Estimation Framework for Product Family Design'
p4059
sL1249L
S'Modeling and Design of Materials for Controlled Wave Propagation in Plane Grid Structures'
p4060
sL1250L
S'An Efficient Pareto Set Identification Approach for Multi-Objective Optimization on Black-Box Functions'
p4061
sL1251L
S'Ant Colony Optimization Method for Product Platform Formation'
p4062
sL1252L
S'The Effects of Different Specifications on the Tolerance-Maps for an Angled Face'
p4063
sL1253L
S'Development of Process Optimization for an Intelligent Knowledge-Based System for Spur Gear Precision Forging Die Design'
p4064
sL1254L
S'Global Stiffness Improvement for Tricept Machine Tools Family'
p4065
sL1255L
S'A Parametric Approach to Vehicle Seating Buck Design'
p4066
sL1256L
S'Parameter and Tolerance Constraints Modeling for Assembly'
p4067
sL1257L
S'Fully Free-Form Deformation Features Incorporating Discontinuities'
p4068
sL1258L
S'Design of Components With Optimized Microstructure'
p4069
sL1259L
S'An Integrated Design Support Environment for a Micro-Scale Portable Absorption Cooling System'
p4070
sL1260L
S'A Conceptual Design Synthesis Framework for Micro-Electro-Mechanical Systems (MEMS)'
p4071
sL1261L
S'A Survey of the Study of Failure'
p4072
sL1262L
S'A Knowledge-Based System for Change Impact Analysis'
p4073
sL1263L
S'Evaluation Method for the Topological Synthesis of Sheet Metal Components'
p4074
sL1264L
S'A Single-Loop Method for Reliability-Based Design Optimization'
p4075
sL1265L
S'Geometric Design of Uniform Developable B-Spline Surfaces'
p4076
sL1266L
S'Creative Design, Issues and Strategies'
p4077
sL1267L
S'A Saddlepoint Approximation Method for Uncertainty Analysis'
p4078
sL1268L
S'Geometric Containment Analysis for Rotational Parts'
p4079
sL1269L
S'Integrating Freeform and Feature-Based Fitting Methods'
p4080
sL1270L
S'A Systems Framework for Platform Architecture Analysis'
p4081
sL1271L
S'On the Use of Kriging Models to Approximate Deterministic Computer Models'
p4082
sL1272L
S'Decomposition-Based Assembly Synthesis of Space Frame Structures Using Joint Library'
p4083
sL1273L
S'A New Approach for Simultaneous Shape and Topology Optimization Based on Implicit Topology Description Functions'
p4084
sL1274L
S'On Electrochemical Deposition for Layered Manufacturing'
p4085
sL1275L
S'Robustness and Performance Optimization of Engine Bearing System Using Computer Model and Surrogate Noise'
p4086
sL1276L
S'Design Optimization of Enclosed Liquid Containers With Baffles for Sloshing and Impact'
p4087
sL1277L
S'Design for Project Change Management: Part 1 -- Configuration Design'
p4088
sL1278L
S'Design for Project Change Management: Part 2 -- Attribute Design'
p4089
sL1279L
S'Moment Matching for Sensitivity Analysis of Probabilistic Model Output'
p4090
sL1280L
S'Product Design Selection With Variability in Preferences for an Implicit Value Function'
p4091
sL1281L
S'A Formal Approach to Handling Conflicts in Multiattribute Group Decision Making'
p4092
sL1282L
S'Convergence and Stability in Distributed Design of Large Systems'
p4093
sL1283L
S'Transient Root Cause Analysis: A Model-Based Systems Engineering Methodology'
p4094
sL1284L
S'Design Optimization of Hierarchically Decomposed Multilevel Systems Under Uncertainty'
p4095
sL1285L
S'Purely Declarative Feature-Based Design With Feature Type Property Maintenance'
p4096
sL1286L
S'A Weighted Three-Point-Based Strategy for Variance Estimation'
p4097
sL1287L
S'Hierarchical Arrangement of Characteristics in Product Design Optimization Problems for Deeper Insight Into Optimized Results'
p4098
sL1288L
S'A Method for Determining the Optimal Direction of the Principal Moment of Inertia in Frame Element Cross-Sections'
p4099
sL1289L
S'A Collaborative Rapid Analysis Method for Decision-Making in Assembly Line Design'
p4100
sL1290L
S'Text and Illustration Based Scenario Expressions for Conveying Failure Knowledge'
p4101
sL1291L
S'Variant Design Automation: Strategy and Procedure for Storing Design Process Information'
p4102
sL1292L
S'A Process-Oriented Approach for Management of Product Configuration Models'
p4103
sL1293L
S'Design of a Bimorph Driven Meander-Line Structure for Parts Feeder Application'
p4104
sL1294L
S'Optimisation and Robust Design in Aero Engine Development'
p4105
sL1295L
S'Decoupled and Single Loop Methods for Reliability-Based Optimization and Robust Design'
p4106
sL1296L
S'An Integrated Robust Design and Marketing Approach for Product Design Selection Process'
p4107
sL1297L
S'A CAD Package for High-Speed Cam Design Based on Direct Multiple Shooting Optimal Control Techniques'
p4108
sL1298L
S'A Fuzzy Dynamic Programming Approach for Mixed-Discrete Multistage Decision Processes'
p4109
sL1299L
S'Structural Topology Optimization Under Impact Loads Using Beam Ground Structures'
p4110
sL1300L
S'Objective Function Based Pattern Search: A Computationally Efficient Algorithm for 3D Component Layout'
p4111
sL1301L
S'Toward an Information Management Infrastructure for Product Family Planning and Mass Customization'
p4112
sL1302L
S'Application of Math-Based Marketing and Financial Tools in an Automated Parametric Design Framework'
p4113
sL1303L
S'An Information Theoretical Perspective on Design Optimization'
p4114
sL1304L
S'Economics of Sacrificial Fixturing for CNC Machining and Rapid Manufacturing'
p4115
sL1305L
S'A Benchmark Comparison of CAD 5-Axis Machining Packages'
p4116
sL1306L
S'A Comparative Study of Optimal Design for an Inkjet Printer Tube With and Without Performance Variations'
p4117
sL1307L
S'Reliability-Based Design Optimization Methods'
p4118
sL1308L
S'A Reliability-Based Design Method Using Simulation Techniques and Efficient Optimization Approach'
p4119
sL1309L
S'Assessing Product Architecture Costing: Product Life Cycles, Allocation Rules, and Cost Models'
p4120
sL1310L
S'Unified Distance Queries in a Heterogeneous Model Environment'
p4121
sL1311L
S'The Role of Constraints and Human Interaction in Evolving MEMS Designs: Microresonator Case Study'
p4122
sL1312L
S'Two-Level Approximation Method for Reliability-Based Design Optimization'
p4123
sL1313L
S'Product Platform Design Through Sensitivity Analysis and Cluster Analysis'
p4124
sL1315L
S'A Full Parametric Model for Turbomachinery Blade Design and Optimisation'
p4125
sL1316L
S'The Performance Moment Integration Method for Reliability-Based Robust Design Optimization'
p4126
sL1317L
S'Segmentation of Noisy Laser-Scanner Generated Meshes With Piecewise Polynomial Approximations'
p4127
sL1318L
S'Solid Modeler Evaluation and Comparison Cycle: A Methodology for Optimum Selection of Modeling Software'
p4128
sL1319L
S'Vehicle Structure Optimization for Crash Pulse'
p4129
sL1320L
S'Analytical Variance-Based Global Sensitivity Analysis in Simulation-Based Design Under Uncertainty'
p4130
sL1321L
S'Building Surrogate Models Based on Detailed and Approximate Simulations'
p4131
sL1322L
S'Graphical Modeling Environment and Supporting Framework for Function-Based Conceptual Design'
p4132
sL1323L
S'Relative Entropy Based Method for Global and Regional Sensitivity Analysis in Probabilistic Design'
p4133
sL1324L
S'A Haptic System for Virtual Prototyping of Polygonal Models'
p4134
sL1325L
S'Influence of Group Cohesion and Information Sharing on Effectiveness of Design Review'
p4135
sL1326L
S'Development of a J2EE Web Application for STEP-Based Design Conformance Checking'
p4136
sL1327L
S'A Sequential Exploratory Experimental Design Method: Development of Appropriate Empirical Models in Design'
p4137
sL1328L
S'Applicability of Design Spaces to Utilize Current Assembly Plant Resources to Produce New Product Family Members'
p4138
sL1329L
S'A Sketch-Based Interface for the Design and Analysis of Simple Vibratory Mechanical Systems'
p4139
sL1330L
S'Trim Loop Closure for Enhanced CAD Interoperability'
p4140
sL1331L
S'Haptically Guided Filtering for Reverse Engineering'
p4141
sL1332L
S'Design Configuration of Vehicle With Domain Knowledge Enhancement'
p4142
sL1333L
S'An Exploration-Estimation Algorithm for Synthesis and Analysis of Engineering Systems Using Minimal Physical Testing'
p4143
sL1334L
S'Quantifying Profit and Loss Associated With Failure Cases'
p4144
sL1335L
S'Using the Compromise Decision Support Problem in Microsystem Design: A Formulation for a Miniature Parylene Gas Chromatographic Column'
p4145
sL1336L
S'Improved Disassembly Matrices for Disassembly Processes'
p4146
sL1337L
S'Design Under Uncertainty Using Monte Carlo Simulation and Probabilistic Sufficiency Factor'
p4147
sL1338L
S'A Cross-Evaluation Matrix (CEM) Rating Based Approach to Pareto Efficient Frontier and Design Alternatives Enumeration'
p4148
sL1339L
S'An Integrated Framework for Probabilistic Optimization Using Inverse Reliability Strategy'
p4149
sL1340L
S'An Approach to Robust Multiattribute Concept Selection'
p4150
sL1341L
S'An Indicator Response Surface-Based Monte Carlo Method for Efficient Component and System Reliability Analysis'
p4151
sL1342L
S'Reliability-Based Design With the Mixture of Random and Interval Variables'
p4152
sL1343L
S'Application of the Sequential Optimization and Reliability Assessment Method to Structural Design Problems'
p4153
sL1344L
S'Structural Durability Design Optimization and Its Reliability Assessment'
p4154
sL1345L
S'Incorporating Epistemic Uncertainty in Robust Design'
p4155
sL1346L
S'Robust Optimization of an Automotive Valvetrain Using a Multiobjective Genetic Algorithm'
p4156
sL1347L
S'Robust Design Using Preference Aggregation Methods'
p4157
sL1348L
S'Non-Gradient Based Parameter Sensitivity Estimation for Robust Design Optimization'
p4158
sL1349L
S'Product Platform Design and Optimization: Status and Promise'
p4159
sL1350L
S'Optimal Design Methodology of Common Components for a Class of Products: Its Foundations and Promise'
p4160
sL1351L
S'Internet Based Framework to Perform Automated FEA on User Customized Products'
p4161
sL1352L
S'Production Cost Modeling to Support Product Family Design Optimization'
p4162
sL1353L
S'Product Family and Platform Portfolio Optimization'
p4163
sL1354L
S'Dimensional Adjustment for Assemblability of Rapid Protoyped Parts'
p4164
sL1355L
S'WirePATH Rapid Tooling Process and Supporting Software Development'
p4165
sL1356L
S'Layered Manufacturing by Electrophotographic Printing'
p4166
sL1357L
S'Towards Automated Design of Multi-Piece Permanent Molds'
p4167
sL1358L
S'Toward Automatic Process Planning of a Multi-Axis Hybrid Laser Aided Manufacturing System: Skeleton-Based Offset Edge Generation'
p4168
sL1359L
S'Extracting Freeform Shape Information by Template Fitting'
p4169
sL1360L
S'Extended Hierarchical Cluster Analysis for the Decomposition of Complex Design Problems'
p4170
sL1361L
S'Assembly Synthesis With Subassembly Partitioning for Optimal In-Process Dimensional Adjustability'
p4171
sL1362L
S'Topology Optimization of Multi-Component Structures via Decomposition-Based Assembly Synthesis'
p4172
sL1363L
S'Quantitative Exploratory Techniques to Simplify Multiple Objectives in Product Design Optimization'
p4173
sL1364L
S'Multi-Objective Optimisation of Ship Hull With Distributed Applications'
p4174
sL1365L
S'Structural Topology Design Optimization for Controlled Crash Behavior'
p4175
sL1366L
S'Analytical Target Setting: An Enterprise Context in Optimal Product Design'
p4176
sL1367L
S'Multi-Objective Configuration Optimization With Vehicle Dynamics Applied to Midsize Truck Design'
p4177
sL1368L
S'A New Mathematical Model for Geometric Tolerances as Applied to Axes'
p4178
sL1370L
S'Tolerance Synthesis of Mechanisms: A Robust Design Approach'
p4179
sL1371L
S'Development of a Design Reuse View of Cutting Tool Design Ontology'
p4180
sL1372L
S'A Study of Geometric Error Measurement of CNC Machine Tools Using the Improved Planar Encoder System'
p4181
sL1373L
S'Reducing Cycle Time and Errors in the Design and Layout of MEMS'
p4182
sL1374L
S'Approaches of Knowledge-Based Design'
p4183
sL1375L
S'A Methodology for the Study of the Effects of Communication Method on Design Review Effectiveness'
p4184
sL1376L
S'Development of Knowledge Based System to Facilitate Design of On-Board Car Safety Systems'
p4185
sL1377L
S'Shape Knowledge Indexing Using Invariant Shape Code'
p4186
sL1378L
S'Knowledge Management: A Concept Review'
p4187
sL1380L
S'A Design Alternatives Assessment and Management Approach'
p4188
sL1381L
S'Knowledge Intensive Collaborative Decision Support for Design Process'
p4189
sL1382L
S'A Knowledge-Supported System for Engineering Change Impact Analysis'
p4190
sL1383L
S'Design Optimization of a Vehicle B-Pillar Subjected to Roof Crush Using Mixed Reactive Taboo Search'
p4191
sL1384L
S'Design Optimization of Vehicle Structures for Crashworthiness Using Equivalent Mechanism Approximations'
p4192
sL1385L
S'Response Surface Methods and Pareto Optimization in Crashworthiness Design'
p4193
sL1386L
S'Parametric Design Sensitivity Analysis of High Frequency Structural-Acoustic Problems Using Energy Finite Element Method'
p4194
sL1387L
S'The Effect of Tempering (Artificial Aging) on the Crashworthiness Performance of Mass-Efficient Extruded Aluminum Structures'
p4195
sL1388L
S'Bayesian Approximation-Assisted Optimization Applied to Crashworthiness Design of a Pickup Truck'
p4196
sL1389L
S'Emerging Virtual Machine Tools'
p4197
sL1390L
S'Computer Model Validation in Vehicle Crash Safety Design'
p4198
sL1391L
S'Penalized Likelihood Kriging Model for Analysis of Computer Experiments'
p4199
sL1392L
S'Analysis of Support Vector Regression for Approximation of Complex Engineering Analyses'
p4200
sL1393L
S'An Efficient Algorithm for Constructing Optimal Design of Computer Experiments'
p4201
sL1394L
S'Introducing Rough Set for Design Space Exploration and Optimization'
p4202
sL1395L
S'A Study on the Use of Kriging Models to Approximate Deterministic Computer Models'
p4203
sL1396L
S'A New Global Optimization Method for Simultaneous Computation on Expensive Black-Box Functions'
p4204
sL1397L
S'Multidimensional Solution Clustering and Its Application to the Coolant Passage Optimization of a Turbine Blade'
p4205
sL1398L
S'Optimization of a Semi-Active Shock Absorber for Aircraft Landing Gear'
p4206
sL1399L
S'Towards a Conceptual Design Explorer Using Metamodeling Approaches and Constraint Programming'
p4207
sL1400L
S'A Study of Emission Policy Effects on Optimal Vehicle Design Decisions'
p4208
sL1401L
S'Level Set Models for Structural Topology Optimization'
p4209
sL1402L
S'Topology Optimization of Heat-Resistant Structures'
p4210
sL1403L
S'Topology Optimization of a Compliant Gripper Using Hybrid Simulated Annealing and Direct Search'
p4211
sL1404L
S'Topology Optimization and Dynamic Performance of a Bike Frame With Dampers'
p4212
sL1405L
S'Robust Topological Design of Cellular Materials'
p4213
sL1406L
S'Structural Topology Optimization Using Function-Oriented Elements Based on the Concept of First Order Analysis'
p4214
sL1407L
S'Design of Energy Absorbing Structure Using Topology Optimization With a Multi-Material Model'
p4215
sL1408L
S'Parameterization Strategy for Optimization of Shape Morphing Compliant Mechanisms Using Load Path Representation'
p4216
sL1409L
S'A Face Clustering Method for a Hexahedral Meshing'
p4217
sL1410L
S'A New Approach to Minimisations for Shape Control During Free-Form Surface Deformation'
p4218
sL1411L
S'Smoothing of Noisy Laser Scanner Generated Meshes Using Polynomial Fitting and Neighborhood Erosion'
p4219
sL1412L
S'Partitioning Positional and Normal Space for Fast Occlusion Detection'
p4220
sL1413L
S'Automatic Toolpath Generation for Multi-Axis Surface Machining in a Hybrid Manufacturing System'
p4221
sL1414L
S'A Taxonomy for Collaborative Design'
p4222
sL1415L
S'A Study of Convergence in Decentralized Design'
p4223
sL1416L
S'Port-Compatibility and Connectability Based Assembly Design'
p4224
sL1417L
S'A Concurrent Design Method for Multiple Cross-Sectional Automotive Body Frames Involving Discrete and Continuous Design Variables'
p4225
sL1418L
S'Design Space Visualization and Its Application to a Design by Shopping Paradigm'
p4226
sL1419L
S'Design Process Error-Proofing: Development of Automated Error-Proofing Information Systems'
p4227
sL1420L
S'Design Evaluation Method for Miniature Machine Tools Utilizing Form-Shaping Theory'
p4228
sL1421L
S'Design Shell for Parametric Design at Embodiment Stage'
p4229
sL1422L
S'Scenario Expression for Characterizing Failure Cases'
p4230
sL1423L
S'Design Methodology for the Thermal Packaging of Hybrid Electronic-Mechanical Products: A Case Study on the Berkeley Emulation Engine (BEE)'
p4231
sL1424L
S'A Modeling Method for Vibration Analysis of a Stator Frame of Turbine Generators and Its Application to a Design System: Vibration Analysis and Analysis System'
p4232
sL1425L
S'Strengthening of Bone Cement by Shape Optimization of Short Fibers'
p4233
sL1426L
S'Constraint Dominance Methods Applied to the Design of a Linear Motor'
p4234
sL1427L
S'Design Sensitivity Analysis of Nonlinear Shell Structure With Frictionless Contact'
p4235
sL1428L
S'Optimal Troubleshooting for Electro-Mechanical Systems'
p4236
sL1429L
S'Optimization for Mass Variation of System Including Shock Absorber'
p4237
sL1430L
S'Discretizing Continuous Problems for Faster Global Convergence'
p4238
sL1431L
S'Optimal Packaging of Tank Turret System'
p4239
sL1432L
S'Genetic Range Genetic Algorithms to Obtain Quasi-Optimum Solutions'
p4240
sL1433L
S'Optimization of Helicopter Air Intake Scoop Design'
p4241
sL1434L
S'A Study on Immune Algorithms Considering Interaction of Design With Environment Properties'
p4242
sL1435L
S'Optimizing Optimization for Design Optimization'
p4243
sL1436L
S'Generalized Random Tunneling Algorithm for Continuous Design Variables'
p4244
sL1437L
S'Improved Development Cycle of a Compliant Manipulator'
p4245
sL1438L
S'On Honeycomb Parameterization for Topology Optimization of Compliant Mechanisms'
p4246
sL1439L
S'On Design of Electro-Thermally Compliant MEMS for Strength'
p4247
sL1441L
S'Introduction to Compliant Long-Dwell Mechanism Synthesis Using Buckling Arc Theory'
p4248
sL1442L
S'Distributed Compliant Model for Efficient Dynamic Simulation of Systems With Frictional Contacts'
p4249
sL1443L
S'Suspension Synthesis for N:1 Roll Center Motion'
p4250
sL1444L
S'A Robust Solution to the Spherical Rigid-Body Guidance Problem'
p4251
sL1445L
S'Designing a Dexterous Reconfigurable Packaging System for Flexible Automation'
p4252
sL1446L
S'Kinematic Synthesis of RPS Serial Chains'
p4253
sL1447L
S'Approximate Motion Synthesis of Open and Closed Chains via Parametric Constraint Manifold Fitting: Preliminary Results'
p4254
sL1448L
S'Suggesting Joint Limitations and Physical Parameters for Motion Generating 3 DOF Planar Chains'
p4255
sL1449L
S'Geometric Design of Cylindric PRS Serial Chains'
p4256
sL1450L
S'On the Effects of Weights in Rational Motion Design'
p4257
sL1451L
S'Dimensional Synthesis of CRR Serial Chains'
p4258
sL1452L
S'Analytical Determination of Principal Twists and Singular Directions in Robot Manipulators'
p4259
sL1453L
S'Type Synthesis of Three-DOF Translational Parallel Mechanisms'
p4260
sL1454L
S'Forward Problem Singularities of Manipulators Which Become PS-2RS or 2PS-RS Structures When the Actuators Are Locked'
p4261
sL1455L
S'Singularity Analysis of a Novel 4-DOFs Parallel Robot H4 by Using Screw Theory'
p4262
sL1456L
S'Planar Translational Cable-Direct-Driven Robots: Hardware Implementation'
p4263
sL1457L
S'Interpolation Algorithm and Its Error Prediction of a Tripod-Based Parallel Kinematic Machine'
p4264
sL1458L
S'An Integrated Virtual Validation System for Parallel Kinematic Machine Analysis Design'
p4265
sL1459L
S'Design Optimization of 6-HTRT Parallel Robot Orientated on Workspace'
p4266
sL1460L
S'Cable-Based Metrology System for Sculpting Assistance'
p4267
sL1461L
S'Optimal Integration of Smart Actuators in the Structure of Serial and Parallel Robot Manipulators to Enhance Speed and Tracking Precision'
p4268
sL1462L
S'An XZ Micropositioning Mechanism (XZMM) With Out-of-Plane Translation'
p4269
sL1463L
S'Kinetic Analysis of Planar Frictionless Mechanisms Made Simple'
p4270
sL1464L
S'Computer Simulation of Path and Motion Generation With Six-Bar Linkage'
p4271
sL1465L
S'On the Existence of Special Cases of Input Speed Doubling Linkage Mechanisms'
p4272
sL1466L
S'The Radius of Curvature of a Coupler Curve of the Single Flier Eight-Bar Linkage'
p4273
sL1467L
S'An Analytical Comparison Between Ball and Crossed Roller Bearings for Utilization in Actuator Modules for Precision Modular Robots'
p4274
sL1468L
S'Influence of End-Effector Velocities on Robotic Manipulator Dynamic Performance: An Analytical Approach'
p4275
sL1469L
S'Analysis and Visualization of the Contact Force Solution Space for Multi-Limbed Mobile Robots With Three Feet Contact'
p4276
sL1470L
S'Choosing the Optimal Contact Force Distribution for Multi-Limbed Mobile Robots With Three Feet Contact'
p4277
sL1471L
S'An Articulated Body Algorithm for Modelling and Simulation of an Underwater Vehicle Equipped With Manipulator Arm'
p4278
sL1472L
S'On the Design of Nesting Forces for Exactly Constrained, Robust Mechanical Assemblies'
p4279
sL1473L
S'On the Robustness of Exactly Constrained Mechanical Assemblies'
p4280
sL1474L
S'Analysis of Multiple Equilibrium Positions in Magnetostatic Field'
p4281
sL1475L
S'On the Geometry of 3D Orientation Measurement Using a New Class of Wireless Angular Position Sensors'
p4282
sL1476L
S'Similarity and Equivalence of Nutating Mechanisms to Bevel Epicyclic Gear Trains'
p4283
sL1477L
S'Forward Kinematics of 3-GPR Planar Parallel Manipulators With Circular Rolling Contact Joints'
p4284
sL1478L
S'The Robust Design of a Two-Wheeled Quasiholonomic Mobile Robot'
p4285
sL1479L
S'Kinematics of Wheeled Mobile Robots With Toroidal Wheels on Uneven Terrain'
p4286
sL1480L
S'Design of a Self-Actuating, Traction Drive System for High-Speed Ratios'
p4287
sL1481L
S'Topology and Shape Optimization of an Interbody Fusion Implant for Lumbar Spine Fixation'
p4288
sL1482L
S'An Integrated Design Optimization Approach for Quantitative and Qualitative Search Space'
p4289
sL1483L
S'An Approach for Generating Variational Geometry of a Pattern of Holes With Composite Positional Tolerances'
p4290
sL1484L
S'Design Decision-Making in the Early Stages of Collaborative Engineering'
p4291
sL1486L
S'Identifying Variable Effects on the Dimensional Quality of Compliant Assembly, Using Computer Experiments'
p4292
sL1488L
S'Reconstructing Freeform Surface With Parameterized Features'
p4293
sL1489L
S'Analysis and Design of a Four-Bar Linkage Type of Vibratory Parts Feeder Driven by Piezoelectric Actuator'
p4294
sL1490L
S'Autogenetic Design Theory: An Approach to Optimise Both the Design Process and the Product'
p4295
sL1491L
S'Human Head Aesthetic Design Using Hybrid Genetic Algorithm'
p4296
sL1492L
S'Applying Universal Linking of Engineering Objects in the Automotive Industry: Practical Aspects, Benefits, and Prototypes'
p4297
sL1493L
S'Mini-Max Type Formulation of Strict Robust Design Optimization Under Correlative Variation'
p4298
sL1494L
S'Optimization of Machine System Designs Using Hierarchical Decomposition Based on Criteria Influence'
p4299
sL1495L
S'Lifecycle-Based Product Design Using Global Optimization Methods Based on Hierarchical Genotype Representation of Alternatives and Constraints'
p4300
sL1496L
S'Conceptual Design of Tool Storage Based on the Divergent Tree Method'
p4301
sL1497L
S'Comparison of Gradient and Non Gradient Based Methods for Crash Optimisation'
p4302
sL1498L
S'Computational Geometric Modeling and Unfolding of 3-D Folded Structures'
p4303
sL1499L
S'Performance Optimization of Extrusion Blow Molded Parts Using Fuzzy Neural-Taguchi Method and Genetic Algorithm'
p4304
sL1500L
S'An Evolutionary Clustering Approach to Pareto Solutions in Multiobjective Optimization'
p4305
sL1501L
S'Automatic Conceptual Design of Mechanical Devices Based on Reasoning the Design Rules'
p4306
sL1502L
S'A Study on Collaborative Design Considering Features of Design'
p4307
sL1503L
S'Reconfiguration of Kinematic Structure for Changing Motion Requirement Based on Reusability Evaluation in Lie Algebra'
p4308
sL1504L
S'A Study on Optimum Topology of Plate Structure Using Coordinate Transformation by Conformal Mapping'
p4309
sL1505L
S'Computer-Aided Analysis of Free Transverse-Vibration of Stepped Beams'
p4310
sL1506L
S'Thermal Robustness and Mass Optimization of Heat Pipe Shape for Spacecraft Panel Using a Combination of Response Surface Methodology and Monte Carlo Simulation'
p4311
sL1507L
S'Dual Stage Input Coupled Split Power Transmission Efficiency Optimization'
p4312
sL1508L
S'Informing Design Using Data Mining Methods'
p4313
sL1509L
S'Development of Multi-Stage and Hybrid Real-Coded Genetic Algorithms With Active Constraints'
p4314
sL1510L
S'Computational Recognition of Functional Parameters of Surfaces for the Kinematic Design of Window Regulator Systems'
p4315
sL1511L
S'Human Modelling: A Constraint-Based Feature Modelling Approach'
p4316
sL1512L
S'Analysis of Loads and Stresses for a Sewing Needle'
p4317
sL1513L
S'Artificial Immune System Based Isomorphism Identification Method for Mechanism Kinematics Chains'
p4318
sL1515L
S'Cross Model Shape Reuse: Copying and Pasting of Freeform Features'
p4319
sL1516L
S'Automated Design Synthesis for Micro-Electro-Mechanical Systems (MEMS)'
p4320
sL1517L
S'Use of Constrained Viscoelastic Layers in the Design of Satellite Panels to Predict the Amplification Factor'
p4321
sL1518L
S'Stiffness Testing of Hydraulic Hoses'
p4322
sL1519L
S'Finite Element Analysis in 3D Using the Penalty Boundary Method'
p4323
sL1520L
S'Integration of Commercial CAD/CAM System With Custom CAPP Using Orbix Middleware and CORBA Standard'
p4324
sL1521L
S'Counting Degrees of Freedom for Developable Bezier Surface Design'
p4325
sL1522L
S'Determination of Geometric Distortions in Automotive Lamps Using Non-Linear Parametric Estimations'
p4326
sL1523L
S'Macroscopic Shape-Information as a Curve Design-Guideline'
p4327
sL1524L
S'Collaborative Decision Making Across Digital Interfaces'
p4328
sL1525L
S'Local Least Squares Fitting for Surface Mesh Fairing in Automobile Panel Design'
p4329
sL1526L
S'A Stochastic Optimization Application for Vehicle Structures'
p4330
sL1527L
S'Math-Based Performance Evaluation of an Experimental Car: Side Impact Protection'
p4331
sL1528L
S'Model Reduction in Structural Analysis Using a Multiresolution Analysis'
p4332
sL1529L
S'A Web Enabled Process for Accessing Customized Parametric Designs'
p4333
sL1530L
S'Multiattribute Decision Making Using Hypothetical Equivalents'
p4334
sL1531L
S'Interactive Product Design Selection With an Implicit Value Function'
p4335
sL1532L
S'A Customer-Based Expected Utility Metric for Product Design Selection'
p4336
sL1533L
S'Empirical Analysis Using Advanced Similarity Methods'
p4337
sL1534L
S'Decomposition-Based Assembly Synthesis Based on Structural Stiffness Considerations'
p4338
sL1535L
S'An Analytical Approach to Functional Design'
p4339
sL1536L
S'Control, Design and Error Variables in Decomposition of Design Optimization Problems'
p4340
sL1537L
S'Decomposition-Based Assembly Synthesis for In-Process Dimensional Adjustability'
p4341
sL1538L
S'A Grammar-Based Approach to Sheet Metal Design'
p4342
sL1539L
S'Adaptive-Agent Based Simulation Model to Study Diffusion of Eco-Innovation Strategies'
p4343
sL1540L
S'A Knowledge-Based Approach to Spur Gear Fabrication in Precision Forging Process'
p4344
sL1541L
S'A Benchmark Comparison of Curvature Matched Machining versus Three- and Five-Axis Machining Methods Applied to Industrial Part Surfaces'
p4345
sL1542L
S'Adaptive Experimental Design Applied to Ergonomics Testing Procedure'
p4346
sL1543L
S'On Sequential Sampling for Global Metamodeling in Engineering Design'
p4347
sL1544L
S'Computer Implementation of an Improved Kutzbach-Grubler Mobility Criterion'
p4348
sL1545L
S'Modeling of Slope Discontinuities in Flexible Body Dynamics Using the Finite Element Method'
p4349
sL1546L
S'Design of Hierarchic Platforms for Customizable Products'
p4350
sL1547L
S'A Quantitative Approach for Designing Multiple Product Platforms for an Evolving Portfolio of Products'
p4351
sL1548L
S'Optimal Design Decisions in Product Portfolio Valuation'
p4352
sL1549L
S'Knowledge Intensive Support for Product Family Design'
p4353
sL1550L
S'Platform Selection Under Performance Loss Constraints in Optimal Design of Product Families'
p4354
sL1551L
S'Inverse Parametric Modeling From Independently Generated Product Data Sets'
p4355
sL1552L
S'A Hybrid Approach to Feature Recognition Using Approximate and Partial Exact CAD Models'
p4356
sL1553L
S'A Mesh Feature Paradigm for Rapid Generation of CAE-Based Design of Experiments Data'
p4357
sL1554L
S'Development of Adaptive Range Genetic Algorithms Considering Inheritance of Searching Range'
p4358
sL1555L
S'GA-Based Multi-Objective Fuzzy Matter-Element Optimization'
p4359
sL1556L
S'Using Genetic Algorithms With Niche Formation to Solve the Minimum Distance Problem Among Concave Objects'
p4360
sL1557L
S'A Genetic Algorithm Based Method for Product Family Design Optimization'
p4361
sL1558L
S'Shape Optimization of NURBS Modeled 3D C-Frames Using Hybrid Genetic Algorithm'
p4362
sL1559L
S'Robust Design Through the Use of a Hybrid Genetic Algorithm'
p4363
sL1560L
S'Nonlinear Kinematic Tolerance Analysis of Planar Higher Pairs'
p4364
sL1561L
S'Parameter Sensitivity in System Identification of Parallel Mechanisms'
p4365
sL1562L
S'A New Symbolic Method to Determine Base Inertia Parameters for General Spatial Mechanisms'
p4366
sL1563L
S'Redesign of a Spatial Gear Pair Using Configuration Spaces'
p4367
sL1564L
S'Error Sensitivity Analysis for Optimal Calibration of Parallel Kinematic Machines'
p4368
sL1565L
S'Development of an Interactive Web-Based Support System for Gear Design'
p4369
sL1566L
S'An Extensive Simplex Method Mapping the Global Feasibility'
p4370
sL1567L
S'Theoretical Evaluation of the Integrated Structure and Control Design Approach by Optimization Theory'
p4371
sL1568L
S'Finding the Shortest Path for Quality Assurance of Electric Components'
p4372
sL1569L
S'Development of an Automatic Design and Optimization System for Industrial Silencers'
p4373
sL1570L
S'Architectural Optimisation Using Real Options Theory and Dependency Structure Matrices'
p4374
sL1571L
S'Dynamic Analysis and Optimization of Tensioner in Automotive Serpentine Belt Drive Systems'
p4375
sL1572L
S'Configurable and Extensible System for Experimenting With Design Optimization'
p4376
sL1573L
S'On the Entropy of Multi-Objective Design Optimization Solution Sets'
p4377
sL1574L
S'A Sensitivity-Based Pattern Search Algorithm for 3D Component Layout'
p4378
sL1575L
S'Hybrid Approach for Containment Problems'
p4379
sL1576L
S'A Non-Deterministic Approach to Concept Selection Using S-Pareto Frontiers'
p4380
sL1577L
S'Sequential Optimization and Reliability Assessment Method for Efficient Probabilistic Design'
p4381
sL1578L
S'An Investigation of Nonlinearity of Reliability-Based Design Optimization Approaches'
p4382
sL1579L
S'New Concepts in Graphic Visualization of Objective Functions'
p4383
sL1580L
S'Visualization of Multidimensional Design and Optimization Data Using Cloud Visualization'
p4384
sL1581L
S'Design Optimization for Structural-Acoustic Problems Using FEM-BEM'
p4385
sL1583L
S'Dynamic Project Navigation: Modelling, Improving, and Review of Engineering Processes'
p4386
sL1584L
S'Benefit Evaluation of New Technologies'
p4387
sL1585L
S'Smart Assemblies for Robust Design: A Progress Report'
p4388
sL1587L
S'The Evolution of a Layered Manufacturing Interchange Format'
p4389
sL1588L
S'ModelAngelo: A Rapid Prototyping System for Polystyrene'
p4390
sL1589L
S'Automatic Process Planning of a Multi-Axis Hybrid Manufacturing System'
p4391
sL1590L
S'H-ISM: An Implementation of Heterogeneous Implicit Solid Modeling'
p4392
sL1591L
S'Model Validation via Uncertainty Propagation Using Response Surface Models'
p4393
sL1592L
S'Bayesian Evaluation of Engineering Models'
p4394
sL1593L
S'Uncertainty Analysis Using a Constraint Reliability Index'
p4395
sL1594L
S'A Tool Management System for Probabilistic Design Problems'
p4396
sL1595L
S'Evaluation of Conceptual Designs and Maintainability Incorporating Uncertainty'
p4397
sL1596L
S'Computer-Aided Fixture Design Verification: Part II -- Tolerance Analysis'
p4398
sL1597L
S'A Scheme for Transformation of Tolerance Specifications to Generalized Deviation Space for Use in Tolerance Synthesis and Analysis'
p4399
sL1598L
S'Topology Optimization of Compliant Mechanisms Using Evolutionary Algorithm With Design Geometry Encoded as a Graph'
p4400
sL1599L
S'Optimal Embedding in the Topology Design of Structures'
p4401
sL1600L
S'An Evolutionary Multi-Objective Optimization Approach to the Topology Optimization of Auxetic Structures'
p4402
sL1601L
S'Compliant Mechanism Design With Non-Linear Materials Using Topology Optimization'
p4403
sL1602L
S'An Interactive Virtual Environment for 3D Model Assembly With Video Immersion'
p4404
sL1603L
S'Modeling of Hydraulic Hose Paths'
p4405
sL1604L
S'Math-Based Performance Evaluation of an Experimental Car: Frontal Impact Crashworthiness'
p4406
ssb.