ccopy_reg
_reconstructor
p0
(c__main__
CitationNetwork
p1
c__builtin__
object
p2
Ntp3
Rp4
(dp5
S'network_dict'
p6
(dp7
L1536L
c__builtin__
set
p8
((lp9
tp10
Rp11
sL1537L
g8
((lp12
tp13
Rp14
sL1538L
g8
((lp15
tp16
Rp17
sL1539L
g8
((lp18
tp19
Rp20
sL1540L
g8
((lp21
tp22
Rp23
sL1541L
g8
((lp24
tp25
Rp26
sL1542L
g8
((lp27
tp28
Rp29
sL1543L
g8
((lp30
tp31
Rp32
sL1544L
g8
((lp33
tp34
Rp35
sL1545L
g8
((lp36
tp37
Rp38
sL1546L
g8
((lp39
tp40
Rp41
sL1547L
g8
((lp42
tp43
Rp44
sL1548L
g8
((lp45
tp46
Rp47
sL1549L
g8
((lp48
tp49
Rp50
sL1550L
g8
((lp51
tp52
Rp53
sL1551L
g8
((lp54
tp55
Rp56
sL1552L
g8
((lp57
tp58
Rp59
sL1553L
g8
((lp60
tp61
Rp62
sL1554L
g8
((lp63
tp64
Rp65
sL1555L
g8
((lp66
tp67
Rp68
sL1556L
g8
((lp69
tp70
Rp71
sL1557L
g8
((lp72
tp73
Rp74
sL1558L
g8
((lp75
tp76
Rp77
sL1559L
g8
((lp78
tp79
Rp80
sL1560L
g8
((lp81
tp82
Rp83
sL1561L
g8
((lp84
tp85
Rp86
sL1562L
g8
((lp87
tp88
Rp89
sL1563L
g8
((lp90
tp91
Rp92
sL1564L
g8
((lp93
tp94
Rp95
sL1565L
g8
((lp96
tp97
Rp98
sL1566L
g8
((lp99
tp100
Rp101
sL1567L
g8
((lp102
tp103
Rp104
sL1568L
g8
((lp105
tp106
Rp107
sL1569L
g8
((lp108
tp109
Rp110
sL1570L
g8
((lp111
tp112
Rp113
sL1571L
g8
((lp114
tp115
Rp116
sL1572L
g8
((lp117
tp118
Rp119
sL1573L
g8
((lp120
tp121
Rp122
sL1574L
g8
((lp123
tp124
Rp125
sL1575L
g8
((lp126
tp127
Rp128
sL1576L
g8
((lp129
tp130
Rp131
sL1577L
g8
((lp132
tp133
Rp134
sL1578L
g8
((lp135
tp136
Rp137
sL1579L
g8
((lp138
tp139
Rp140
sL1580L
g8
((lp141
tp142
Rp143
sL1581L
g8
((lp144
tp145
Rp146
sL1583L
g8
((lp147
tp148
Rp149
sL1584L
g8
((lp150
tp151
Rp152
sL1585L
g8
((lp153
tp154
Rp155
sL1587L
g8
((lp156
tp157
Rp158
sL1588L
g8
((lp159
tp160
Rp161
sL1589L
g8
((lp162
tp163
Rp164
sL1590L
g8
((lp165
tp166
Rp167
sL1591L
g8
((lp168
tp169
Rp170
sL1592L
g8
((lp171
tp172
Rp173
sL1593L
g8
((lp174
tp175
Rp176
sL1594L
g8
((lp177
tp178
Rp179
sL1595L
g8
((lp180
tp181
Rp182
sL1596L
g8
((lp183
tp184
Rp185
sL1597L
g8
((lp186
tp187
Rp188
sL1598L
g8
((lp189
tp190
Rp191
sL1599L
g8
((lp192
tp193
Rp194
sL1600L
g8
((lp195
tp196
Rp197
sL1601L
g8
((lp198
tp199
Rp200
sL1602L
g8
((lp201
tp202
Rp203
sL1603L
g8
((lp204
L1518L
atp205
Rp206
sL1604L
g8
((lp207
L1527L
atp208
Rp209
sL1483L
g8
((lp210
tp211
Rp212
sL1484L
g8
((lp213
tp214
Rp215
sL1486L
g8
((lp216
tp217
Rp218
sL1488L
g8
((lp219
tp220
Rp221
sL1489L
g8
((lp222
tp223
Rp224
sL1490L
g8
((lp225
tp226
Rp227
sL1491L
g8
((lp228
tp229
Rp230
sL1492L
g8
((lp231
tp232
Rp233
sL1493L
g8
((lp234
tp235
Rp236
sL1494L
g8
((lp237
tp238
Rp239
sL1495L
g8
((lp240
tp241
Rp242
sL1496L
g8
((lp243
tp244
Rp245
sL1497L
g8
((lp246
tp247
Rp248
sL1498L
g8
((lp249
tp250
Rp251
sL1499L
g8
((lp252
tp253
Rp254
sL1500L
g8
((lp255
tp256
Rp257
sL1501L
g8
((lp258
tp259
Rp260
sL1502L
g8
((lp261
tp262
Rp263
sL1503L
g8
((lp264
tp265
Rp266
sL1504L
g8
((lp267
tp268
Rp269
sL1505L
g8
((lp270
tp271
Rp272
sL1506L
g8
((lp273
tp274
Rp275
sL1507L
g8
((lp276
tp277
Rp278
sL1508L
g8
((lp279
tp280
Rp281
sL1509L
g8
((lp282
tp283
Rp284
sL1510L
g8
((lp285
tp286
Rp287
sL1511L
g8
((lp288
tp289
Rp290
sL1512L
g8
((lp291
tp292
Rp293
sL1513L
g8
((lp294
tp295
Rp296
sL1515L
g8
((lp297
tp298
Rp299
sL1516L
g8
((lp300
tp301
Rp302
sL1517L
g8
((lp303
tp304
Rp305
sL1518L
g8
((lp306
L1603L
atp307
Rp308
sL1519L
g8
((lp309
tp310
Rp311
sL1520L
g8
((lp312
tp313
Rp314
sL1521L
g8
((lp315
tp316
Rp317
sL1522L
g8
((lp318
tp319
Rp320
sL1523L
g8
((lp321
tp322
Rp323
sL1524L
g8
((lp324
tp325
Rp326
sL1525L
g8
((lp327
tp328
Rp329
sL1526L
g8
((lp330
tp331
Rp332
sL1527L
g8
((lp333
L1604L
atp334
Rp335
sL1528L
g8
((lp336
tp337
Rp338
sL1529L
g8
((lp339
tp340
Rp341
sL1530L
g8
((lp342
tp343
Rp344
sL1531L
g8
((lp345
tp346
Rp347
sL1532L
g8
((lp348
tp349
Rp350
sL1533L
g8
((lp351
tp352
Rp353
sL1534L
g8
((lp354
L1534L
atp355
Rp356
sL1535L
g8
((lp357
tp358
Rp359
ssS'names'
p360
(dp361
L1536L
S'Control, Design and Error Variables in Decomposition of Design Optimization Problems'
p362
sL1537L
S'Decomposition-Based Assembly Synthesis for In-Process Dimensional Adjustability'
p363
sL1538L
S'A Grammar-Based Approach to Sheet Metal Design'
p364
sL1539L
S'Adaptive-Agent Based Simulation Model to Study Diffusion of Eco-Innovation Strategies'
p365
sL1540L
S'A Knowledge-Based Approach to Spur Gear Fabrication in Precision Forging Process'
p366
sL1541L
S'A Benchmark Comparison of Curvature Matched Machining versus Three- and Five-Axis Machining Methods Applied to Industrial Part Surfaces'
p367
sL1542L
S'Adaptive Experimental Design Applied to Ergonomics Testing Procedure'
p368
sL1543L
S'On Sequential Sampling for Global Metamodeling in Engineering Design'
p369
sL1544L
S'Computer Implementation of an Improved Kutzbach-Grubler Mobility Criterion'
p370
sL1545L
S'Modeling of Slope Discontinuities in Flexible Body Dynamics Using the Finite Element Method'
p371
sL1546L
S'Design of Hierarchic Platforms for Customizable Products'
p372
sL1547L
S'A Quantitative Approach for Designing Multiple Product Platforms for an Evolving Portfolio of Products'
p373
sL1548L
S'Optimal Design Decisions in Product Portfolio Valuation'
p374
sL1549L
S'Knowledge Intensive Support for Product Family Design'
p375
sL1550L
S'Platform Selection Under Performance Loss Constraints in Optimal Design of Product Families'
p376
sL1551L
S'Inverse Parametric Modeling From Independently Generated Product Data Sets'
p377
sL1552L
S'A Hybrid Approach to Feature Recognition Using Approximate and Partial Exact CAD Models'
p378
sL1553L
S'A Mesh Feature Paradigm for Rapid Generation of CAE-Based Design of Experiments Data'
p379
sL1554L
S'Development of Adaptive Range Genetic Algorithms Considering Inheritance of Searching Range'
p380
sL1555L
S'GA-Based Multi-Objective Fuzzy Matter-Element Optimization'
p381
sL1556L
S'Using Genetic Algorithms With Niche Formation to Solve the Minimum Distance Problem Among Concave Objects'
p382
sL1557L
S'A Genetic Algorithm Based Method for Product Family Design Optimization'
p383
sL1558L
S'Shape Optimization of NURBS Modeled 3D C-Frames Using Hybrid Genetic Algorithm'
p384
sL1559L
S'Robust Design Through the Use of a Hybrid Genetic Algorithm'
p385
sL1560L
S'Nonlinear Kinematic Tolerance Analysis of Planar Higher Pairs'
p386
sL1561L
S'Parameter Sensitivity in System Identification of Parallel Mechanisms'
p387
sL1562L
S'A New Symbolic Method to Determine Base Inertia Parameters for General Spatial Mechanisms'
p388
sL1563L
S'Redesign of a Spatial Gear Pair Using Configuration Spaces'
p389
sL1564L
S'Error Sensitivity Analysis for Optimal Calibration of Parallel Kinematic Machines'
p390
sL1565L
S'Development of an Interactive Web-Based Support System for Gear Design'
p391
sL1566L
S'An Extensive Simplex Method Mapping the Global Feasibility'
p392
sL1567L
S'Theoretical Evaluation of the Integrated Structure and Control Design Approach by Optimization Theory'
p393
sL1568L
S'Finding the Shortest Path for Quality Assurance of Electric Components'
p394
sL1569L
S'Development of an Automatic Design and Optimization System for Industrial Silencers'
p395
sL1570L
S'Architectural Optimisation Using Real Options Theory and Dependency Structure Matrices'
p396
sL1571L
S'Dynamic Analysis and Optimization of Tensioner in Automotive Serpentine Belt Drive Systems'
p397
sL1572L
S'Configurable and Extensible System for Experimenting With Design Optimization'
p398
sL1573L
S'On the Entropy of Multi-Objective Design Optimization Solution Sets'
p399
sL1574L
S'A Sensitivity-Based Pattern Search Algorithm for 3D Component Layout'
p400
sL1575L
S'Hybrid Approach for Containment Problems'
p401
sL1576L
S'A Non-Deterministic Approach to Concept Selection Using S-Pareto Frontiers'
p402
sL1577L
S'Sequential Optimization and Reliability Assessment Method for Efficient Probabilistic Design'
p403
sL1578L
S'An Investigation of Nonlinearity of Reliability-Based Design Optimization Approaches'
p404
sL1579L
S'New Concepts in Graphic Visualization of Objective Functions'
p405
sL1580L
S'Visualization of Multidimensional Design and Optimization Data Using Cloud Visualization'
p406
sL1581L
S'Design Optimization for Structural-Acoustic Problems Using FEM-BEM'
p407
sL1583L
S'Dynamic Project Navigation: Modelling, Improving, and Review of Engineering Processes'
p408
sL1584L
S'Benefit Evaluation of New Technologies'
p409
sL1585L
S'Smart Assemblies for Robust Design: A Progress Report'
p410
sL1587L
S'The Evolution of a Layered Manufacturing Interchange Format'
p411
sL1588L
S'ModelAngelo: A Rapid Prototyping System for Polystyrene'
p412
sL1589L
S'Automatic Process Planning of a Multi-Axis Hybrid Manufacturing System'
p413
sL1590L
S'H-ISM: An Implementation of Heterogeneous Implicit Solid Modeling'
p414
sL1591L
S'Model Validation via Uncertainty Propagation Using Response Surface Models'
p415
sL1592L
S'Bayesian Evaluation of Engineering Models'
p416
sL1593L
S'Uncertainty Analysis Using a Constraint Reliability Index'
p417
sL1594L
S'A Tool Management System for Probabilistic Design Problems'
p418
sL1595L
S'Evaluation of Conceptual Designs and Maintainability Incorporating Uncertainty'
p419
sL1596L
S'Computer-Aided Fixture Design Verification: Part II -- Tolerance Analysis'
p420
sL1597L
S'A Scheme for Transformation of Tolerance Specifications to Generalized Deviation Space for Use in Tolerance Synthesis and Analysis'
p421
sL1598L
S'Topology Optimization of Compliant Mechanisms Using Evolutionary Algorithm With Design Geometry Encoded as a Graph'
p422
sL1599L
S'Optimal Embedding in the Topology Design of Structures'
p423
sL1600L
S'An Evolutionary Multi-Objective Optimization Approach to the Topology Optimization of Auxetic Structures'
p424
sL1601L
S'Compliant Mechanism Design With Non-Linear Materials Using Topology Optimization'
p425
sL1602L
S'An Interactive Virtual Environment for 3D Model Assembly With Video Immersion'
p426
sL1603L
S'Modeling of Hydraulic Hose Paths'
p427
sL1604L
S'Math-Based Performance Evaluation of an Experimental Car: Frontal Impact Crashworthiness'
p428
sL1483L
S'An Approach for Generating Variational Geometry of a Pattern of Holes With Composite Positional Tolerances'
p429
sL1484L
S'Design Decision-Making in the Early Stages of Collaborative Engineering'
p430
sL1486L
S'Identifying Variable Effects on the Dimensional Quality of Compliant Assembly, Using Computer Experiments'
p431
sL1488L
S'Reconstructing Freeform Surface With Parameterized Features'
p432
sL1489L
S'Analysis and Design of a Four-Bar Linkage Type of Vibratory Parts Feeder Driven by Piezoelectric Actuator'
p433
sL1490L
S'Autogenetic Design Theory: An Approach to Optimise Both the Design Process and the Product'
p434
sL1491L
S'Human Head Aesthetic Design Using Hybrid Genetic Algorithm'
p435
sL1492L
S'Applying Universal Linking of Engineering Objects in the Automotive Industry: Practical Aspects, Benefits, and Prototypes'
p436
sL1493L
S'Mini-Max Type Formulation of Strict Robust Design Optimization Under Correlative Variation'
p437
sL1494L
S'Optimization of Machine System Designs Using Hierarchical Decomposition Based on Criteria Influence'
p438
sL1495L
S'Lifecycle-Based Product Design Using Global Optimization Methods Based on Hierarchical Genotype Representation of Alternatives and Constraints'
p439
sL1496L
S'Conceptual Design of Tool Storage Based on the Divergent Tree Method'
p440
sL1497L
S'Comparison of Gradient and Non Gradient Based Methods for Crash Optimisation'
p441
sL1498L
S'Computational Geometric Modeling and Unfolding of 3-D Folded Structures'
p442
sL1499L
S'Performance Optimization of Extrusion Blow Molded Parts Using Fuzzy Neural-Taguchi Method and Genetic Algorithm'
p443
sL1500L
S'An Evolutionary Clustering Approach to Pareto Solutions in Multiobjective Optimization'
p444
sL1501L
S'Automatic Conceptual Design of Mechanical Devices Based on Reasoning the Design Rules'
p445
sL1502L
S'A Study on Collaborative Design Considering Features of Design'
p446
sL1503L
S'Reconfiguration of Kinematic Structure for Changing Motion Requirement Based on Reusability Evaluation in Lie Algebra'
p447
sL1504L
S'A Study on Optimum Topology of Plate Structure Using Coordinate Transformation by Conformal Mapping'
p448
sL1505L
S'Computer-Aided Analysis of Free Transverse-Vibration of Stepped Beams'
p449
sL1506L
S'Thermal Robustness and Mass Optimization of Heat Pipe Shape for Spacecraft Panel Using a Combination of Response Surface Methodology and Monte Carlo Simulation'
p450
sL1507L
S'Dual Stage Input Coupled Split Power Transmission Efficiency Optimization'
p451
sL1508L
S'Informing Design Using Data Mining Methods'
p452
sL1509L
S'Development of Multi-Stage and Hybrid Real-Coded Genetic Algorithms With Active Constraints'
p453
sL1510L
S'Computational Recognition of Functional Parameters of Surfaces for the Kinematic Design of Window Regulator Systems'
p454
sL1511L
S'Human Modelling: A Constraint-Based Feature Modelling Approach'
p455
sL1512L
S'Analysis of Loads and Stresses for a Sewing Needle'
p456
sL1513L
S'Artificial Immune System Based Isomorphism Identification Method for Mechanism Kinematics Chains'
p457
sL1515L
S'Cross Model Shape Reuse: Copying and Pasting of Freeform Features'
p458
sL1516L
S'Automated Design Synthesis for Micro-Electro-Mechanical Systems (MEMS)'
p459
sL1517L
S'Use of Constrained Viscoelastic Layers in the Design of Satellite Panels to Predict the Amplification Factor'
p460
sL1518L
S'Stiffness Testing of Hydraulic Hoses'
p461
sL1519L
S'Finite Element Analysis in 3D Using the Penalty Boundary Method'
p462
sL1520L
S'Integration of Commercial CAD/CAM System With Custom CAPP Using Orbix Middleware and CORBA Standard'
p463
sL1521L
S'Counting Degrees of Freedom for Developable Bezier Surface Design'
p464
sL1522L
S'Determination of Geometric Distortions in Automotive Lamps Using Non-Linear Parametric Estimations'
p465
sL1523L
S'Macroscopic Shape-Information as a Curve Design-Guideline'
p466
sL1524L
S'Collaborative Decision Making Across Digital Interfaces'
p467
sL1525L
S'Local Least Squares Fitting for Surface Mesh Fairing in Automobile Panel Design'
p468
sL1526L
S'A Stochastic Optimization Application for Vehicle Structures'
p469
sL1527L
S'Math-Based Performance Evaluation of an Experimental Car: Side Impact Protection'
p470
sL1528L
S'Model Reduction in Structural Analysis Using a Multiresolution Analysis'
p471
sL1529L
S'A Web Enabled Process for Accessing Customized Parametric Designs'
p472
sL1530L
S'Multiattribute Decision Making Using Hypothetical Equivalents'
p473
sL1531L
S'Interactive Product Design Selection With an Implicit Value Function'
p474
sL1532L
S'A Customer-Based Expected Utility Metric for Product Design Selection'
p475
sL1533L
S'Empirical Analysis Using Advanced Similarity Methods'
p476
sL1534L
S'Decomposition-Based Assembly Synthesis Based on Structural Stiffness Considerations'
p477
sL1535L
S'An Analytical Approach to Functional Design'
p478
ssb.