ccopy_reg
_reconstructor
p0
(c__main__
CitationNetwork
p1
c__builtin__
object
p2
Ntp3
Rp4
(dp5
S'network_dict'
p6
(dp7
L969L
c__builtin__
set
p8
((lp9
L1186L
aL1187L
aL1428L
aL1222L
atp10
Rp11
sL970L
g8
((lp12
L1132L
aL1222L
atp13
Rp14
sL971L
g8
((lp15
tp16
Rp17
sL972L
g8
((lp18
tp19
Rp20
sL973L
g8
((lp21
tp22
Rp23
sL974L
g8
((lp24
L1550L
aL1255L
atp25
Rp26
sL975L
g8
((lp27
tp28
Rp29
sL976L
g8
((lp30
tp31
Rp32
sL977L
g8
((lp33
tp34
Rp35
sL978L
g8
((lp36
L1238L
atp37
Rp38
sL979L
g8
((lp39
tp40
Rp41
sL980L
g8
((lp42
L1414L
atp43
Rp44
sL981L
g8
((lp45
tp46
Rp47
sL982L
g8
((lp48
L1196L
atp49
Rp50
sL983L
g8
((lp51
tp52
Rp53
sL984L
g8
((lp54
tp55
Rp56
sL985L
g8
((lp57
tp58
Rp59
sL986L
g8
((lp60
L1110L
aL1422L
atp61
Rp62
sL987L
g8
((lp63
L1141L
atp64
Rp65
sL988L
g8
((lp66
tp67
Rp68
sL989L
g8
((lp69
tp70
Rp71
sL990L
g8
((lp72
tp73
Rp74
sL991L
g8
((lp75
L1134L
atp76
Rp77
sL992L
g8
((lp78
tp79
Rp80
sL993L
g8
((lp81
L1317L
atp82
Rp83
sL994L
g8
((lp84
L1368L
atp85
Rp86
sL995L
g8
((lp87
L1368L
atp88
Rp89
sL996L
g8
((lp90
tp91
Rp92
sL997L
g8
((lp93
tp94
Rp95
sL998L
g8
((lp96
tp97
Rp98
sL999L
g8
((lp99
L1346L
atp100
Rp101
sL1000L
g8
((lp102
L1169L
atp103
Rp104
sL1001L
g8
((lp105
tp106
Rp107
sL1002L
g8
((lp108
L1162L
atp109
Rp110
sL1003L
g8
((lp111
tp112
Rp113
sL1004L
g8
((lp114
tp115
Rp116
sL1005L
g8
((lp117
tp118
Rp119
sL1006L
g8
((lp120
L1106L
atp121
Rp122
sL1007L
g8
((lp123
L1010L
aL1542L
atp124
Rp125
sL1008L
g8
((lp126
L1250L
aL1327L
aL1271L
aL1543L
atp127
Rp128
sL1009L
g8
((lp129
tp130
Rp131
sL1010L
g8
((lp132
L1250L
aL1542L
aL1321L
aL1580L
aL1391L
aL1168L
aL1007L
aL1341L
atp133
Rp134
sL1012L
g8
((lp135
L1012L
atp136
Rp137
sL1013L
g8
((lp138
L1592L
aL1271L
atp139
Rp140
sL1014L
g8
((lp141
tp142
Rp143
sL1015L
g8
((lp144
tp145
Rp146
sL1016L
g8
((lp147
tp148
Rp149
sL1017L
g8
((lp150
tp151
Rp152
sL1018L
g8
((lp153
tp154
Rp155
sL1019L
g8
((lp156
tp157
Rp158
sL1020L
g8
((lp159
tp160
Rp161
sL1021L
g8
((lp162
tp163
Rp164
sL1022L
g8
((lp165
tp166
Rp167
sL1023L
g8
((lp168
tp169
Rp170
sL1024L
g8
((lp171
L1553L
atp172
Rp173
sL1025L
g8
((lp174
L1515L
atp175
Rp176
sL1026L
g8
((lp177
tp178
Rp179
sL1027L
g8
((lp180
tp181
Rp182
sL1028L
g8
((lp183
tp184
Rp185
sL1029L
g8
((lp186
L1367L
atp187
Rp188
sL1030L
g8
((lp189
L1134L
aL1367L
atp190
Rp191
sL1031L
g8
((lp192
tp193
Rp194
sL1032L
g8
((lp195
tp196
Rp197
sL1033L
g8
((lp198
tp199
Rp200
sL1034L
g8
((lp201
tp202
Rp203
sL1035L
g8
((lp204
tp205
Rp206
sL1036L
g8
((lp207
L1182L
atp208
Rp209
sL1037L
g8
((lp210
tp211
Rp212
sL1038L
g8
((lp213
tp214
Rp215
sL1039L
g8
((lp216
L1222L
atp217
Rp218
sL1040L
g8
((lp219
L1287L
atp220
Rp221
sL1041L
g8
((lp222
L1366L
atp223
Rp224
sL1042L
g8
((lp225
tp226
Rp227
sL1043L
g8
((lp228
L1366L
atp229
Rp230
sL1044L
g8
((lp231
tp232
Rp233
sL1045L
g8
((lp234
tp235
Rp236
sL1046L
g8
((lp237
L1048L
aL1547L
atp238
Rp239
sL1048L
g8
((lp240
L1547L
aL1046L
aL1183L
atp241
Rp242
sL1049L
g8
((lp243
tp244
Rp245
sL1050L
g8
((lp246
L1057L
aL1189L
atp247
Rp248
sL1052L
g8
((lp249
L1248L
aL1313L
aL1060L
aL1349L
aL1546L
aL1547L
aL1557L
aL1052L
atp250
Rp251
sL1053L
g8
((lp252
L1239L
aL1196L
aL1109L
aL1557L
atp253
Rp254
sL1054L
g8
((lp255
L1353L
aL1546L
aL1547L
aL1548L
aL1550L
aL1557L
atp256
Rp257
sL1055L
g8
((lp258
tp259
Rp260
sL1056L
g8
((lp261
L1366L
atp262
Rp263
sL1057L
g8
((lp264
L1050L
atp265
Rp266
sL1058L
g8
((lp267
tp268
Rp269
sL1059L
g8
((lp270
L1416L
atp271
Rp272
sL1060L
g8
((lp273
L1248L
aL1251L
aL1190L
aL1191L
aL1193L
aL1557L
aL1353L
aL1052L
atp274
Rp275
sL1061L
g8
((lp276
tp277
Rp278
sL1062L
g8
((lp279
L1358L
atp280
Rp281
sL1063L
g8
((lp282
tp283
Rp284
sL1064L
g8
((lp285
L1589L
aL1358L
atp286
Rp287
sL1065L
g8
((lp288
tp289
Rp290
sL1066L
g8
((lp291
tp292
Rp293
sL1067L
g8
((lp294
L1264L
aL1577L
aL1267L
aL1342L
aL1200L
atp295
Rp296
sL1068L
g8
((lp297
L1201L
aL1390L
atp298
Rp299
sL1069L
g8
((lp300
L1366L
atp301
Rp302
sL1070L
g8
((lp303
L1072L
aL1201L
atp304
Rp305
sL1071L
g8
((lp306
L1264L
aL1577L
aL1342L
atp307
Rp308
sL1072L
g8
((lp309
L1070L
atp310
Rp311
sL1073L
g8
((lp312
L1264L
aL1577L
atp313
Rp314
sL1074L
g8
((lp315
L1348L
atp316
Rp317
sL1075L
g8
((lp318
tp319
Rp320
sL1076L
g8
((lp321
tp322
Rp323
sL1077L
g8
((lp324
tp325
Rp326
sL1078L
g8
((lp327
L1264L
aL1577L
aL1342L
atp328
Rp329
sL1079L
g8
((lp330
L1271L
atp331
Rp332
sL1080L
g8
((lp333
L1080L
atp334
Rp335
sL1081L
g8
((lp336
tp337
Rp338
sL1082L
g8
((lp339
tp340
Rp341
sL1083L
g8
((lp342
tp343
Rp344
sL1084L
g8
((lp345
tp346
Rp347
sL1085L
g8
((lp348
L1200L
aL1205L
aL1286L
atp349
Rp350
sL1086L
g8
((lp351
tp352
Rp353
sL1087L
g8
((lp354
tp355
Rp356
sL1088L
g8
((lp357
L1301L
atp358
Rp359
sL1089L
g8
((lp360
tp361
Rp362
sL1090L
g8
((lp363
tp364
Rp365
sL1091L
g8
((lp366
tp367
Rp368
sL1092L
g8
((lp369
tp370
Rp371
sL1093L
g8
((lp372
tp373
Rp374
sL1094L
g8
((lp375
tp376
Rp377
sL1095L
g8
((lp378
L1326L
atp379
Rp380
sL1096L
g8
((lp381
L1282L
aL1399L
aL1325L
aL1238L
aL1415L
atp382
Rp383
sL1097L
g8
((lp384
tp385
Rp386
sL1098L
g8
((lp387
tp388
Rp389
sL1099L
g8
((lp390
tp391
Rp392
sL1100L
g8
((lp393
tp394
Rp395
sL1101L
g8
((lp396
tp397
Rp398
sL1102L
g8
((lp399
tp400
Rp401
sL1103L
g8
((lp402
tp403
Rp404
sL1104L
g8
((lp405
tp406
Rp407
sL1105L
g8
((lp408
tp409
Rp410
sL1106L
g8
((lp411
L1006L
atp412
Rp413
sL1107L
g8
((lp414
L1530L
atp415
Rp416
sL1108L
g8
((lp417
tp418
Rp419
sL1109L
g8
((lp420
L1053L
atp421
Rp422
sL1110L
g8
((lp423
L986L
aL1422L
atp424
Rp425
sL1111L
g8
((lp426
tp427
Rp428
sL1112L
g8
((lp429
tp430
Rp431
sL1113L
g8
((lp432
tp433
Rp434
sL1114L
g8
((lp435
tp436
Rp437
sL1115L
g8
((lp438
L1250L
atp439
Rp440
sL1116L
g8
((lp441
L1282L
atp442
Rp443
sL1117L
g8
((lp444
tp445
Rp446
sL1118L
g8
((lp447
tp448
Rp449
sL1119L
g8
((lp450
L1435L
atp451
Rp452
sL1120L
g8
((lp453
tp454
Rp455
sL1121L
g8
((lp456
tp457
Rp458
sL1122L
g8
((lp459
tp460
Rp461
sL1123L
g8
((lp462
L1124L
atp463
Rp464
sL1124L
g8
((lp465
L1403L
aL1123L
atp466
Rp467
sL1125L
g8
((lp468
tp469
Rp470
sL1126L
g8
((lp471
tp472
Rp473
sL1127L
g8
((lp474
tp475
Rp476
sL1128L
g8
((lp477
tp478
Rp479
sL1129L
g8
((lp480
tp481
Rp482
sL1130L
g8
((lp483
tp484
Rp485
sL1131L
g8
((lp486
tp487
Rp488
sL1132L
g8
((lp489
L970L
atp490
Rp491
sL1133L
g8
((lp492
L1321L
aL1327L
aL1543L
atp493
Rp494
sL1134L
g8
((lp495
L1553L
aL1030L
aL991L
atp496
Rp497
sL1135L
g8
((lp498
tp499
Rp500
sL1136L
g8
((lp501
tp502
Rp503
sL1137L
g8
((lp504
L1137L
atp505
Rp506
sL1138L
g8
((lp507
L1269L
atp508
Rp509
sL1139L
g8
((lp510
L1252L
atp511
Rp512
sL1140L
g8
((lp513
tp514
Rp515
sL1141L
g8
((lp516
L987L
atp517
Rp518
sL1142L
g8
((lp519
tp520
Rp521
sL1143L
g8
((lp522
tp523
Rp524
sL1144L
g8
((lp525
tp526
Rp527
sL1145L
g8
((lp528
tp529
Rp530
sL1146L
g8
((lp531
tp532
Rp533
sL1147L
g8
((lp534
tp535
Rp536
sL1148L
g8
((lp537
tp538
Rp539
sL1149L
g8
((lp540
tp541
Rp542
sL1150L
g8
((lp543
tp544
Rp545
sL1151L
g8
((lp546
L1427L
atp547
Rp548
sL1152L
g8
((lp549
tp550
Rp551
sL1153L
g8
((lp552
tp553
Rp554
sL1155L
g8
((lp555
tp556
Rp557
sL1156L
g8
((lp558
tp559
Rp560
sL1157L
g8
((lp561
tp562
Rp563
sL1158L
g8
((lp564
tp565
Rp566
sL1159L
g8
((lp567
L1367L
atp568
Rp569
sL1160L
g8
((lp570
tp571
Rp572
sL1161L
g8
((lp573
tp574
Rp575
sL1162L
g8
((lp576
L1002L
aL1239L
atp577
Rp578
sL1163L
g8
((lp579
tp580
Rp581
sL1164L
g8
((lp582
tp583
Rp584
sL1165L
g8
((lp585
tp586
Rp587
sL1166L
g8
((lp588
L1271L
atp589
Rp590
sL1167L
g8
((lp591
tp592
Rp593
sL1168L
g8
((lp594
L1010L
atp595
Rp596
sL1169L
g8
((lp597
L1000L
atp598
Rp599
sL1170L
g8
((lp600
tp601
Rp602
sL1171L
g8
((lp603
tp604
Rp605
sL1172L
g8
((lp606
tp607
Rp608
sL1173L
g8
((lp609
tp610
Rp611
sL1174L
g8
((lp612
tp613
Rp614
sL1175L
g8
((lp615
tp616
Rp617
sL1176L
g8
((lp618
tp619
Rp620
sL1177L
g8
((lp621
L1232L
atp622
Rp623
sL1178L
g8
((lp624
L1385L
aL1271L
aL1319L
atp625
Rp626
sL1179L
g8
((lp627
L1288L
aL1406L
atp628
Rp629
sL1180L
g8
((lp630
tp631
Rp632
sL1181L
g8
((lp633
tp634
Rp635
sL1182L
g8
((lp636
L1036L
atp637
Rp638
sL1183L
g8
((lp639
L1048L
atp640
Rp641
sL1184L
g8
((lp642
L1248L
aL1309L
atp643
Rp644
sL1185L
g8
((lp645
L1239L
atp646
Rp647
sL1186L
g8
((lp648
L969L
aL1187L
aL1222L
atp649
Rp650
sL1187L
g8
((lp651
L969L
aL1186L
aL1428L
atp652
Rp653
sL1188L
g8
((lp654
L1313L
aL1546L
aL1251L
atp655
Rp656
sL1189L
g8
((lp657
L1248L
aL1050L
aL1349L
aL1239L
atp658
Rp659
sL1190L
g8
((lp660
L1328L
aL1060L
atp661
Rp662
sL1191L
g8
((lp663
L1546L
aL1547L
aL1060L
atp664
Rp665
sL1192L
g8
((lp666
L1557L
atp667
Rp668
sL1193L
g8
((lp669
L1251L
aL1060L
atp670
Rp671
sL1194L
g8
((lp672
L1239L
atp673
Rp674
sL1195L
g8
((lp675
tp676
Rp677
sL1196L
g8
((lp678
L1053L
aL982L
atp679
Rp680
sL1197L
g8
((lp681
L1264L
aL1577L
aL1578L
atp682
Rp683
sL1198L
g8
((lp684
L1250L
aL1395L
aL1339L
aL1341L
aL1342L
aL1343L
atp685
Rp686
sL1199L
g8
((lp687
L1220L
aL1577L
aL1264L
aL1493L
aL1307L
aL1342L
atp688
Rp689
sL1200L
g8
((lp690
L1067L
aL1578L
aL1267L
aL1085L
atp691
Rp692
sL1201L
g8
((lp693
L1264L
aL1068L
aL1070L
aL1342L
atp694
Rp695
sL1202L
g8
((lp696
L1264L
aL1577L
aL1343L
aL1295L
atp697
Rp698
sL1203L
g8
((lp699
L1577L
aL1284L
aL1366L
atp700
Rp701
sL1204L
g8
((lp702
L1337L
aL1271L
atp703
Rp704
sL1205L
g8
((lp705
L1347L
aL1284L
aL1577L
aL1264L
aL1559L
aL1085L
atp706
Rp707
sL1206L
g8
((lp708
L1271L
atp709
Rp710
sL1207L
g8
((lp711
tp712
Rp713
sL1208L
g8
((lp714
tp715
Rp716
sL1209L
g8
((lp717
tp718
Rp719
sL1210L
g8
((lp720
tp721
Rp722
sL1211L
g8
((lp723
tp724
Rp725
sL1212L
g8
((lp726
tp727
Rp728
sL1213L
g8
((lp729
tp730
Rp731
sL1214L
g8
((lp732
tp733
Rp734
sL1215L
g8
((lp735
tp736
Rp737
sL1216L
g8
((lp738
tp739
Rp740
sL1217L
g8
((lp741
tp742
Rp743
sL1218L
g8
((lp744
tp745
Rp746
sL1219L
g8
((lp747
tp748
Rp749
sL1220L
g8
((lp750
L1348L
aL1493L
aL1199L
atp751
Rp752
sL1221L
g8
((lp753
tp754
Rp755
sL1222L
g8
((lp756
L969L
aL970L
aL1186L
aL1039L
atp757
Rp758
sL1223L
g8
((lp759
L1515L
atp760
Rp761
sL1224L
g8
((lp762
tp763
Rp764
sL1225L
g8
((lp765
tp766
Rp767
sL1226L
g8
((lp768
L1414L
atp769
Rp770
sL1228L
g8
((lp771
tp772
Rp773
sL1229L
g8
((lp774
tp775
Rp776
sL1230L
g8
((lp777
tp778
Rp779
sL1231L
g8
((lp780
tp781
Rp782
sL1232L
g8
((lp783
L1177L
atp784
Rp785
sL1233L
g8
((lp786
L1398L
atp787
Rp788
sL1234L
g8
((lp789
tp790
Rp791
sL1236L
g8
((lp792
tp793
Rp794
sL1237L
g8
((lp795
tp796
Rp797
sL1238L
g8
((lp798
L1096L
aL978L
atp799
Rp800
sL1239L
g8
((lp801
L1185L
aL1189L
aL1162L
aL1053L
aL1239L
aL1194L
atp802
Rp803
sL1240L
g8
((lp804
tp805
Rp806
sL1241L
g8
((lp807
L1399L
atp808
Rp809
sL1242L
g8
((lp810
tp811
Rp812
sL1243L
g8
((lp813
L1553L
atp814
Rp815
sL1244L
g8
((lp816
tp817
Rp818
sL1245L
g8
((lp819
tp820
Rp821
sL1246L
g8
((lp822
tp823
Rp824
sL1247L
g8
((lp825
tp826
Rp827
sL1248L
g8
((lp828
L1352L
aL1184L
aL1052L
aL1189L
aL1060L
atp829
Rp830
sL1249L
g8
((lp831
tp832
Rp833
sL1250L
g8
((lp834
L1008L
aL1010L
aL1115L
aL1198L
atp835
Rp836
sL1251L
g8
((lp837
L1193L
aL1188L
aL1349L
aL1060L
atp838
Rp839
sL1252L
g8
((lp840
L1368L
aL1139L
atp841
Rp842
sL1253L
g8
((lp843
L1540L
atp844
Rp845
sL1254L
g8
((lp846
tp847
Rp848
sL1255L
g8
((lp849
L974L
atp850
Rp851
sL1256L
g8
((lp852
tp853
Rp854
sL1257L
g8
((lp855
L1410L
atp856
Rp857
sL1258L
g8
((lp858
tp859
Rp860
sL1259L
g8
((lp861
tp862
Rp863
sL1260L
g8
((lp864
tp865
Rp866
sL1261L
g8
((lp867
L1422L
atp868
Rp869
sL1262L
g8
((lp870
L1376L
aL1382L
atp871
Rp872
sL1263L
g8
((lp873
tp874
Rp875
sL1264L
g8
((lp876
L1199L
aL1284L
aL1073L
aL1577L
aL1067L
aL1197L
aL1071L
aL1295L
aL1201L
aL1202L
aL1205L
aL1078L
aL1307L
aL1308L
atp877
Rp878
sL1265L
g8
((lp879
tp880
Rp881
sL1266L
g8
((lp882
tp883
Rp884
sL1267L
g8
((lp885
L1200L
aL1067L
atp886
Rp887
sL1268L
g8
((lp888
tp889
Rp890
sL1269L
g8
((lp891
L1138L
atp892
Rp893
sL1270L
g8
((lp894
L1353L
aL1547L
atp895
Rp896
sL1271L
g8
((lp897
L1543L
aL1166L
aL1008L
aL1395L
aL1204L
aL1013L
aL1206L
aL1079L
aL1178L
atp898
Rp899
sL1272L
g8
((lp900
L1362L
aL1534L
atp901
Rp902
sL1273L
g8
((lp903
tp904
Rp905
sL1274L
g8
((lp906
L1590L
atp907
Rp908
sL1275L
g8
((lp909
tp910
Rp911
sL1276L
g8
((lp912
tp913
Rp914
sL1277L
g8
((lp915
L1278L
atp916
Rp917
sL1278L
g8
((lp918
L1277L
atp919
Rp920
sL1279L
g8
((lp921
L1577L
aL1391L
aL1393L
atp922
Rp923
sL1280L
g8
((lp924
L1531L
atp925
Rp926
sL1281L
g8
((lp927
L1530L
atp928
Rp929
sL1282L
g8
((lp930
L1096L
aL1116L
aL1415L
atp931
Rp932
sL1283L
g8
((lp933
tp934
Rp935
sL1284L
g8
((lp936
L1264L
aL1577L
aL1203L
aL1205L
atp937
Rp938
sL1285L
g8
((lp939
tp940
Rp941
sL1286L
g8
((lp942
L1085L
aL1591L
atp943
Rp944
sL1287L
g8
((lp945
L1040L
aL1494L
atp946
Rp947
sL1288L
g8
((lp948
L1179L
aL1406L
atp949
Rp950
sL1289L
g8
((lp951
tp952
Rp953
sL1290L
g8
((lp954
L1422L
atp955
Rp956
sL1291L
g8
((lp957
tp958
Rp959
sL1292L
g8
((lp960
tp961
Rp962
sL1293L
g8
((lp963
L1489L
atp964
Rp965
sL1294L
g8
((lp966
tp967
Rp968
sL1295L
g8
((lp969
L1264L
aL1577L
aL1202L
aL1339L
aL1308L
atp970
Rp971
sL1296L
g8
((lp972
L1500L
atp973
Rp974
sL1297L
g8
((lp975
tp976
Rp977
sL1298L
g8
((lp978
tp979
Rp980
sL1299L
g8
((lp981
L1365L
atp982
Rp983
sL1300L
g8
((lp984
L1574L
atp985
Rp986
sL1301L
g8
((lp987
L1088L
atp988
Rp989
sL1302L
g8
((lp990
L1400L
aL1548L
atp991
Rp992
sL1303L
g8
((lp993
tp994
Rp995
sL1304L
g8
((lp996
tp997
Rp998
sL1305L
g8
((lp999
L1541L
atp1000
Rp1001
sL1306L
g8
((lp1002
tp1003
Rp1004
sL1307L
g8
((lp1005
L1264L
aL1577L
aL1308L
aL1199L
atp1006
Rp1007
sL1308L
g8
((lp1008
L1264L
aL1577L
aL1307L
aL1295L
atp1009
Rp1010
sL1309L
g8
((lp1011
L1352L
aL1184L
aL1349L
atp1012
Rp1013
sL1310L
g8
((lp1014
tp1015
Rp1016
sL1311L
g8
((lp1017
L1516L
atp1018
Rp1019
sL1312L
g8
((lp1020
tp1021
Rp1022
sL1313L
g8
((lp1023
L1347L
aL1188L
aL1349L
aL1350L
aL1352L
aL1547L
aL1550L
aL1052L
atp1024
Rp1025
sL1315L
g8
((lp1026
tp1027
Rp1028
sL1316L
g8
((lp1029
L1577L
atp1030
Rp1031
sL1317L
g8
((lp1032
L993L
aL1411L
atp1033
Rp1034
sL1318L
g8
((lp1035
tp1036
Rp1037
sL1319L
g8
((lp1038
L1178L
aL1390L
atp1039
Rp1040
sL1320L
g8
((lp1041
L1323L
atp1042
Rp1043
sL1321L
g8
((lp1044
L1010L
aL1573L
aL1133L
atp1045
Rp1046
sL1322L
g8
((lp1047
tp1048
Rp1049
sL1323L
g8
((lp1050
L1320L
atp1051
Rp1052
sL1324L
g8
((lp1053
tp1054
Rp1055
sL1325L
g8
((lp1056
L1096L
atp1057
Rp1058
sL1326L
g8
((lp1059
L1095L
atp1060
Rp1061
sL1327L
g8
((lp1062
L1008L
aL1133L
aL1543L
atp1063
Rp1064
sL1328L
g8
((lp1065
L1190L
atp1066
Rp1067
sL1329L
g8
((lp1068
tp1069
Rp1070
sL1330L
g8
((lp1071
tp1072
Rp1073
sL1331L
g8
((lp1074
tp1075
Rp1076
sL1332L
g8
((lp1077
L1367L
atp1078
Rp1079
sL1333L
g8
((lp1080
tp1081
Rp1082
sL1334L
g8
((lp1083
tp1084
Rp1085
sL1335L
g8
((lp1086
tp1087
Rp1088
sL1336L
g8
((lp1089
tp1090
Rp1091
sL1337L
g8
((lp1092
L1204L
atp1093
Rp1094
sL1338L
g8
((lp1095
tp1096
Rp1097
sL1339L
g8
((lp1098
L1577L
aL1198L
aL1295L
atp1099
Rp1100
sL1340L
g8
((lp1101
L1530L
aL1579L
aL1580L
atp1102
Rp1103
sL1341L
g8
((lp1104
L1010L
aL1198L
atp1105
Rp1106
sL1342L
g8
((lp1107
L1577L
aL1067L
aL1198L
aL1071L
aL1201L
aL1078L
aL1199L
atp1108
Rp1109
sL1343L
g8
((lp1110
L1577L
aL1202L
aL1198L
atp1111
Rp1112
sL1344L
g8
((lp1113
tp1114
Rp1115
sL1345L
g8
((lp1116
tp1117
Rp1118
sL1346L
g8
((lp1119
L999L
atp1120
Rp1121
sL1347L
g8
((lp1122
L1313L
aL1205L
atp1123
Rp1124
sL1348L
g8
((lp1125
L1074L
aL1220L
aL1493L
atp1126
Rp1127
sL1349L
g8
((lp1128
L1313L
aL1251L
aL1189L
aL1546L
aL1547L
aL1549L
aL1550L
aL1557L
aL1529L
aL1052L
aL1309L
atp1129
Rp1130
sL1350L
g8
((lp1131
L1313L
atp1132
Rp1133
sL1351L
g8
((lp1134
tp1135
Rp1136
sL1352L
g8
((lp1137
L1248L
aL1313L
aL1309L
atp1138
Rp1139
sL1353L
g8
((lp1140
L1060L
aL1547L
aL1548L
aL1270L
aL1054L
atp1141
Rp1142
sL1354L
g8
((lp1143
tp1144
Rp1145
sL1355L
g8
((lp1146
tp1147
Rp1148
sL1356L
g8
((lp1149
tp1150
Rp1151
sL1357L
g8
((lp1152
tp1153
Rp1154
sL1358L
g8
((lp1155
L1064L
aL1589L
aL1062L
atp1156
Rp1157
sL1359L
g8
((lp1158
tp1159
Rp1160
sL1360L
g8
((lp1161
tp1162
Rp1163
sL1361L
g8
((lp1164
L1537L
aL1534L
atp1165
Rp1166
sL1362L
g8
((lp1167
L1272L
aL1534L
atp1168
Rp1169
sL1363L
g8
((lp1170
tp1171
Rp1172
sL1364L
g8
((lp1173
tp1174
Rp1175
sL1365L
g8
((lp1176
L1299L
atp1177
Rp1178
sL1366L
g8
((lp1179
L1056L
aL1203L
aL1548L
aL1069L
aL1041L
aL1043L
atp1180
Rp1181
sL1367L
g8
((lp1182
L1332L
aL1029L
aL1030L
aL1159L
atp1183
Rp1184
sL1368L
g8
((lp1185
L994L
aL995L
aL1252L
atp1186
Rp1187
sL1370L
g8
((lp1188
tp1189
Rp1190
sL1371L
g8
((lp1191
tp1192
Rp1193
sL1372L
g8
((lp1194
tp1195
Rp1196
sL1373L
g8
((lp1197
tp1198
Rp1199
sL1374L
g8
((lp1200
tp1201
Rp1202
sL1375L
g8
((lp1203
tp1204
Rp1205
sL1376L
g8
((lp1206
L1262L
atp1207
Rp1208
sL1377L
g8
((lp1209
L1515L
atp1210
Rp1211
sL1378L
g8
((lp1212
tp1213
Rp1214
sL1380L
g8
((lp1215
tp1216
Rp1217
sL1381L
g8
((lp1218
L1524L
aL1549L
atp1219
Rp1220
sL1382L
g8
((lp1221
L1262L
atp1222
Rp1223
sL1383L
g8
((lp1224
tp1225
Rp1226
sL1384L
g8
((lp1227
tp1228
Rp1229
sL1385L
g8
((lp1230
L1178L
atp1231
Rp1232
sL1386L
g8
((lp1233
L1581L
atp1234
Rp1235
sL1387L
g8
((lp1236
tp1237
Rp1238
sL1388L
g8
((lp1239
tp1240
Rp1241
sL1389L
g8
((lp1242
tp1243
Rp1244
sL1390L
g8
((lp1245
L1068L
aL1319L
atp1246
Rp1247
sL1391L
g8
((lp1248
L1393L
aL1010L
aL1279L
atp1249
Rp1250
sL1392L
g8
((lp1251
tp1252
Rp1253
sL1393L
g8
((lp1254
L1279L
aL1391L
atp1255
Rp1256
sL1394L
g8
((lp1257
tp1258
Rp1259
sL1395L
g8
((lp1260
L1271L
aL1198L
aL1543L
atp1261
Rp1262
sL1396L
g8
((lp1263
tp1264
Rp1265
sL1397L
g8
((lp1266
L1500L
atp1267
Rp1268
sL1398L
g8
((lp1269
L1233L
atp1270
Rp1271
sL1399L
g8
((lp1272
L1096L
aL1241L
atp1273
Rp1274
sL1400L
g8
((lp1275
L1548L
aL1302L
atp1276
Rp1277
sL1401L
g8
((lp1278
tp1279
Rp1280
sL1402L
g8
((lp1281
tp1282
Rp1283
sL1403L
g8
((lp1284
L1600L
aL1124L
atp1285
Rp1286
sL1404L
g8
((lp1287
tp1288
Rp1289
sL1405L
g8
((lp1290
tp1291
Rp1292
sL1406L
g8
((lp1293
L1288L
aL1179L
atp1294
Rp1295
sL1407L
g8
((lp1296
L1601L
atp1297
Rp1298
sL1408L
g8
((lp1299
L1598L
atp1300
Rp1301
sL1409L
g8
((lp1302
tp1303
Rp1304
sL1410L
g8
((lp1305
L1257L
atp1306
Rp1307
sL1411L
g8
((lp1308
L1525L
aL1317L
atp1309
Rp1310
sL1412L
g8
((lp1311
tp1312
Rp1313
sL1413L
g8
((lp1314
tp1315
Rp1316
sL1414L
g8
((lp1317
L1226L
aL980L
atp1318
Rp1319
sL1415L
g8
((lp1320
L1096L
aL1282L
atp1321
Rp1322
sL1416L
g8
((lp1323
L1059L
atp1324
Rp1325
sL1417L
g8
((lp1326
tp1327
Rp1328
sL1418L
g8
((lp1329
tp1330
Rp1331
sL1419L
g8
((lp1332
tp1333
Rp1334
sL1420L
g8
((lp1335
tp1336
Rp1337
sL1421L
g8
((lp1338
tp1339
Rp1340
sL1422L
g8
((lp1341
L986L
aL1290L
aL1261L
aL1110L
atp1342
Rp1343
sL1423L
g8
((lp1344
tp1345
Rp1346
sL1424L
g8
((lp1347
tp1348
Rp1349
sL1425L
g8
((lp1350
tp1351
Rp1352
sL1426L
g8
((lp1353
tp1354
Rp1355
sL1427L
g8
((lp1356
L1151L
atp1357
Rp1358
sL1428L
g8
((lp1359
L969L
aL1187L
atp1360
Rp1361
sL1429L
g8
((lp1362
tp1363
Rp1364
sL1430L
g8
((lp1365
tp1366
Rp1367
sL1431L
g8
((lp1368
tp1369
Rp1370
sL1432L
g8
((lp1371
tp1372
Rp1373
sL1433L
g8
((lp1374
tp1375
Rp1376
sL1434L
g8
((lp1377
tp1378
Rp1379
sL1435L
g8
((lp1380
L1119L
atp1381
Rp1382
sL1436L
g8
((lp1383
tp1384
Rp1385
sL1437L
g8
((lp1386
tp1387
Rp1388
sL1438L
g8
((lp1389
tp1390
Rp1391
sL1439L
g8
((lp1392
tp1393
Rp1394
sL1441L
g8
((lp1395
tp1396
Rp1397
sL1442L
g8
((lp1398
tp1399
Rp1400
sL1443L
g8
((lp1401
tp1402
Rp1403
sL1444L
g8
((lp1404
tp1405
Rp1406
sL1445L
g8
((lp1407
tp1408
Rp1409
sL1446L
g8
((lp1410
L1449L
atp1411
Rp1412
sL1447L
g8
((lp1413
tp1414
Rp1415
sL1448L
g8
((lp1416
tp1417
Rp1418
sL1449L
g8
((lp1419
L1446L
atp1420
Rp1421
sL1450L
g8
((lp1422
tp1423
Rp1424
sL1451L
g8
((lp1425
tp1426
Rp1427
sL1452L
g8
((lp1428
tp1429
Rp1430
sL1453L
g8
((lp1431
tp1432
Rp1433
sL1454L
g8
((lp1434
tp1435
Rp1436
sL1455L
g8
((lp1437
tp1438
Rp1439
sL1456L
g8
((lp1440
tp1441
Rp1442
sL1457L
g8
((lp1443
tp1444
Rp1445
sL1458L
g8
((lp1446
tp1447
Rp1448
sL1459L
g8
((lp1449
tp1450
Rp1451
sL1460L
g8
((lp1452
tp1453
Rp1454
sL1461L
g8
((lp1455
tp1456
Rp1457
sL1462L
g8
((lp1458
tp1459
Rp1460
sL1463L
g8
((lp1461
tp1462
Rp1463
sL1464L
g8
((lp1464
tp1465
Rp1466
sL1465L
g8
((lp1467
tp1468
Rp1469
sL1466L
g8
((lp1470
tp1471
Rp1472
sL1467L
g8
((lp1473
tp1474
Rp1475
sL1468L
g8
((lp1476
tp1477
Rp1478
sL1469L
g8
((lp1479
tp1480
Rp1481
sL1470L
g8
((lp1482
tp1483
Rp1484
sL1471L
g8
((lp1485
tp1486
Rp1487
sL1472L
g8
((lp1488
tp1489
Rp1490
sL1473L
g8
((lp1491
tp1492
Rp1493
sL1474L
g8
((lp1494
tp1495
Rp1496
sL1475L
g8
((lp1497
tp1498
Rp1499
sL1476L
g8
((lp1500
tp1501
Rp1502
sL1477L
g8
((lp1503
tp1504
Rp1505
sL1478L
g8
((lp1506
tp1507
Rp1508
sL1479L
g8
((lp1509
tp1510
Rp1511
sL1480L
g8
((lp1512
tp1513
Rp1514
sL1481L
g8
((lp1515
tp1516
Rp1517
sL1482L
g8
((lp1518
tp1519
Rp1520
sL1483L
g8
((lp1521
tp1522
Rp1523
sL1484L
g8
((lp1524
tp1525
Rp1526
sL1486L
g8
((lp1527
tp1528
Rp1529
sL1488L
g8
((lp1530
tp1531
Rp1532
sL1489L
g8
((lp1533
L1293L
atp1534
Rp1535
sL1490L
g8
((lp1536
tp1537
Rp1538
sL1491L
g8
((lp1539
tp1540
Rp1541
sL1492L
g8
((lp1542
tp1543
Rp1544
sL1493L
g8
((lp1545
L1348L
aL1220L
aL1199L
atp1546
Rp1547
sL1494L
g8
((lp1548
L1287L
atp1549
Rp1550
sL1495L
g8
((lp1551
tp1552
Rp1553
sL1496L
g8
((lp1554
tp1555
Rp1556
sL1497L
g8
((lp1557
tp1558
Rp1559
sL1498L
g8
((lp1560
tp1561
Rp1562
sL1499L
g8
((lp1563
tp1564
Rp1565
sL1500L
g8
((lp1566
L1296L
aL1397L
atp1567
Rp1568
sL1501L
g8
((lp1569
tp1570
Rp1571
sL1502L
g8
((lp1572
tp1573
Rp1574
sL1503L
g8
((lp1575
tp1576
Rp1577
sL1504L
g8
((lp1578
tp1579
Rp1580
sL1505L
g8
((lp1581
tp1582
Rp1583
sL1506L
g8
((lp1584
tp1585
Rp1586
sL1507L
g8
((lp1587
tp1588
Rp1589
sL1508L
g8
((lp1590
tp1591
Rp1592
sL1509L
g8
((lp1593
tp1594
Rp1595
sL1510L
g8
((lp1596
tp1597
Rp1598
sL1511L
g8
((lp1599
tp1600
Rp1601
sL1512L
g8
((lp1602
tp1603
Rp1604
sL1513L
g8
((lp1605
tp1606
Rp1607
sL1515L
g8
((lp1608
L1377L
aL1025L
aL1223L
atp1609
Rp1610
sL1516L
g8
((lp1611
L1311L
atp1612
Rp1613
sL1517L
g8
((lp1614
tp1615
Rp1616
sL1518L
g8
((lp1617
L1603L
atp1618
Rp1619
sL1519L
g8
((lp1620
tp1621
Rp1622
sL1520L
g8
((lp1623
tp1624
Rp1625
sL1521L
g8
((lp1626
tp1627
Rp1628
sL1522L
g8
((lp1629
tp1630
Rp1631
sL1523L
g8
((lp1632
tp1633
Rp1634
sL1524L
g8
((lp1635
L1381L
atp1636
Rp1637
sL1525L
g8
((lp1638
L1411L
atp1639
Rp1640
sL1526L
g8
((lp1641
tp1642
Rp1643
sL1527L
g8
((lp1644
L1604L
atp1645
Rp1646
sL1528L
g8
((lp1647
tp1648
Rp1649
sL1529L
g8
((lp1650
L1349L
atp1651
Rp1652
sL1530L
g8
((lp1653
L1281L
aL1107L
aL1340L
atp1654
Rp1655
sL1531L
g8
((lp1656
L1280L
atp1657
Rp1658
sL1532L
g8
((lp1659
tp1660
Rp1661
sL1533L
g8
((lp1662
tp1663
Rp1664
sL1534L
g8
((lp1665
L1272L
aL1361L
aL1362L
aL1534L
atp1666
Rp1667
sL1535L
g8
((lp1668
tp1669
Rp1670
sL1536L
g8
((lp1671
tp1672
Rp1673
sL1537L
g8
((lp1674
L1361L
atp1675
Rp1676
sL1538L
g8
((lp1677
tp1678
Rp1679
sL1539L
g8
((lp1680
tp1681
Rp1682
sL1540L
g8
((lp1683
L1253L
atp1684
Rp1685
sL1541L
g8
((lp1686
L1305L
atp1687
Rp1688
sL1542L
g8
((lp1689
L1010L
aL1007L
atp1690
Rp1691
sL1543L
g8
((lp1692
L1008L
aL1271L
aL1395L
aL1133L
aL1327L
atp1693
Rp1694
sL1544L
g8
((lp1695
tp1696
Rp1697
sL1545L
g8
((lp1698
tp1699
Rp1700
sL1546L
g8
((lp1701
L1052L
aL1188L
aL1349L
aL1054L
aL1191L
atp1702
Rp1703
sL1547L
g8
((lp1704
L1313L
aL1270L
aL1349L
aL1191L
aL1353L
aL1046L
aL1048L
aL1052L
aL1054L
atp1705
Rp1706
sL1548L
g8
((lp1707
L1400L
aL1353L
aL1054L
aL1302L
aL1366L
atp1708
Rp1709
sL1549L
g8
((lp1710
L1349L
aL1381L
atp1711
Rp1712
sL1550L
g8
((lp1713
L1313L
aL1054L
aL1349L
aL974L
atp1714
Rp1715
sL1551L
g8
((lp1716
tp1717
Rp1718
sL1552L
g8
((lp1719
tp1720
Rp1721
sL1553L
g8
((lp1722
L1024L
aL1243L
aL1134L
atp1723
Rp1724
sL1554L
g8
((lp1725
tp1726
Rp1727
sL1555L
g8
((lp1728
tp1729
Rp1730
sL1556L
g8
((lp1731
tp1732
Rp1733
sL1557L
g8
((lp1734
L1060L
aL1349L
aL1192L
aL1052L
aL1053L
aL1054L
atp1735
Rp1736
sL1558L
g8
((lp1737
tp1738
Rp1739
sL1559L
g8
((lp1740
L1205L
atp1741
Rp1742
sL1560L
g8
((lp1743
tp1744
Rp1745
sL1561L
g8
((lp1746
tp1747
Rp1748
sL1562L
g8
((lp1749
tp1750
Rp1751
sL1563L
g8
((lp1752
tp1753
Rp1754
sL1564L
g8
((lp1755
tp1756
Rp1757
sL1565L
g8
((lp1758
tp1759
Rp1760
sL1566L
g8
((lp1761
tp1762
Rp1763
sL1567L
g8
((lp1764
tp1765
Rp1766
sL1568L
g8
((lp1767
tp1768
Rp1769
sL1569L
g8
((lp1770
tp1771
Rp1772
sL1570L
g8
((lp1773
tp1774
Rp1775
sL1571L
g8
((lp1776
tp1777
Rp1778
sL1572L
g8
((lp1779
tp1780
Rp1781
sL1573L
g8
((lp1782
L1321L
atp1783
Rp1784
sL1574L
g8
((lp1785
L1300L
atp1786
Rp1787
sL1575L
g8
((lp1788
tp1789
Rp1790
sL1576L
g8
((lp1791
tp1792
Rp1793
sL1577L
g8
((lp1794
L1339L
aL1316L
aL1078L
aL1202L
aL1067L
aL1197L
aL1071L
aL1264L
aL1073L
aL1295L
aL1203L
aL1205L
aL1199L
aL1343L
aL1284L
aL1307L
aL1308L
aL1342L
aL1279L
atp1795
Rp1796
sL1578L
g8
((lp1797
L1200L
aL1197L
atp1798
Rp1799
sL1579L
g8
((lp1800
L1340L
atp1801
Rp1802
sL1580L
g8
((lp1803
L1010L
aL1340L
atp1804
Rp1805
sL1581L
g8
((lp1806
L1386L
atp1807
Rp1808
sL1583L
g8
((lp1809
tp1810
Rp1811
sL1584L
g8
((lp1812
tp1813
Rp1814
sL1585L
g8
((lp1815
tp1816
Rp1817
sL1587L
g8
((lp1818
tp1819
Rp1820
sL1588L
g8
((lp1821
tp1822
Rp1823
sL1589L
g8
((lp1824
L1064L
aL1358L
atp1825
Rp1826
sL1590L
g8
((lp1827
L1274L
atp1828
Rp1829
sL1591L
g8
((lp1830
L1286L
atp1831
Rp1832
sL1592L
g8
((lp1833
L1013L
atp1834
Rp1835
sL1593L
g8
((lp1836
tp1837
Rp1838
sL1594L
g8
((lp1839
tp1840
Rp1841
sL1595L
g8
((lp1842
tp1843
Rp1844
sL1596L
g8
((lp1845
tp1846
Rp1847
sL1597L
g8
((lp1848
tp1849
Rp1850
sL1598L
g8
((lp1851
L1408L
atp1852
Rp1853
sL1599L
g8
((lp1854
tp1855
Rp1856
sL1600L
g8
((lp1857
L1403L
atp1858
Rp1859
sL1601L
g8
((lp1860
L1407L
atp1861
Rp1862
sL1602L
g8
((lp1863
tp1864
Rp1865
sL1603L
g8
((lp1866
L1518L
atp1867
Rp1868
sL1604L
g8
((lp1869
L1527L
atp1870
Rp1871
ssS'names'
p1872
(dp1873
L969L
S'Pattern-Based Reasoning in Critical Parameter Management (CPM) for Rapid Redesign'
p1874
sL970L
S'Topological Synthesis of Shell Structures'
p1875
sL971L
S'Growth Design Modeling'
p1876
sL972L
S'Fuzzy Preference Evaluation for Hierarchical Co-Evolutionary Design Concept Generation'
p1877
sL973L
S'Application of a Genetic Algorithm to Concept Variant Selection'
p1878
sL974L
S'A Hybrid Method for Parametric Conceptual Vehicle Design Using Legacy Components and Parametric Surfaces'
p1879
sL975L
S'Exploiting Shape Similarity in Engineering Analysis'
p1880
sL976L
S'Issues of Similarity in Engineering Design'
p1881
sL977L
S'Enabling Local Risk Assessment to Support Global Collaboration in a Distributed Environment'
p1882
sL978L
S'Enhanced Convergence in Distributed Design Processes'
p1883
sL979L
S'Investigating Different Approaches for Front-Loading Problem Solving in Product Development: Evidence From Engine Engineering'
p1884
sL980L
S'Case Study Instrument Development for Studying Collaborative Design'
p1885
sL981L
S'Topology and Classical Shape Optimization of a Lower Control Arm: A Case Study'
p1886
sL982L
S'Improved Head Restraint Design for Safety and Compliance'
p1887
sL983L
S'An Efficient Algorithm for Vehicle Crashworthiness Design Via Crash Mode Matching'
p1888
sL984L
S'Crashworthiness Design Using a Hybrid Cellular Automaton Algorithm'
p1889
sL985L
S'Preliminary Results on Generating Assembly Sequences for Shape Display'
p1890
sL986L
S'Process Planning Support System Considering Product Quality'
p1891
sL987L
S'Optimum Disassembly Process With Genetic Algorithms for a Compressor'
p1892
sL988L
S'Multiobjective Optimization for Integrated Tolerance Allocation and Fixture Layout Design in Multistation Assembly'
p1893
sL989L
S'Visibility for Determining the Rotational Axis CNC Rapid Prototyping and Rapid Manufacturing'
p1894
sL990L
S'Stereolithography Mock-Up With Internal Camera for Automatic Usability Data Acquisition and Functional Simulation'
p1895
sL991L
S'Determine Mesh Orientation by Voxel-Based Principal Component Analysis'
p1896
sL992L
S'Introducing Hierarchical Particle Swarm Optimization to Optimal Part Orientation in Fused Deposition Modeling'
p1897
sL993L
S'High Accuracy Laser Scanned View Registration Method for Reverse Engineering Using a CMM Generated CAD Model'
p1898
sL994L
S'Using Tolerance-Maps to Generate Frequency Distributions of Clearance for Pin-Hole Assemblies'
p1899
sL995L
S'Semantic Tolerance Modeling'
p1900
sL996L
S'Geometric Construction of Piecewise Line-Symmetric Spherical Motions Using Quaternion Biarcs'
p1901
sL997L
S'Aeronautical Planar Flank Milling Automation: Computing the G-Zones'
p1902
sL998L
S'Aerodynamic Shape Optimization and Knowledge Mining of Centrifugal Fans Using Simulated Annealing Coupled With a Neural Network'
p1903
sL999L
S'Optimal Tolerance Allocation of Automotive Pneumatic Control Valves Based on Product and Process Simulations'
p1904
sL1000L
S'Optimization of Chemical Vapor Deposition Process'
p1905
sL1001L
S'Data Mining and Fuzzy Clustering to Support Product Family Design'
p1906
sL1002L
S'Knowledge Model for Managing Product Variety and Its Reflective Design Process'
p1907
sL1003L
S'Design Information Support Tool (DIST): Its Development and Effectiveness Investigation'
p1908
sL1004L
S'Automating Redesign of Sheet-Metal Parts in Automotive Industry Using KBE and CBR'
p1909
sL1005L
S'Verve: A General Purpose Open Source Reinforcement Learning Toolkit'
p1910
sL1006L
S'Augmenting Tools for Reverse Engineering Methods'
p1911
sL1007L
S'Qualitative and Quantitative Sequential Sampling'
p1912
sL1008L
S'On Adaptive Sampling for Single and Multi-Response Bayesian Surrogate Models'
p1913
sL1009L
S'A Kriging Metamodel Assisted Multi-Objective Genetic Algorithm for Design Optimization'
p1914
sL1010L
S'Review of Metamodeling Techniques in Support of Engineering Design Optimization'
p1915
sL1012L
S'An Improved Genetic Algorithm for the Optimization of Composite Structures'
p1916
sL1013L
S'Surrogate Model Updating Using Clustering in a Genetic Algorithm Setup'
p1917
sL1014L
S'Exploration in the Preliminary Mechanical Design of Trade-Offs Between Automotive Architectural Constraints and Aggregate Noise Performances'
p1918
sL1015L
S'Heterogeneous Design Optimization From the Microstructure'
p1919
sL1016L
S'Parametric Structural Shape and Topology Optimization Method With Radial Basis Functions and Level-Set Method'
p1920
sL1017L
S'FEA-Based Design of Heterogeneous Objects'
p1921
sL1018L
S'Material Property Identification and Sensitivity Analysis Using Indentation and FEM'
p1922
sL1019L
S'Topology Optimization of Micromachined Structures With Surface Micromachining Manufacturing Constraints'
p1923
sL1020L
S'Multifunctional Topology Design of Cellular Material Structures'
p1924
sL1021L
S'Designing Design Processes for Integrated Materials and Products Realization: A Multifunctional Energetic Structural Material Example'
p1925
sL1022L
S'Exploring the Advantages of Materials Design in a Product Design Process'
p1926
sL1023L
S'Free-Form Feature Representation and Comparison'
p1927
sL1024L
S'Parametric Solid Modeling'
p1928
sL1025L
S'Poisson Based Reuse of Freeform Features'
p1929
sL1026L
S'Parametric and Topological Control in Shape Optimization'
p1930
sL1027L
S'Topology Synthesis and Classification of Low-Mobility Parallel Mechanisms'
p1931
sL1028L
S'Coupling Degree of Mechanism and Its Application'
p1932
sL1029L
S'A Survey of Various Encoding Schemes and Associated Placement Algorithms Applied to Packing and Layout Problems'
p1933
sL1030L
S'Vehicle Component Layout With Shape Morphing: An Initial Study'
p1934
sL1031L
S'Simultaneous Geometry Optimization and Material Selection for Truss Structures'
p1935
sL1032L
S'A Two-Stage Design Method for Compliant Mechanisms Having Specified Non-Linear Output Paths'
p1936
sL1033L
S'A Multicriteria System-Based Method for Simulation-Driven Design Synthesis'
p1937
sL1034L
S'Design and Verification of a New Computer Controlled Seating Buck'
p1938
sL1035L
S'An Efficient Method for Detecting Packaging Supporting Space'
p1939
sL1036L
S'Topology Optimization Considering Gravitational and Centrifugal Forces'
p1940
sL1037L
S'BB-ATC: Analytical Target Cascading Using Branch and Bound for Mixed-Integer Nonlinear Programming'
p1941
sL1038L
S'Applying the Mahalanobis-Taguchi System to Vehicle Handling'
p1942
sL1039L
S'Model-Based Decomposition Using Non-Binary Dependency Analysis and Heuristic Partitioning Analysis'
p1943
sL1040L
S'Product Optimization Incorporating Discrete Design Variables Based on Decomposition of Performance Characteristics'
p1944
sL1041L
S'Development of Distributed Computing Framework for Parallel Multi-Disciplinary Optimization'
p1945
sL1042L
S'Ontologies for Supporting Engineering Design Optimization'
p1946
sL1043L
S'Two-Stage System of Systems Model by Linking System Design With Resource Allocation'
p1947
sL1044L
S'Optimization of a PEM Fuel Cell System for Low-Speed Hybrid Electric Vehicles'
p1948
sL1045L
S"A Multidisciplinary and Multiobjective System Analysis and Optimization Methodology for Embedding Integrated Systems Health Management (ISHM) Into NASA's Complex Systems"
p1949
sL1046L
S'Flexible Product Platforms: Framework and Case Study'
p1950
sL1048L
S'Platform-Based Design and Development: Current Trends and Needs in Industry'
p1951
sL1049L
S'Two Methodologies for Identifying Product Platform Elements Within an Existing Set of Products'
p1952
sL1050L
S'A Comprehensive Metric for Evaluating Component Commonality in a Product Family'
p1953
sL1052L
S'Towards a Suite of Problems for Comparison of Product Platform Design Methods: A Proposed Classification'
p1954
sL1053L
S'Selection-Integrated Optimization (SIO) Methodology for Optimal Design of Adaptive Systems'
p1955
sL1054L
S'A Method to Improve Platform Leveraging in a Market Segmentation Grid for an Existing Product Line'
p1956
sL1055L
S'An Enhanced Change Modes and Effects Analysis (CMEA) Tool for Measuring Product Flexibility With Applications to Consumer Products'
p1957
sL1056L
S'Determination of Ranged Sets of Design Specifications by Incorporating Heterogeneous Design Capability Information'
p1958
sL1057L
S'Assessing and Improving Commonality and Diversity Within a Product Family'
p1959
sL1058L
S'Assessing and Increasing Product and Family Differentiation in the Market'
p1960
sL1059L
S'Module Interface Representation'
p1961
sL1060L
S'Product Platform Problem Taxonomy: Classification and Identification of Benchmark Problems'
p1962
sL1061L
S'Adapted Concept Generation and Computational Techniques for the Application of a Transformer Design Theory'
p1963
sL1062L
S'2-D Deposition Pattern and Strategy Study on Rapid Manufacturing'
p1964
sL1063L
S'Ruled Layer Generation Between Two Freeform Curves by Normal and Distance Matching'
p1965
sL1064L
S'Spiral-Like Path Planning Without Gap for Material Deposition Processes'
p1966
sL1065L
S'Fast Layered Manufacturing Support Volume Computation on GPUs'
p1967
sL1066L
S'A Sensitivity Analysis of Shot Peening Parameters'
p1968
sL1067L
S'Reliability-Based Design Using Saddlepoint Approximation'
p1969
sL1068L
S'Uncertainty Analysis With Probability and Evidence Theories'
p1970
sL1069L
S'Engineering Product Design Optimization for Retail Channel Acceptance'
p1971
sL1070L
S'A Comparison of Probability Bounds Analysis and Sensitivity Analysis in Environmentally Benign Design and Manufacture'
p1972
sL1071L
S'A Sequential Algorithm for Possibility-Based Design Optimization'
p1973
sL1072L
S'Numerical Methods for Propagating Imprecise Uncertainty'
p1974
sL1073L
S'A Single-Loop Approach for System Reliability-Based Design Optimization'
p1975
sL1074L
S'Robust Design of Compressor Blades Against Manufacturing Variations'
p1976
sL1075L
S'The Risk in Early Design (RED) Method: Likelihood and Consequence Formulations'
p1977
sL1076L
S'Optimal Design With Non-Normally Distributed Random Parameters, Conditional Probability, and Joint Constraint Reliabilities: A Case Study in Vehicle Emissions Regulations to Achieve Ambient Air Quality Standards'
p1978
sL1077L
S'Simulation Model Refinement for Decision Making Via a Value-of-Information Based Metric'
p1979
sL1078L
S'A Bayesian Approach to Reliability-Based Optimization With Incomplete Information'
p1980
sL1079L
S'Modeling Implications in Simulation-Based Design of Stents'
p1981
sL1080L
S'Understanding the Effects of Model Uncertainty in Robust Design With Computer Experiments'
p1982
sL1081L
S'A Function-Based Methodology for Analyzing Critical Events'
p1983
sL1082L
S'Some Metrics and a Bayesian Procedure for Validating Predictive Models in Engineering Design'
p1984
sL1083L
S'Multi-Disciplinary Conceptual Modeling and Optimization With Uncertainty Effects Consideration'
p1985
sL1084L
S'An Inverse Analysis Method for Design Optimization With Both Statistical and Fuzzy Uncertainties'
p1986
sL1085L
S'Alternative Methods for Reliability-Based Robust Design Optimization Including Dimension Reduction Method'
p1987
sL1086L
S'INSIDES: A New Design and Simulation Platform for Virtual Prototyping in Automotive and Aerospace Industry'
p1988
sL1087L
S'Development of Evaluation System for Style Design Using Mixed Reality Technology'
p1989
sL1088L
S'A Graphical Modeling Environment for Configuring Modular Product Families and Platforms'
p1990
sL1089L
S'Visual Representations as an Aid to Concept Generation'
p1991
sL1090L
S'Style Design Method Based on Form Impressions'
p1992
sL1091L
S'Automated Concept Generation: A Co-Evolutionary Approach'
p1993
sL1092L
S'Knowledge Sharing Between Designers and Accidentologists for the Development of Road Safety Systems'
p1994
sL1093L
S'A Method for Inferring Design Rules With Explicit Bounds of Applicability'
p1995
sL1094L
S'Using Q-Learning and Genetic Algorithms to Improve the Efficiency of Weight Adjustments for Optimal Control and Design Problems'
p1996
sL1095L
S'A Web-Enabled Engineering Object Modeling Environment to Support Interoperability and Intelligent Services in Collaborative Design'
p1997
sL1096L
S'Handling Multiple Objectives in Decentralized Design'
p1998
sL1097L
S'Facilitating Collaborative Design: A Review on Design Representations and Workstations'
p1999
sL1098L
S'Acquisition of Product Design Guidelines Considering User Kansei Data Pertaining to Product Environments'
p2000
sL1099L
S'Computational Methods Applied to Modelica Simulation Models in a Web Based Framework'
p2001
sL1100L
S'Evaluation of Modular Design Concepts of Complex Mechatronic Systems'
p2002
sL1101L
S'Modeling of Evolutionary Design Database'
p2003
sL1102L
S'On Performance Enhancement of Parallel Kinematic Machine'
p2004
sL1103L
S'An Information Theoretical Perspective on Performance, Refinement and Cost'
p2005
sL1104L
S'A Graph-Based Method for Mechanical Product Family Modeling and Functional Tolerancing'
p2006
sL1105L
S'A Cost Based Methodology for Design Optimization'
p2007
sL1106L
S'Can a House Without a Foundation Support Design?'
p2008
sL1107L
S'A Decision Support Formulation for Design Teams: A Study in Preference Aggregation and Handling Unequal Group Members'
p2009
sL1108L
S'Manufacturing Investment and Allocation in Product Line Design Decision-Making'
p2010
sL1109L
S'An Optimization Based Methodology to Design Flexible Systems Subjected to Changing Operating Conditions'
p2011
sL1110L
S'A Conceptual Design Tool With Error Warning'
p2012
sL1111L
S'Analyzing Accidents of Jamming Body Parts in Doors'
p2013
sL1112L
S'Organizational Applications of Failure Knowledge Management'
p2014
sL1113L
S'Development of a Robust Design Process Using a New Robustness Index'
p2015
sL1114L
S'On Providing Formal Manufacturability Information to Upstream Product Development Processes: Methodology and Case Study'
p2016
sL1115L
S'Modeling of Non-Linear Relations Among Different Design Evaluation Measures for Multi-Objective Design Optimization'
p2017
sL1116L
S'On the Impact of Coupling Strength on Complex System Optimization for Single-Level Formulations'
p2018
sL1117L
S'Feasibility Assessment in Preliminary Design Using Pareto Sets'
p2019
sL1118L
S'PSO Driven Genetic Range Genetic Algorithms'
p2020
sL1119L
S'Methods for Discrete Design Optimization'
p2021
sL1120L
S'Design Optimization by Integration of Evolutionary Search and Cumulative Approximation'
p2022
sL1121L
S'Twinkling a Random Search Algorithm for Design Optimization'
p2023
sL1122L
S'Pipe Route Design Using Variable Topography Distance Transforms'
p2024
sL1123L
S'Heuristic Gradient Projection for 3D Space Frame Optimization'
p2025
sL1124L
S'Fuzzy Heuristic Gradient Projection for Frame Topology Optimization'
p2026
sL1125L
S'Faster Generation of Feasible Design Points'
p2027
sL1126L
S'Methodology to Reach Optimal Design of CHP Plants'
p2028
sL1127L
S'A Comparison of Optimized Stacked-Ply Flywheel Designs That Are Based on Different Failure Criteria'
p2029
sL1128L
S'Roles and Observations of a Graduate Design Coach'
p2030
sL1129L
S'Low Cost Demonstrator as a Mean for Rapid Product Realization With an Electric Motorcycle Application'
p2031
sL1130L
S'Synthesis of Structural Symmetry Driven by Cost Savings'
p2032
sL1131L
S'An Interval-Based Focalization Method for Decision-Making in Decentralized, Multi-Functional Design'
p2033
sL1132L
S'A Parallel Grammar for Simulation-Driven Mechanical Design Synthesis'
p2034
sL1133L
S'A Study of Factor Effects in Data From Factorial Experiments'
p2035
sL1134L
S'Geometric Surface Features Applied to Volumetric CAE Mesh Models'
p2036
sL1135L
S'A CAD-Integrated System for Automated Idealization of CAD-Models for Finite Element Analysis'
p2037
sL1136L
S'A Method for Integrating Form Errors Into Geometric Tolerance Analysis'
p2038
sL1137L
S'Shape Recovery From Medical Image Data Using Extended Superquadrics'
p2039
sL1138L
S'Insertion of Planar Areas Into Free-Form Surfaces in Early Product Design'
p2040
sL1139L
S'Tolerance-Maps Applied to a Point-Line Cluster of Features'
p2041
sL1140L
S'Allocating Tolerances Statistically With Tolerance-Maps and Beta Distributions: The Target a Planar Face'
p2042
sL1141L
S'Design for Product-Embedded Disassembly'
p2043
sL1142L
S'Filleting and Rounding Using a Point-Based Method'
p2044
sL1143L
S'Recognition of Interacting Turning Features for Mill/Turn Parts'
p2045
sL1144L
S'A Packing Genetic Algorithm for Configuration Design'
p2046
sL1145L
S'Polygon Offsetting by Computing Winding Numbers'
p2047
sL1146L
S'Mesh Processing for Computerized Anthropometry'
p2048
sL1147L
S'A Complete Variation Algorithm for Slot and Tab Features for 3D Simulation-Based Tolerance Analysis'
p2049
sL1148L
S'On Tolerance Information Extraction of Feature Model in Automotive Engine CAPP System'
p2050
sL1149L
S'Hole-Making on a Bent Thick Plate'
p2051
sL1150L
S'Design and Experimental Research of Magneto-Rheological Fluid Fan Clutch'
p2052
sL1151L
S'Continuum-Based Design Sensitivity Analysis and Optimization of Springback in Stamping Process'
p2053
sL1152L
S'Design of an Automobile Seat With Regulations Using Axiomatic Design'
p2054
sL1153L
S'Design Optimization of Continuous Caster Refractory Components'
p2055
sL1155L
S'Methodology for Market Analysis of CHP Systems'
p2056
sL1156L
S'Integrating a Vision System With a Coordinate Measuring Machine to Automate the Datum Alignment Process'
p2057
sL1157L
S'A Study on the Feed Rate Optimization of a Ball Screw Feed Drive System for Minimum Vibrations'
p2058
sL1158L
S'Occupant Restraint System Design Under Uncertainty Using Analytical Uncertainty Propagation Via Metamodels'
p2059
sL1159L
S'Packing Optimization by Enhanced Rubber Band Analogy'
p2060
sL1160L
S'Automating Error Attenuation of Cutting Tools Using Smart Material'
p2061
sL1161L
S'Knowledge Based Design Method for Fibre Metal Laminate Fuselage Panels'
p2062
sL1162L
S'A Unified Information Model for Product Family Design Management'
p2063
sL1163L
S'Analysis of Information Complexity During Product Development'
p2064
sL1164L
S'Integrated Feature Modeller for Certain Manufacturing Processes'
p2065
sL1165L
S'Extended Radial Basis Functions for Metamodeling: A Comparative Study'
p2066
sL1166L
S'Selecting an Appropriate Metamodel: The Case for NURBs Metamodels'
p2067
sL1167L
S'A Hybrid Method Using Response Surface and Pattern Search for Design Optimization'
p2068
sL1168L
S'Gaussian Process Meta-Models for Efficient Probabilistic Design in Complex Engineering Design Spaces'
p2069
sL1169L
S'A Compromise Method for the Design of Parametric Polynomial Surrogate Models'
p2070
sL1170L
S'Robust Design of Cellular Materials With Topological and Dimensional Imperfections'
p2071
sL1171L
S'Microstructure Design for a Rotating Disk: With Application to Turbine Engines'
p2072
sL1172L
S'Design of Functionally Graded Structures for Enhanced Thermal Behavior'
p2073
sL1173L
S'A Strategy for Simulation-Based Multiscale, Multi-Functional Products and Associated Design Processes'
p2074
sL1174L
S'An Inductive Design Exploration Method for the Integrated Design of Multi-Scale Materials and Products'
p2075
sL1175L
S'The Generalized Cahn-Hilliard Equations of Multiphase Transition for Structural Topology Optimization'
p2076
sL1176L
S'A Topology Optimization Problem in Control of Structures Using Modal Disparity'
p2077
sL1177L
S'Synthesis of Bistable Periodic Structures Using Topology Optimization and a Genetic Algorithm'
p2078
sL1178L
S'Vehicle Crashworthiness Design Via a Surrogate Model Ensemble and a Co-Evolutionary Genetic Algorithm'
p2079
sL1179L
S'Structural Topology Optimization Using Frame Elements Based on the Complementary Strain Energy Concept for Eigen-Frequency Maximization'
p2080
sL1180L
S'Optimisation of a Robotic Workcell Layout Using Genetic Algorithms'
p2081
sL1181L
S'Topological Synthesis for Linkage Mechanism Design Using the Minimum Potential Energy Principle'
p2082
sL1182L
S'Structural Topology Optimization Under Design-Dependent Loads'
p2083
sL1183L
S'A Review of Software Solutions for the Management of New Product Development and Product Family Planning'
p2084
sL1184L
S'An Activity-Based Costing Method for Product Family Design in the Early Stages of Development'
p2085
sL1185L
S'Product Family Representation and Redesign: Increasing Commonality Using Formal Concept Analysis'
p2086
sL1186L
S'Towards Rapid Redesign: Pattern-Based Design Diagnostics for Large-Scale and Complex Redesign Problems'
p2087
sL1187L
S'Towards Rapid Redesign: Pattern-Based Redesign Planning for Large-Scale and Complex Redesign Problems'
p2088
sL1188L
S'Multi-Objective Design Optimization for Product Platform and Product Family Design Using Genetic Algorithms'
p2089
sL1189L
S'A Methodology to Support Product Family Redesign Using Genetic Algorithm and Commonality Indices'
p2090
sL1190L
S'Assembly Process Selection to Minimize Existing Assembly System Modification Cost During New Product Family Member Design'
p2091
sL1191L
S'Designing Product Families for a Changing Market Space'
p2092
sL1192L
S'A Group Technology Based Representation for Product Portfolios'
p2093
sL1193L
S'Customer Need Driven Function-Behavior Platform Formation'
p2094
sL1194L
S'Product Configuration Design Based on Extensible Product Family for Mass Customization'
p2095
sL1195L
S'Process Platform-Based Production Configuration'
p2096
sL1196L
S'Robust Truck Cabin Layout Optimization Using Advanced Driver Variance Models'
p2097
sL1197L
S'An Adaptive Sequential Linear Programming Algorithm for Optimal Design Problems With Probabilistic Constraints'
p2098
sL1198L
S'Reliability Assessment Based on the Concept of Failure Surface Frontier'
p2099
sL1199L
S'Reliability Optimization Involving Mixed Continuous-Discrete Uncertainties'
p2100
sL1200L
S'Uncertainty Analysis by Dimension Reduction Integration and Saddlepoint Approximations'
p2101
sL1201L
S'A Design Optimization Method Using Evidence Theory'
p2102
sL1202L
S'Enhanced Sequential Optimization and Reliability Assessment Method for Changing Design Variance'
p2103
sL1203L
S'Probabilistic Analytical Target Cascading: A Moment Matching Formulation for Multilevel Optimization Under Uncertainty'
p2104
sL1204L
S'A Methodology to Manage Uncertainty During System-Level Conceptual Design'
p2105
sL1205L
S'A Methodology for Trading-Off Performance and Robustness Under Uncertainty'
p2106
sL1206L
S'Efficient Genetic Algoritm Based Robust Design Method for Compressor Fan Blades'
p2107
sL1207L
S'A New Approach to Probabilistic Risk Analysis in Concurrent and Distributed Design of Aerospace Systems'
p2108
sL1208L
S'Effects of Uncertainty Reduction on Weight of Composite Laminates at Cryogenic Temperatures'
p2109
sL1209L
S'A New Deterministic Approach Using Sensitivity Region Measures for Multi-Objective Robust and Feasibilty Robust Design Optimization'
p2110
sL1210L
S'Reliability-Based Topology Optimization Considering Multicriteria Using Frame Elements'
p2111
sL1211L
S'Integrated Framework for Design Optimization Under Aleatory and/or Epistemic Uncertainties Using Adaptive-Loop Method'
p2112
sL1212L
S'Effect of Safety Measures on Reliability of Aircraft Structures Subjected to Damage Growth'
p2113
sL1213L
S'A Quadrature-Based Sampling Technique for Robust Design With Computer Models'
p2114
sL1214L
S'Automatic Decomposition and Refinement of Oversized Components for Rapid Prototyping'
p2115
sL1215L
S'Virtual Reality Interactive Design Utilizing Meshless Stress Re-Analysis'
p2116
sL1216L
S'Selective Clay Milling for Interactive Prototyping'
p2117
sL1217L
S'Building Sequence of Boundary Model in Layered Manufacturing'
p2118
sL1218L
S'Automatic Fairing of Two-Parameter Rational B-Spline Motion'
p2119
sL1219L
S'PDE-Driven Level Sets and Shape Sensitivity for Structural Topology Optimization'
p2120
sL1220L
S'An Efficient Feasibility Robust Optimization Method Using a Sensitivity Region Concept'
p2121
sL1221L
S'Numerical and Experimental Study of Shielding Gas Orientation Effects on Particle Stream Concentration Mode in Coaxial Laser Aided Material Deposition Process'
p2122
sL1222L
S'Analysis of Decomposability and Complexity for Design Problems in the Context of Decomposition'
p2123
sL1223L
S'Freeform Feature Retrieval by Signal Processing'
p2124
sL1224L
S'Covariance Modeling Method for Use in Compliant Assembly Tolerance Analysis'
p2125
sL1225L
S'A Product Ontology for Automotive Seat Specification'
p2126
sL1226L
S'Resistance Based Modeling of Collaborative Design'
p2127
sL1228L
S'An Optimization Study of the Ultrasonic Welding of Thin Film Polymers'
p2128
sL1229L
S'A Method to Solve Inverse Kinematics Problems Using Lie Algebra and Its Application to Robot Spray Painting Simulation'
p2129
sL1230L
S'Derivation of Design Guidelines for Miniature Machine Tools'
p2130
sL1231L
S'Automated Symmetry Exploitation in Engineering Analysis'
p2131
sL1232L
S'On the Design Synthesis of Multistable Equilibrium Systems'
p2132
sL1233L
S'Optimization of a Semi-Active Shock Absorber Using a Genetic Algorithm'
p2133
sL1234L
S'Concurrent Parameter Design Based on Constraint Network'
p2134
sL1236L
S'A Quantitative Analysis of the Evolution of Design Automation Conference Fields'
p2135
sL1237L
S'Optimization of Chemical Etching Process in Niobium Cavities'
p2136
sL1238L
S'An Efficient Weighting Update Method to Achieve Acceptable Consistency Deviation in Analytical Target Cascading'
p2137
sL1239L
S'A Comparison of Commonality Indices for Product Family Design'
p2138
sL1240L
S'A System Approach to Simulation-Based Design Under Uncertainty, Through Best in Class Simulation Process Integration and Design Optimization'
p2139
sL1241L
S'A Comparative Study of Constraint Programming Techniques Over Intervals in Preliminary Design'
p2140
sL1242L
S'Front Structure Design Procedure for Optimal Pedestrian Leg Impact Performance'
p2141
sL1243L
S'A Recursive, Line-Intersection Method for Finding the Area of a Mesh Projected Onto a Plane'
p2142
sL1244L
S'Task Scheduling of Parallel Development Projects Using Genetic Algorithms'
p2143
sL1245L
S'Dynamic Modeling and Simulation of Parallel Kinematic Machines'
p2144
sL1246L
S'DRed and Design Folders: A Way of Capturing, Storing and Passing On Knowledge Generated During Design Projects'
p2145
sL1247L
S'Identifying and Tracking Features in Freeform Shape'
p2146
sL1248L
S'Development of a Production Cost Estimation Framework for Product Family Design'
p2147
sL1249L
S'Modeling and Design of Materials for Controlled Wave Propagation in Plane Grid Structures'
p2148
sL1250L
S'An Efficient Pareto Set Identification Approach for Multi-Objective Optimization on Black-Box Functions'
p2149
sL1251L
S'Ant Colony Optimization Method for Product Platform Formation'
p2150
sL1252L
S'The Effects of Different Specifications on the Tolerance-Maps for an Angled Face'
p2151
sL1253L
S'Development of Process Optimization for an Intelligent Knowledge-Based System for Spur Gear Precision Forging Die Design'
p2152
sL1254L
S'Global Stiffness Improvement for Tricept Machine Tools Family'
p2153
sL1255L
S'A Parametric Approach to Vehicle Seating Buck Design'
p2154
sL1256L
S'Parameter and Tolerance Constraints Modeling for Assembly'
p2155
sL1257L
S'Fully Free-Form Deformation Features Incorporating Discontinuities'
p2156
sL1258L
S'Design of Components With Optimized Microstructure'
p2157
sL1259L
S'An Integrated Design Support Environment for a Micro-Scale Portable Absorption Cooling System'
p2158
sL1260L
S'A Conceptual Design Synthesis Framework for Micro-Electro-Mechanical Systems (MEMS)'
p2159
sL1261L
S'A Survey of the Study of Failure'
p2160
sL1262L
S'A Knowledge-Based System for Change Impact Analysis'
p2161
sL1263L
S'Evaluation Method for the Topological Synthesis of Sheet Metal Components'
p2162
sL1264L
S'A Single-Loop Method for Reliability-Based Design Optimization'
p2163
sL1265L
S'Geometric Design of Uniform Developable B-Spline Surfaces'
p2164
sL1266L
S'Creative Design, Issues and Strategies'
p2165
sL1267L
S'A Saddlepoint Approximation Method for Uncertainty Analysis'
p2166
sL1268L
S'Geometric Containment Analysis for Rotational Parts'
p2167
sL1269L
S'Integrating Freeform and Feature-Based Fitting Methods'
p2168
sL1270L
S'A Systems Framework for Platform Architecture Analysis'
p2169
sL1271L
S'On the Use of Kriging Models to Approximate Deterministic Computer Models'
p2170
sL1272L
S'Decomposition-Based Assembly Synthesis of Space Frame Structures Using Joint Library'
p2171
sL1273L
S'A New Approach for Simultaneous Shape and Topology Optimization Based on Implicit Topology Description Functions'
p2172
sL1274L
S'On Electrochemical Deposition for Layered Manufacturing'
p2173
sL1275L
S'Robustness and Performance Optimization of Engine Bearing System Using Computer Model and Surrogate Noise'
p2174
sL1276L
S'Design Optimization of Enclosed Liquid Containers With Baffles for Sloshing and Impact'
p2175
sL1277L
S'Design for Project Change Management: Part 1 -- Configuration Design'
p2176
sL1278L
S'Design for Project Change Management: Part 2 -- Attribute Design'
p2177
sL1279L
S'Moment Matching for Sensitivity Analysis of Probabilistic Model Output'
p2178
sL1280L
S'Product Design Selection With Variability in Preferences for an Implicit Value Function'
p2179
sL1281L
S'A Formal Approach to Handling Conflicts in Multiattribute Group Decision Making'
p2180
sL1282L
S'Convergence and Stability in Distributed Design of Large Systems'
p2181
sL1283L
S'Transient Root Cause Analysis: A Model-Based Systems Engineering Methodology'
p2182
sL1284L
S'Design Optimization of Hierarchically Decomposed Multilevel Systems Under Uncertainty'
p2183
sL1285L
S'Purely Declarative Feature-Based Design With Feature Type Property Maintenance'
p2184
sL1286L
S'A Weighted Three-Point-Based Strategy for Variance Estimation'
p2185
sL1287L
S'Hierarchical Arrangement of Characteristics in Product Design Optimization Problems for Deeper Insight Into Optimized Results'
p2186
sL1288L
S'A Method for Determining the Optimal Direction of the Principal Moment of Inertia in Frame Element Cross-Sections'
p2187
sL1289L
S'A Collaborative Rapid Analysis Method for Decision-Making in Assembly Line Design'
p2188
sL1290L
S'Text and Illustration Based Scenario Expressions for Conveying Failure Knowledge'
p2189
sL1291L
S'Variant Design Automation: Strategy and Procedure for Storing Design Process Information'
p2190
sL1292L
S'A Process-Oriented Approach for Management of Product Configuration Models'
p2191
sL1293L
S'Design of a Bimorph Driven Meander-Line Structure for Parts Feeder Application'
p2192
sL1294L
S'Optimisation and Robust Design in Aero Engine Development'
p2193
sL1295L
S'Decoupled and Single Loop Methods for Reliability-Based Optimization and Robust Design'
p2194
sL1296L
S'An Integrated Robust Design and Marketing Approach for Product Design Selection Process'
p2195
sL1297L
S'A CAD Package for High-Speed Cam Design Based on Direct Multiple Shooting Optimal Control Techniques'
p2196
sL1298L
S'A Fuzzy Dynamic Programming Approach for Mixed-Discrete Multistage Decision Processes'
p2197
sL1299L
S'Structural Topology Optimization Under Impact Loads Using Beam Ground Structures'
p2198
sL1300L
S'Objective Function Based Pattern Search: A Computationally Efficient Algorithm for 3D Component Layout'
p2199
sL1301L
S'Toward an Information Management Infrastructure for Product Family Planning and Mass Customization'
p2200
sL1302L
S'Application of Math-Based Marketing and Financial Tools in an Automated Parametric Design Framework'
p2201
sL1303L
S'An Information Theoretical Perspective on Design Optimization'
p2202
sL1304L
S'Economics of Sacrificial Fixturing for CNC Machining and Rapid Manufacturing'
p2203
sL1305L
S'A Benchmark Comparison of CAD 5-Axis Machining Packages'
p2204
sL1306L
S'A Comparative Study of Optimal Design for an Inkjet Printer Tube With and Without Performance Variations'
p2205
sL1307L
S'Reliability-Based Design Optimization Methods'
p2206
sL1308L
S'A Reliability-Based Design Method Using Simulation Techniques and Efficient Optimization Approach'
p2207
sL1309L
S'Assessing Product Architecture Costing: Product Life Cycles, Allocation Rules, and Cost Models'
p2208
sL1310L
S'Unified Distance Queries in a Heterogeneous Model Environment'
p2209
sL1311L
S'The Role of Constraints and Human Interaction in Evolving MEMS Designs: Microresonator Case Study'
p2210
sL1312L
S'Two-Level Approximation Method for Reliability-Based Design Optimization'
p2211
sL1313L
S'Product Platform Design Through Sensitivity Analysis and Cluster Analysis'
p2212
sL1315L
S'A Full Parametric Model for Turbomachinery Blade Design and Optimisation'
p2213
sL1316L
S'The Performance Moment Integration Method for Reliability-Based Robust Design Optimization'
p2214
sL1317L
S'Segmentation of Noisy Laser-Scanner Generated Meshes With Piecewise Polynomial Approximations'
p2215
sL1318L
S'Solid Modeler Evaluation and Comparison Cycle: A Methodology for Optimum Selection of Modeling Software'
p2216
sL1319L
S'Vehicle Structure Optimization for Crash Pulse'
p2217
sL1320L
S'Analytical Variance-Based Global Sensitivity Analysis in Simulation-Based Design Under Uncertainty'
p2218
sL1321L
S'Building Surrogate Models Based on Detailed and Approximate Simulations'
p2219
sL1322L
S'Graphical Modeling Environment and Supporting Framework for Function-Based Conceptual Design'
p2220
sL1323L
S'Relative Entropy Based Method for Global and Regional Sensitivity Analysis in Probabilistic Design'
p2221
sL1324L
S'A Haptic System for Virtual Prototyping of Polygonal Models'
p2222
sL1325L
S'Influence of Group Cohesion and Information Sharing on Effectiveness of Design Review'
p2223
sL1326L
S'Development of a J2EE Web Application for STEP-Based Design Conformance Checking'
p2224
sL1327L
S'A Sequential Exploratory Experimental Design Method: Development of Appropriate Empirical Models in Design'
p2225
sL1328L
S'Applicability of Design Spaces to Utilize Current Assembly Plant Resources to Produce New Product Family Members'
p2226
sL1329L
S'A Sketch-Based Interface for the Design and Analysis of Simple Vibratory Mechanical Systems'
p2227
sL1330L
S'Trim Loop Closure for Enhanced CAD Interoperability'
p2228
sL1331L
S'Haptically Guided Filtering for Reverse Engineering'
p2229
sL1332L
S'Design Configuration of Vehicle With Domain Knowledge Enhancement'
p2230
sL1333L
S'An Exploration-Estimation Algorithm for Synthesis and Analysis of Engineering Systems Using Minimal Physical Testing'
p2231
sL1334L
S'Quantifying Profit and Loss Associated With Failure Cases'
p2232
sL1335L
S'Using the Compromise Decision Support Problem in Microsystem Design: A Formulation for a Miniature Parylene Gas Chromatographic Column'
p2233
sL1336L
S'Improved Disassembly Matrices for Disassembly Processes'
p2234
sL1337L
S'Design Under Uncertainty Using Monte Carlo Simulation and Probabilistic Sufficiency Factor'
p2235
sL1338L
S'A Cross-Evaluation Matrix (CEM) Rating Based Approach to Pareto Efficient Frontier and Design Alternatives Enumeration'
p2236
sL1339L
S'An Integrated Framework for Probabilistic Optimization Using Inverse Reliability Strategy'
p2237
sL1340L
S'An Approach to Robust Multiattribute Concept Selection'
p2238
sL1341L
S'An Indicator Response Surface-Based Monte Carlo Method for Efficient Component and System Reliability Analysis'
p2239
sL1342L
S'Reliability-Based Design With the Mixture of Random and Interval Variables'
p2240
sL1343L
S'Application of the Sequential Optimization and Reliability Assessment Method to Structural Design Problems'
p2241
sL1344L
S'Structural Durability Design Optimization and Its Reliability Assessment'
p2242
sL1345L
S'Incorporating Epistemic Uncertainty in Robust Design'
p2243
sL1346L
S'Robust Optimization of an Automotive Valvetrain Using a Multiobjective Genetic Algorithm'
p2244
sL1347L
S'Robust Design Using Preference Aggregation Methods'
p2245
sL1348L
S'Non-Gradient Based Parameter Sensitivity Estimation for Robust Design Optimization'
p2246
sL1349L
S'Product Platform Design and Optimization: Status and Promise'
p2247
sL1350L
S'Optimal Design Methodology of Common Components for a Class of Products: Its Foundations and Promise'
p2248
sL1351L
S'Internet Based Framework to Perform Automated FEA on User Customized Products'
p2249
sL1352L
S'Production Cost Modeling to Support Product Family Design Optimization'
p2250
sL1353L
S'Product Family and Platform Portfolio Optimization'
p2251
sL1354L
S'Dimensional Adjustment for Assemblability of Rapid Protoyped Parts'
p2252
sL1355L
S'WirePATH Rapid Tooling Process and Supporting Software Development'
p2253
sL1356L
S'Layered Manufacturing by Electrophotographic Printing'
p2254
sL1357L
S'Towards Automated Design of Multi-Piece Permanent Molds'
p2255
sL1358L
S'Toward Automatic Process Planning of a Multi-Axis Hybrid Laser Aided Manufacturing System: Skeleton-Based Offset Edge Generation'
p2256
sL1359L
S'Extracting Freeform Shape Information by Template Fitting'
p2257
sL1360L
S'Extended Hierarchical Cluster Analysis for the Decomposition of Complex Design Problems'
p2258
sL1361L
S'Assembly Synthesis With Subassembly Partitioning for Optimal In-Process Dimensional Adjustability'
p2259
sL1362L
S'Topology Optimization of Multi-Component Structures via Decomposition-Based Assembly Synthesis'
p2260
sL1363L
S'Quantitative Exploratory Techniques to Simplify Multiple Objectives in Product Design Optimization'
p2261
sL1364L
S'Multi-Objective Optimisation of Ship Hull With Distributed Applications'
p2262
sL1365L
S'Structural Topology Design Optimization for Controlled Crash Behavior'
p2263
sL1366L
S'Analytical Target Setting: An Enterprise Context in Optimal Product Design'
p2264
sL1367L
S'Multi-Objective Configuration Optimization With Vehicle Dynamics Applied to Midsize Truck Design'
p2265
sL1368L
S'A New Mathematical Model for Geometric Tolerances as Applied to Axes'
p2266
sL1370L
S'Tolerance Synthesis of Mechanisms: A Robust Design Approach'
p2267
sL1371L
S'Development of a Design Reuse View of Cutting Tool Design Ontology'
p2268
sL1372L
S'A Study of Geometric Error Measurement of CNC Machine Tools Using the Improved Planar Encoder System'
p2269
sL1373L
S'Reducing Cycle Time and Errors in the Design and Layout of MEMS'
p2270
sL1374L
S'Approaches of Knowledge-Based Design'
p2271
sL1375L
S'A Methodology for the Study of the Effects of Communication Method on Design Review Effectiveness'
p2272
sL1376L
S'Development of Knowledge Based System to Facilitate Design of On-Board Car Safety Systems'
p2273
sL1377L
S'Shape Knowledge Indexing Using Invariant Shape Code'
p2274
sL1378L
S'Knowledge Management: A Concept Review'
p2275
sL1380L
S'A Design Alternatives Assessment and Management Approach'
p2276
sL1381L
S'Knowledge Intensive Collaborative Decision Support for Design Process'
p2277
sL1382L
S'A Knowledge-Supported System for Engineering Change Impact Analysis'
p2278
sL1383L
S'Design Optimization of a Vehicle B-Pillar Subjected to Roof Crush Using Mixed Reactive Taboo Search'
p2279
sL1384L
S'Design Optimization of Vehicle Structures for Crashworthiness Using Equivalent Mechanism Approximations'
p2280
sL1385L
S'Response Surface Methods and Pareto Optimization in Crashworthiness Design'
p2281
sL1386L
S'Parametric Design Sensitivity Analysis of High Frequency Structural-Acoustic Problems Using Energy Finite Element Method'
p2282
sL1387L
S'The Effect of Tempering (Artificial Aging) on the Crashworthiness Performance of Mass-Efficient Extruded Aluminum Structures'
p2283
sL1388L
S'Bayesian Approximation-Assisted Optimization Applied to Crashworthiness Design of a Pickup Truck'
p2284
sL1389L
S'Emerging Virtual Machine Tools'
p2285
sL1390L
S'Computer Model Validation in Vehicle Crash Safety Design'
p2286
sL1391L
S'Penalized Likelihood Kriging Model for Analysis of Computer Experiments'
p2287
sL1392L
S'Analysis of Support Vector Regression for Approximation of Complex Engineering Analyses'
p2288
sL1393L
S'An Efficient Algorithm for Constructing Optimal Design of Computer Experiments'
p2289
sL1394L
S'Introducing Rough Set for Design Space Exploration and Optimization'
p2290
sL1395L
S'A Study on the Use of Kriging Models to Approximate Deterministic Computer Models'
p2291
sL1396L
S'A New Global Optimization Method for Simultaneous Computation on Expensive Black-Box Functions'
p2292
sL1397L
S'Multidimensional Solution Clustering and Its Application to the Coolant Passage Optimization of a Turbine Blade'
p2293
sL1398L
S'Optimization of a Semi-Active Shock Absorber for Aircraft Landing Gear'
p2294
sL1399L
S'Towards a Conceptual Design Explorer Using Metamodeling Approaches and Constraint Programming'
p2295
sL1400L
S'A Study of Emission Policy Effects on Optimal Vehicle Design Decisions'
p2296
sL1401L
S'Level Set Models for Structural Topology Optimization'
p2297
sL1402L
S'Topology Optimization of Heat-Resistant Structures'
p2298
sL1403L
S'Topology Optimization of a Compliant Gripper Using Hybrid Simulated Annealing and Direct Search'
p2299
sL1404L
S'Topology Optimization and Dynamic Performance of a Bike Frame With Dampers'
p2300
sL1405L
S'Robust Topological Design of Cellular Materials'
p2301
sL1406L
S'Structural Topology Optimization Using Function-Oriented Elements Based on the Concept of First Order Analysis'
p2302
sL1407L
S'Design of Energy Absorbing Structure Using Topology Optimization With a Multi-Material Model'
p2303
sL1408L
S'Parameterization Strategy for Optimization of Shape Morphing Compliant Mechanisms Using Load Path Representation'
p2304
sL1409L
S'A Face Clustering Method for a Hexahedral Meshing'
p2305
sL1410L
S'A New Approach to Minimisations for Shape Control During Free-Form Surface Deformation'
p2306
sL1411L
S'Smoothing of Noisy Laser Scanner Generated Meshes Using Polynomial Fitting and Neighborhood Erosion'
p2307
sL1412L
S'Partitioning Positional and Normal Space for Fast Occlusion Detection'
p2308
sL1413L
S'Automatic Toolpath Generation for Multi-Axis Surface Machining in a Hybrid Manufacturing System'
p2309
sL1414L
S'A Taxonomy for Collaborative Design'
p2310
sL1415L
S'A Study of Convergence in Decentralized Design'
p2311
sL1416L
S'Port-Compatibility and Connectability Based Assembly Design'
p2312
sL1417L
S'A Concurrent Design Method for Multiple Cross-Sectional Automotive Body Frames Involving Discrete and Continuous Design Variables'
p2313
sL1418L
S'Design Space Visualization and Its Application to a Design by Shopping Paradigm'
p2314
sL1419L
S'Design Process Error-Proofing: Development of Automated Error-Proofing Information Systems'
p2315
sL1420L
S'Design Evaluation Method for Miniature Machine Tools Utilizing Form-Shaping Theory'
p2316
sL1421L
S'Design Shell for Parametric Design at Embodiment Stage'
p2317
sL1422L
S'Scenario Expression for Characterizing Failure Cases'
p2318
sL1423L
S'Design Methodology for the Thermal Packaging of Hybrid Electronic-Mechanical Products: A Case Study on the Berkeley Emulation Engine (BEE)'
p2319
sL1424L
S'A Modeling Method for Vibration Analysis of a Stator Frame of Turbine Generators and Its Application to a Design System: Vibration Analysis and Analysis System'
p2320
sL1425L
S'Strengthening of Bone Cement by Shape Optimization of Short Fibers'
p2321
sL1426L
S'Constraint Dominance Methods Applied to the Design of a Linear Motor'
p2322
sL1427L
S'Design Sensitivity Analysis of Nonlinear Shell Structure With Frictionless Contact'
p2323
sL1428L
S'Optimal Troubleshooting for Electro-Mechanical Systems'
p2324
sL1429L
S'Optimization for Mass Variation of System Including Shock Absorber'
p2325
sL1430L
S'Discretizing Continuous Problems for Faster Global Convergence'
p2326
sL1431L
S'Optimal Packaging of Tank Turret System'
p2327
sL1432L
S'Genetic Range Genetic Algorithms to Obtain Quasi-Optimum Solutions'
p2328
sL1433L
S'Optimization of Helicopter Air Intake Scoop Design'
p2329
sL1434L
S'A Study on Immune Algorithms Considering Interaction of Design With Environment Properties'
p2330
sL1435L
S'Optimizing Optimization for Design Optimization'
p2331
sL1436L
S'Generalized Random Tunneling Algorithm for Continuous Design Variables'
p2332
sL1437L
S'Improved Development Cycle of a Compliant Manipulator'
p2333
sL1438L
S'On Honeycomb Parameterization for Topology Optimization of Compliant Mechanisms'
p2334
sL1439L
S'On Design of Electro-Thermally Compliant MEMS for Strength'
p2335
sL1441L
S'Introduction to Compliant Long-Dwell Mechanism Synthesis Using Buckling Arc Theory'
p2336
sL1442L
S'Distributed Compliant Model for Efficient Dynamic Simulation of Systems With Frictional Contacts'
p2337
sL1443L
S'Suspension Synthesis for N:1 Roll Center Motion'
p2338
sL1444L
S'A Robust Solution to the Spherical Rigid-Body Guidance Problem'
p2339
sL1445L
S'Designing a Dexterous Reconfigurable Packaging System for Flexible Automation'
p2340
sL1446L
S'Kinematic Synthesis of RPS Serial Chains'
p2341
sL1447L
S'Approximate Motion Synthesis of Open and Closed Chains via Parametric Constraint Manifold Fitting: Preliminary Results'
p2342
sL1448L
S'Suggesting Joint Limitations and Physical Parameters for Motion Generating 3 DOF Planar Chains'
p2343
sL1449L
S'Geometric Design of Cylindric PRS Serial Chains'
p2344
sL1450L
S'On the Effects of Weights in Rational Motion Design'
p2345
sL1451L
S'Dimensional Synthesis of CRR Serial Chains'
p2346
sL1452L
S'Analytical Determination of Principal Twists and Singular Directions in Robot Manipulators'
p2347
sL1453L
S'Type Synthesis of Three-DOF Translational Parallel Mechanisms'
p2348
sL1454L
S'Forward Problem Singularities of Manipulators Which Become PS-2RS or 2PS-RS Structures When the Actuators Are Locked'
p2349
sL1455L
S'Singularity Analysis of a Novel 4-DOFs Parallel Robot H4 by Using Screw Theory'
p2350
sL1456L
S'Planar Translational Cable-Direct-Driven Robots: Hardware Implementation'
p2351
sL1457L
S'Interpolation Algorithm and Its Error Prediction of a Tripod-Based Parallel Kinematic Machine'
p2352
sL1458L
S'An Integrated Virtual Validation System for Parallel Kinematic Machine Analysis Design'
p2353
sL1459L
S'Design Optimization of 6-HTRT Parallel Robot Orientated on Workspace'
p2354
sL1460L
S'Cable-Based Metrology System for Sculpting Assistance'
p2355
sL1461L
S'Optimal Integration of Smart Actuators in the Structure of Serial and Parallel Robot Manipulators to Enhance Speed and Tracking Precision'
p2356
sL1462L
S'An XZ Micropositioning Mechanism (XZMM) With Out-of-Plane Translation'
p2357
sL1463L
S'Kinetic Analysis of Planar Frictionless Mechanisms Made Simple'
p2358
sL1464L
S'Computer Simulation of Path and Motion Generation With Six-Bar Linkage'
p2359
sL1465L
S'On the Existence of Special Cases of Input Speed Doubling Linkage Mechanisms'
p2360
sL1466L
S'The Radius of Curvature of a Coupler Curve of the Single Flier Eight-Bar Linkage'
p2361
sL1467L
S'An Analytical Comparison Between Ball and Crossed Roller Bearings for Utilization in Actuator Modules for Precision Modular Robots'
p2362
sL1468L
S'Influence of End-Effector Velocities on Robotic Manipulator Dynamic Performance: An Analytical Approach'
p2363
sL1469L
S'Analysis and Visualization of the Contact Force Solution Space for Multi-Limbed Mobile Robots With Three Feet Contact'
p2364
sL1470L
S'Choosing the Optimal Contact Force Distribution for Multi-Limbed Mobile Robots With Three Feet Contact'
p2365
sL1471L
S'An Articulated Body Algorithm for Modelling and Simulation of an Underwater Vehicle Equipped With Manipulator Arm'
p2366
sL1472L
S'On the Design of Nesting Forces for Exactly Constrained, Robust Mechanical Assemblies'
p2367
sL1473L
S'On the Robustness of Exactly Constrained Mechanical Assemblies'
p2368
sL1474L
S'Analysis of Multiple Equilibrium Positions in Magnetostatic Field'
p2369
sL1475L
S'On the Geometry of 3D Orientation Measurement Using a New Class of Wireless Angular Position Sensors'
p2370
sL1476L
S'Similarity and Equivalence of Nutating Mechanisms to Bevel Epicyclic Gear Trains'
p2371
sL1477L
S'Forward Kinematics of 3-GPR Planar Parallel Manipulators With Circular Rolling Contact Joints'
p2372
sL1478L
S'The Robust Design of a Two-Wheeled Quasiholonomic Mobile Robot'
p2373
sL1479L
S'Kinematics of Wheeled Mobile Robots With Toroidal Wheels on Uneven Terrain'
p2374
sL1480L
S'Design of a Self-Actuating, Traction Drive System for High-Speed Ratios'
p2375
sL1481L
S'Topology and Shape Optimization of an Interbody Fusion Implant for Lumbar Spine Fixation'
p2376
sL1482L
S'An Integrated Design Optimization Approach for Quantitative and Qualitative Search Space'
p2377
sL1483L
S'An Approach for Generating Variational Geometry of a Pattern of Holes With Composite Positional Tolerances'
p2378
sL1484L
S'Design Decision-Making in the Early Stages of Collaborative Engineering'
p2379
sL1486L
S'Identifying Variable Effects on the Dimensional Quality of Compliant Assembly, Using Computer Experiments'
p2380
sL1488L
S'Reconstructing Freeform Surface With Parameterized Features'
p2381
sL1489L
S'Analysis and Design of a Four-Bar Linkage Type of Vibratory Parts Feeder Driven by Piezoelectric Actuator'
p2382
sL1490L
S'Autogenetic Design Theory: An Approach to Optimise Both the Design Process and the Product'
p2383
sL1491L
S'Human Head Aesthetic Design Using Hybrid Genetic Algorithm'
p2384
sL1492L
S'Applying Universal Linking of Engineering Objects in the Automotive Industry: Practical Aspects, Benefits, and Prototypes'
p2385
sL1493L
S'Mini-Max Type Formulation of Strict Robust Design Optimization Under Correlative Variation'
p2386
sL1494L
S'Optimization of Machine System Designs Using Hierarchical Decomposition Based on Criteria Influence'
p2387
sL1495L
S'Lifecycle-Based Product Design Using Global Optimization Methods Based on Hierarchical Genotype Representation of Alternatives and Constraints'
p2388
sL1496L
S'Conceptual Design of Tool Storage Based on the Divergent Tree Method'
p2389
sL1497L
S'Comparison of Gradient and Non Gradient Based Methods for Crash Optimisation'
p2390
sL1498L
S'Computational Geometric Modeling and Unfolding of 3-D Folded Structures'
p2391
sL1499L
S'Performance Optimization of Extrusion Blow Molded Parts Using Fuzzy Neural-Taguchi Method and Genetic Algorithm'
p2392
sL1500L
S'An Evolutionary Clustering Approach to Pareto Solutions in Multiobjective Optimization'
p2393
sL1501L
S'Automatic Conceptual Design of Mechanical Devices Based on Reasoning the Design Rules'
p2394
sL1502L
S'A Study on Collaborative Design Considering Features of Design'
p2395
sL1503L
S'Reconfiguration of Kinematic Structure for Changing Motion Requirement Based on Reusability Evaluation in Lie Algebra'
p2396
sL1504L
S'A Study on Optimum Topology of Plate Structure Using Coordinate Transformation by Conformal Mapping'
p2397
sL1505L
S'Computer-Aided Analysis of Free Transverse-Vibration of Stepped Beams'
p2398
sL1506L
S'Thermal Robustness and Mass Optimization of Heat Pipe Shape for Spacecraft Panel Using a Combination of Response Surface Methodology and Monte Carlo Simulation'
p2399
sL1507L
S'Dual Stage Input Coupled Split Power Transmission Efficiency Optimization'
p2400
sL1508L
S'Informing Design Using Data Mining Methods'
p2401
sL1509L
S'Development of Multi-Stage and Hybrid Real-Coded Genetic Algorithms With Active Constraints'
p2402
sL1510L
S'Computational Recognition of Functional Parameters of Surfaces for the Kinematic Design of Window Regulator Systems'
p2403
sL1511L
S'Human Modelling: A Constraint-Based Feature Modelling Approach'
p2404
sL1512L
S'Analysis of Loads and Stresses for a Sewing Needle'
p2405
sL1513L
S'Artificial Immune System Based Isomorphism Identification Method for Mechanism Kinematics Chains'
p2406
sL1515L
S'Cross Model Shape Reuse: Copying and Pasting of Freeform Features'
p2407
sL1516L
S'Automated Design Synthesis for Micro-Electro-Mechanical Systems (MEMS)'
p2408
sL1517L
S'Use of Constrained Viscoelastic Layers in the Design of Satellite Panels to Predict the Amplification Factor'
p2409
sL1518L
S'Stiffness Testing of Hydraulic Hoses'
p2410
sL1519L
S'Finite Element Analysis in 3D Using the Penalty Boundary Method'
p2411
sL1520L
S'Integration of Commercial CAD/CAM System With Custom CAPP Using Orbix Middleware and CORBA Standard'
p2412
sL1521L
S'Counting Degrees of Freedom for Developable Bezier Surface Design'
p2413
sL1522L
S'Determination of Geometric Distortions in Automotive Lamps Using Non-Linear Parametric Estimations'
p2414
sL1523L
S'Macroscopic Shape-Information as a Curve Design-Guideline'
p2415
sL1524L
S'Collaborative Decision Making Across Digital Interfaces'
p2416
sL1525L
S'Local Least Squares Fitting for Surface Mesh Fairing in Automobile Panel Design'
p2417
sL1526L
S'A Stochastic Optimization Application for Vehicle Structures'
p2418
sL1527L
S'Math-Based Performance Evaluation of an Experimental Car: Side Impact Protection'
p2419
sL1528L
S'Model Reduction in Structural Analysis Using a Multiresolution Analysis'
p2420
sL1529L
S'A Web Enabled Process for Accessing Customized Parametric Designs'
p2421
sL1530L
S'Multiattribute Decision Making Using Hypothetical Equivalents'
p2422
sL1531L
S'Interactive Product Design Selection With an Implicit Value Function'
p2423
sL1532L
S'A Customer-Based Expected Utility Metric for Product Design Selection'
p2424
sL1533L
S'Empirical Analysis Using Advanced Similarity Methods'
p2425
sL1534L
S'Decomposition-Based Assembly Synthesis Based on Structural Stiffness Considerations'
p2426
sL1535L
S'An Analytical Approach to Functional Design'
p2427
sL1536L
S'Control, Design and Error Variables in Decomposition of Design Optimization Problems'
p2428
sL1537L
S'Decomposition-Based Assembly Synthesis for In-Process Dimensional Adjustability'
p2429
sL1538L
S'A Grammar-Based Approach to Sheet Metal Design'
p2430
sL1539L
S'Adaptive-Agent Based Simulation Model to Study Diffusion of Eco-Innovation Strategies'
p2431
sL1540L
S'A Knowledge-Based Approach to Spur Gear Fabrication in Precision Forging Process'
p2432
sL1541L
S'A Benchmark Comparison of Curvature Matched Machining versus Three- and Five-Axis Machining Methods Applied to Industrial Part Surfaces'
p2433
sL1542L
S'Adaptive Experimental Design Applied to Ergonomics Testing Procedure'
p2434
sL1543L
S'On Sequential Sampling for Global Metamodeling in Engineering Design'
p2435
sL1544L
S'Computer Implementation of an Improved Kutzbach-Grubler Mobility Criterion'
p2436
sL1545L
S'Modeling of Slope Discontinuities in Flexible Body Dynamics Using the Finite Element Method'
p2437
sL1546L
S'Design of Hierarchic Platforms for Customizable Products'
p2438
sL1547L
S'A Quantitative Approach for Designing Multiple Product Platforms for an Evolving Portfolio of Products'
p2439
sL1548L
S'Optimal Design Decisions in Product Portfolio Valuation'
p2440
sL1549L
S'Knowledge Intensive Support for Product Family Design'
p2441
sL1550L
S'Platform Selection Under Performance Loss Constraints in Optimal Design of Product Families'
p2442
sL1551L
S'Inverse Parametric Modeling From Independently Generated Product Data Sets'
p2443
sL1552L
S'A Hybrid Approach to Feature Recognition Using Approximate and Partial Exact CAD Models'
p2444
sL1553L
S'A Mesh Feature Paradigm for Rapid Generation of CAE-Based Design of Experiments Data'
p2445
sL1554L
S'Development of Adaptive Range Genetic Algorithms Considering Inheritance of Searching Range'
p2446
sL1555L
S'GA-Based Multi-Objective Fuzzy Matter-Element Optimization'
p2447
sL1556L
S'Using Genetic Algorithms With Niche Formation to Solve the Minimum Distance Problem Among Concave Objects'
p2448
sL1557L
S'A Genetic Algorithm Based Method for Product Family Design Optimization'
p2449
sL1558L
S'Shape Optimization of NURBS Modeled 3D C-Frames Using Hybrid Genetic Algorithm'
p2450
sL1559L
S'Robust Design Through the Use of a Hybrid Genetic Algorithm'
p2451
sL1560L
S'Nonlinear Kinematic Tolerance Analysis of Planar Higher Pairs'
p2452
sL1561L
S'Parameter Sensitivity in System Identification of Parallel Mechanisms'
p2453
sL1562L
S'A New Symbolic Method to Determine Base Inertia Parameters for General Spatial Mechanisms'
p2454
sL1563L
S'Redesign of a Spatial Gear Pair Using Configuration Spaces'
p2455
sL1564L
S'Error Sensitivity Analysis for Optimal Calibration of Parallel Kinematic Machines'
p2456
sL1565L
S'Development of an Interactive Web-Based Support System for Gear Design'
p2457
sL1566L
S'An Extensive Simplex Method Mapping the Global Feasibility'
p2458
sL1567L
S'Theoretical Evaluation of the Integrated Structure and Control Design Approach by Optimization Theory'
p2459
sL1568L
S'Finding the Shortest Path for Quality Assurance of Electric Components'
p2460
sL1569L
S'Development of an Automatic Design and Optimization System for Industrial Silencers'
p2461
sL1570L
S'Architectural Optimisation Using Real Options Theory and Dependency Structure Matrices'
p2462
sL1571L
S'Dynamic Analysis and Optimization of Tensioner in Automotive Serpentine Belt Drive Systems'
p2463
sL1572L
S'Configurable and Extensible System for Experimenting With Design Optimization'
p2464
sL1573L
S'On the Entropy of Multi-Objective Design Optimization Solution Sets'
p2465
sL1574L
S'A Sensitivity-Based Pattern Search Algorithm for 3D Component Layout'
p2466
sL1575L
S'Hybrid Approach for Containment Problems'
p2467
sL1576L
S'A Non-Deterministic Approach to Concept Selection Using S-Pareto Frontiers'
p2468
sL1577L
S'Sequential Optimization and Reliability Assessment Method for Efficient Probabilistic Design'
p2469
sL1578L
S'An Investigation of Nonlinearity of Reliability-Based Design Optimization Approaches'
p2470
sL1579L
S'New Concepts in Graphic Visualization of Objective Functions'
p2471
sL1580L
S'Visualization of Multidimensional Design and Optimization Data Using Cloud Visualization'
p2472
sL1581L
S'Design Optimization for Structural-Acoustic Problems Using FEM-BEM'
p2473
sL1583L
S'Dynamic Project Navigation: Modelling, Improving, and Review of Engineering Processes'
p2474
sL1584L
S'Benefit Evaluation of New Technologies'
p2475
sL1585L
S'Smart Assemblies for Robust Design: A Progress Report'
p2476
sL1587L
S'The Evolution of a Layered Manufacturing Interchange Format'
p2477
sL1588L
S'ModelAngelo: A Rapid Prototyping System for Polystyrene'
p2478
sL1589L
S'Automatic Process Planning of a Multi-Axis Hybrid Manufacturing System'
p2479
sL1590L
S'H-ISM: An Implementation of Heterogeneous Implicit Solid Modeling'
p2480
sL1591L
S'Model Validation via Uncertainty Propagation Using Response Surface Models'
p2481
sL1592L
S'Bayesian Evaluation of Engineering Models'
p2482
sL1593L
S'Uncertainty Analysis Using a Constraint Reliability Index'
p2483
sL1594L
S'A Tool Management System for Probabilistic Design Problems'
p2484
sL1595L
S'Evaluation of Conceptual Designs and Maintainability Incorporating Uncertainty'
p2485
sL1596L
S'Computer-Aided Fixture Design Verification: Part II -- Tolerance Analysis'
p2486
sL1597L
S'A Scheme for Transformation of Tolerance Specifications to Generalized Deviation Space for Use in Tolerance Synthesis and Analysis'
p2487
sL1598L
S'Topology Optimization of Compliant Mechanisms Using Evolutionary Algorithm With Design Geometry Encoded as a Graph'
p2488
sL1599L
S'Optimal Embedding in the Topology Design of Structures'
p2489
sL1600L
S'An Evolutionary Multi-Objective Optimization Approach to the Topology Optimization of Auxetic Structures'
p2490
sL1601L
S'Compliant Mechanism Design With Non-Linear Materials Using Topology Optimization'
p2491
sL1602L
S'An Interactive Virtual Environment for 3D Model Assembly With Video Immersion'
p2492
sL1603L
S'Modeling of Hydraulic Hose Paths'
p2493
sL1604L
S'Math-Based Performance Evaluation of an Experimental Car: Frontal Impact Crashworthiness'
p2494
ssb.