ccopy_reg
_reconstructor
p0
(c__main__
CitationNetwork
p1
c__builtin__
object
p2
Ntp3
Rp4
(dp5
S'network_dict'
p6
(dp7
L715L
c__builtin__
set
p8
((lp9
tp10
Rp11
sL716L
g8
((lp12
tp13
Rp14
sL717L
g8
((lp15
L1132L
aL773L
atp16
Rp17
sL718L
g8
((lp18
tp19
Rp20
sL719L
g8
((lp21
tp22
Rp23
sL720L
g8
((lp24
tp25
Rp26
sL721L
g8
((lp27
L854L
atp28
Rp29
sL722L
g8
((lp30
tp31
Rp32
sL723L
g8
((lp33
tp34
Rp35
sL724L
g8
((lp36
tp37
Rp38
sL725L
g8
((lp39
tp40
Rp41
sL726L
g8
((lp42
L1393L
aL1203L
aL1021L
aL1343L
atp43
Rp44
sL727L
g8
((lp45
tp46
Rp47
sL728L
g8
((lp48
tp49
Rp50
sL729L
g8
((lp51
tp52
Rp53
sL730L
g8
((lp54
tp55
Rp56
sL731L
g8
((lp57
L1416L
atp58
Rp59
sL732L
g8
((lp60
L1048L
aL857L
aL1301L
aL1089L
atp61
Rp62
sL733L
g8
((lp63
tp64
Rp65
sL734L
g8
((lp66
tp67
Rp68
sL735L
g8
((lp69
L1226L
aL1419L
atp70
Rp71
sL736L
g8
((lp72
tp73
Rp74
sL737L
g8
((lp75
L1414L
atp76
Rp77
sL738L
g8
((lp78
L1577L
atp79
Rp80
sL739L
g8
((lp81
tp82
Rp83
sL740L
g8
((lp84
L1282L
aL1415L
aL1106L
aL978L
aL1530L
aL895L
atp85
Rp86
sL741L
g8
((lp87
tp88
Rp89
sL743L
g8
((lp90
tp91
Rp92
sL744L
g8
((lp93
L1039L
atp94
Rp95
sL745L
g8
((lp96
tp97
Rp98
sL746L
g8
((lp99
L1188L
aL1557L
aL911L
atp100
Rp101
sL747L
g8
((lp102
tp103
Rp104
sL748L
g8
((lp105
tp106
Rp107
sL749L
g8
((lp108
L864L
atp109
Rp110
sL750L
g8
((lp111
L752L
aL857L
aL858L
aL1069L
aL895L
atp112
Rp113
sL751L
g8
((lp114
L861L
atp115
Rp116
sL752L
g8
((lp117
L1069L
aL750L
atp118
Rp119
sL753L
g8
((lp120
L1069L
atp121
Rp122
sL754L
g8
((lp123
L1034L
aL1532L
aL861L
atp124
Rp125
sL756L
g8
((lp126
tp127
Rp128
sL757L
g8
((lp129
L857L
aL1302L
aL895L
atp130
Rp131
sL758L
g8
((lp132
L895L
atp133
Rp134
sL759L
g8
((lp135
tp136
Rp137
sL760L
g8
((lp138
tp139
Rp140
sL761L
g8
((lp141
L1121L
atp142
Rp143
sL762L
g8
((lp144
L1010L
atp145
Rp146
sL763L
g8
((lp147
L1418L
atp148
Rp149
sL764L
g8
((lp150
tp151
Rp152
sL765L
g8
((lp153
L868L
atp154
Rp155
sL766L
g8
((lp156
L1029L
atp157
Rp158
sL767L
g8
((lp159
tp160
Rp161
sL768L
g8
((lp162
L982L
atp163
Rp164
sL769L
g8
((lp165
L1068L
atp166
Rp167
sL770L
g8
((lp168
L876L
aL982L
atp169
Rp170
sL771L
g8
((lp171
tp172
Rp173
sL772L
g8
((lp174
tp175
Rp176
sL773L
g8
((lp177
L717L
atp178
Rp179
sL774L
g8
((lp180
tp181
Rp182
sL775L
g8
((lp183
tp184
Rp185
sL777L
g8
((lp186
L890L
atp187
Rp188
sL779L
g8
((lp189
tp190
Rp191
sL780L
g8
((lp192
tp193
Rp194
sL781L
g8
((lp195
tp196
Rp197
sL782L
g8
((lp198
L891L
atp199
Rp200
sL784L
g8
((lp201
tp202
Rp203
sL785L
g8
((lp204
tp205
Rp206
sL786L
g8
((lp207
tp208
Rp209
sL787L
g8
((lp210
tp211
Rp212
sL788L
g8
((lp213
L1584L
aL1541L
aL1086L
atp214
Rp215
sL789L
g8
((lp216
tp217
Rp218
sL790L
g8
((lp219
tp220
Rp221
sL791L
g8
((lp222
tp223
Rp224
sL792L
g8
((lp225
tp226
Rp227
sL793L
g8
((lp228
tp229
Rp230
sL794L
g8
((lp231
L1181L
atp232
Rp233
sL795L
g8
((lp234
tp235
Rp236
sL796L
g8
((lp237
L1185L
aL1186L
aL1187L
aL1349L
aL1222L
aL1546L
aL1557L
atp238
Rp239
sL797L
g8
((lp240
L915L
aL1021L
aL1327L
atp241
Rp242
sL798L
g8
((lp243
L898L
atp244
Rp245
sL799L
g8
((lp246
tp247
Rp248
sL800L
g8
((lp249
L1264L
atp250
Rp251
sL801L
g8
((lp252
L1168L
aL1392L
aL1010L
atp253
Rp254
sL802L
g8
((lp255
L1008L
atp256
Rp257
sL803L
g8
((lp258
L1238L
aL1197L
aL1366L
aL911L
atp259
Rp260
sL804L
g8
((lp261
tp262
Rp263
sL805L
g8
((lp264
L907L
atp265
Rp266
sL806L
g8
((lp267
tp268
Rp269
sL807L
g8
((lp270
tp271
Rp272
sL808L
g8
((lp273
L1537L
aL1287L
aL1384L
aL1321L
aL1040L
aL1577L
aL921L
atp274
Rp275
sL809L
g8
((lp276
tp277
Rp278
sL810L
g8
((lp279
tp280
Rp281
sL811L
g8
((lp282
tp283
Rp284
sL812L
g8
((lp285
L1048L
aL1353L
atp286
Rp287
sL813L
g8
((lp288
L1048L
aL1418L
aL932L
aL933L
atp289
Rp290
sL814L
g8
((lp291
L1058L
atp292
Rp293
sL815L
g8
((lp294
L926L
atp295
Rp296
sL816L
g8
((lp297
L1248L
aL1547L
aL932L
aL1054L
atp298
Rp299
sL817L
g8
((lp300
L1353L
aL1057L
atp301
Rp302
sL818L
g8
((lp303
L1001L
atp304
Rp305
sL819L
g8
((lp306
L1239L
atp307
Rp308
sL820L
g8
((lp309
tp310
Rp311
sL821L
g8
((lp312
tp313
Rp314
sL822L
g8
((lp315
L1200L
atp316
Rp317
sL823L
g8
((lp318
L1010L
aL903L
atp319
Rp320
sL824L
g8
((lp321
L1200L
aL946L
atp322
Rp323
sL825L
g8
((lp324
L947L
atp325
Rp326
sL826L
g8
((lp327
tp328
Rp329
sL828L
g8
((lp330
tp331
Rp332
sL829L
g8
((lp333
tp334
Rp335
sL830L
g8
((lp336
tp337
Rp338
sL831L
g8
((lp339
L1516L
aL1124L
atp340
Rp341
sL832L
g8
((lp342
tp343
Rp344
sL833L
g8
((lp345
tp346
Rp347
sL834L
g8
((lp348
tp349
Rp350
sL836L
g8
((lp351
tp352
Rp353
sL837L
g8
((lp354
tp355
Rp356
sL838L
g8
((lp357
tp358
Rp359
sL839L
g8
((lp360
tp361
Rp362
sL840L
g8
((lp363
tp364
Rp365
sL841L
g8
((lp366
tp367
Rp368
sL842L
g8
((lp369
L1037L
atp370
Rp371
sL843L
g8
((lp372
L973L
atp373
Rp374
sL845L
g8
((lp375
tp376
Rp377
sL846L
g8
((lp378
tp379
Rp380
sL847L
g8
((lp381
tp382
Rp383
sL848L
g8
((lp384
tp385
Rp386
sL849L
g8
((lp387
tp388
Rp389
sL850L
g8
((lp390
tp391
Rp392
sL851L
g8
((lp393
tp394
Rp395
sL852L
g8
((lp396
tp397
Rp398
sL853L
g8
((lp399
tp400
Rp401
sL854L
g8
((lp402
L721L
atp403
Rp404
sL855L
g8
((lp405
tp406
Rp407
sL856L
g8
((lp408
L1532L
atp409
Rp410
sL857L
g8
((lp411
L859L
aL732L
aL757L
aL750L
atp412
Rp413
sL858L
g8
((lp414
L750L
atp415
Rp416
sL859L
g8
((lp417
L857L
atp418
Rp419
sL860L
g8
((lp420
tp421
Rp422
sL861L
g8
((lp423
L754L
aL751L
atp424
Rp425
sL862L
g8
((lp426
tp427
Rp428
sL863L
g8
((lp429
tp430
Rp431
sL864L
g8
((lp432
L749L
aL1503L
aL1053L
aL1046L
aL1055L
atp433
Rp434
sL865L
g8
((lp435
tp436
Rp437
sL866L
g8
((lp438
tp439
Rp440
sL867L
g8
((lp441
tp442
Rp443
sL868L
g8
((lp444
L765L
atp445
Rp446
sL869L
g8
((lp447
tp448
Rp449
sL870L
g8
((lp450
tp451
Rp452
sL871L
g8
((lp453
L1600L
aL1601L
aL1599L
atp454
Rp455
sL872L
g8
((lp456
L1231L
atp457
Rp458
sL873L
g8
((lp459
L1543L
aL1395L
aL1271L
aL1013L
aL1079L
atp460
Rp461
sL874L
g8
((lp462
L1366L
atp463
Rp464
sL875L
g8
((lp465
tp466
Rp467
sL876L
g8
((lp468
L770L
aL1196L
aL982L
atp469
Rp470
sL877L
g8
((lp471
tp472
Rp473
sL878L
g8
((lp474
tp475
Rp476
sL879L
g8
((lp477
L1516L
atp478
Rp479
sL880L
g8
((lp480
tp481
Rp482
sL881L
g8
((lp483
L971L
atp484
Rp485
sL882L
g8
((lp486
L1553L
aL1134L
atp487
Rp488
sL883L
g8
((lp489
tp490
Rp491
sL884L
g8
((lp492
tp493
Rp494
sL885L
g8
((lp495
tp496
Rp497
sL886L
g8
((lp498
tp499
Rp500
sL887L
g8
((lp501
tp502
Rp503
sL888L
g8
((lp504
tp505
Rp506
sL889L
g8
((lp507
L1024L
atp508
Rp509
sL890L
g8
((lp510
L777L
atp511
Rp512
sL891L
g8
((lp513
L1317L
aL782L
atp514
Rp515
sL892L
g8
((lp516
L1082L
atp517
Rp518
sL894L
g8
((lp519
tp520
Rp521
sL895L
g8
((lp522
L740L
aL758L
aL1255L
aL1034L
aL750L
aL1108L
aL757L
aL1046L
aL1532L
atp523
Rp524
sL896L
g8
((lp525
tp526
Rp527
sL897L
g8
((lp528
L1301L
atp529
Rp530
sL898L
g8
((lp531
L798L
atp532
Rp533
sL899L
g8
((lp534
L1162L
aL1046L
atp535
Rp536
sL900L
g8
((lp537
tp538
Rp539
sL901L
g8
((lp540
L1222L
atp541
Rp542
sL902L
g8
((lp543
L1007L
aL1542L
aL1543L
atp544
Rp545
sL903L
g8
((lp546
L823L
aL1543L
aL1204L
aL1271L
atp547
Rp548
sL904L
g8
((lp549
tp550
Rp551
sL905L
g8
((lp552
tp553
Rp554
sL906L
g8
((lp555
L1543L
aL1321L
aL1327L
aL1393L
aL1080L
aL1082L
atp556
Rp557
sL907L
g8
((lp558
L805L
aL1222L
atp559
Rp560
sL908L
g8
((lp561
L1577L
aL1203L
atp562
Rp563
sL909L
g8
((lp564
tp565
Rp566
sL910L
g8
((lp567
L1203L
aL1284L
aL1197L
aL1238L
atp568
Rp569
sL911L
g8
((lp570
L746L
aL803L
aL933L
aL911L
atp571
Rp572
sL912L
g8
((lp573
L1177L
atp574
Rp575
sL913L
g8
((lp576
tp577
Rp578
sL914L
g8
((lp579
tp580
Rp581
sL915L
g8
((lp582
L1170L
aL797L
atp583
Rp584
sL916L
g8
((lp585
tp586
Rp587
sL917L
g8
((lp588
L1006L
atp589
Rp590
sL918L
g8
((lp591
tp592
Rp593
sL919L
g8
((lp594
tp595
Rp596
sL920L
g8
((lp597
tp598
Rp599
sL921L
g8
((lp600
L808L
atp601
Rp602
sL922L
g8
((lp603
tp604
Rp605
sL923L
g8
((lp606
tp607
Rp608
sL924L
g8
((lp609
L1435L
aL1119L
atp610
Rp611
sL925L
g8
((lp612
L1050L
aL1189L
atp613
Rp614
sL926L
g8
((lp615
L1057L
aL815L
atp616
Rp617
sL927L
g8
((lp618
L1057L
aL1418L
atp619
Rp620
sL928L
g8
((lp621
tp622
Rp623
sL929L
g8
((lp624
L1049L
atp625
Rp626
sL930L
g8
((lp627
L1001L
aL1046L
atp628
Rp629
sL931L
g8
((lp630
L1530L
aL1107L
atp631
Rp632
sL932L
g8
((lp633
L816L
aL933L
aL813L
atp634
Rp635
sL933L
g8
((lp636
L1313L
aL1188L
aL1353L
aL1546L
aL1547L
aL813L
aL911L
aL1557L
aL932L
atp637
Rp638
sL934L
g8
((lp639
tp640
Rp641
sL935L
g8
((lp642
L1184L
aL1557L
atp643
Rp644
sL936L
g8
((lp645
tp646
Rp647
sL937L
g8
((lp648
L1353L
aL1251L
aL1188L
aL1191L
atp649
Rp650
sL938L
g8
((lp651
L1239L
atp652
Rp653
sL939L
g8
((lp654
tp655
Rp656
sL940L
g8
((lp657
tp658
Rp659
sL941L
g8
((lp660
L1084L
aL1068L
atp661
Rp662
sL942L
g8
((lp663
L1201L
aL1339L
atp664
Rp665
sL943L
g8
((lp666
L1341L
atp667
Rp668
sL944L
g8
((lp669
L1067L
aL1341L
atp670
Rp671
sL945L
g8
((lp672
tp673
Rp674
sL946L
g8
((lp675
L1200L
aL824L
aL1085L
atp676
Rp677
sL947L
g8
((lp678
L825L
atp679
Rp680
sL948L
g8
((lp681
L1084L
aL1205L
atp682
Rp683
sL949L
g8
((lp684
tp685
Rp686
sL950L
g8
((lp687
L1080L
aL1203L
aL1205L
atp688
Rp689
sL951L
g8
((lp690
tp691
Rp692
sL952L
g8
((lp693
L1264L
aL1577L
aL1250L
aL1395L
atp694
Rp695
sL953L
g8
((lp696
L1577L
atp697
Rp698
sL954L
g8
((lp699
tp700
Rp701
sL955L
g8
((lp702
tp703
Rp704
sL956L
g8
((lp705
tp706
Rp707
sL957L
g8
((lp708
tp709
Rp710
sL958L
g8
((lp711
tp712
Rp713
sL960L
g8
((lp714
tp715
Rp716
sL961L
g8
((lp717
tp718
Rp719
sL962L
g8
((lp720
tp721
Rp722
sL963L
g8
((lp723
tp724
Rp725
sL964L
g8
((lp726
tp727
Rp728
sL965L
g8
((lp729
tp730
Rp731
sL966L
g8
((lp732
tp733
Rp734
sL967L
g8
((lp735
tp736
Rp737
sL968L
g8
((lp738
tp739
Rp740
sL969L
g8
((lp741
L1186L
aL1187L
aL1428L
aL1222L
atp742
Rp743
sL970L
g8
((lp744
L1132L
aL1222L
atp745
Rp746
sL971L
g8
((lp747
L881L
atp748
Rp749
sL972L
g8
((lp750
tp751
Rp752
sL973L
g8
((lp753
L843L
atp754
Rp755
sL974L
g8
((lp756
L1550L
aL1255L
atp757
Rp758
sL975L
g8
((lp759
tp760
Rp761
sL976L
g8
((lp762
tp763
Rp764
sL977L
g8
((lp765
tp766
Rp767
sL978L
g8
((lp768
L740L
aL1238L
atp769
Rp770
sL979L
g8
((lp771
tp772
Rp773
sL980L
g8
((lp774
L1414L
atp775
Rp776
sL981L
g8
((lp777
tp778
Rp779
sL982L
g8
((lp780
L768L
aL876L
aL770L
aL1196L
atp781
Rp782
sL983L
g8
((lp783
tp784
Rp785
sL984L
g8
((lp786
tp787
Rp788
sL985L
g8
((lp789
tp790
Rp791
sL986L
g8
((lp792
L1110L
aL1422L
atp793
Rp794
sL987L
g8
((lp795
L1141L
atp796
Rp797
sL988L
g8
((lp798
tp799
Rp800
sL989L
g8
((lp801
tp802
Rp803
sL990L
g8
((lp804
tp805
Rp806
sL991L
g8
((lp807
L1134L
atp808
Rp809
sL992L
g8
((lp810
tp811
Rp812
sL993L
g8
((lp813
L1317L
atp814
Rp815
sL994L
g8
((lp816
L1368L
atp817
Rp818
sL995L
g8
((lp819
L1368L
atp820
Rp821
sL996L
g8
((lp822
tp823
Rp824
sL997L
g8
((lp825
tp826
Rp827
sL998L
g8
((lp828
tp829
Rp830
sL999L
g8
((lp831
L1346L
atp832
Rp833
sL1000L
g8
((lp834
L1169L
atp835
Rp836
sL1001L
g8
((lp837
L818L
aL930L
atp838
Rp839
sL1002L
g8
((lp840
L1162L
atp841
Rp842
sL1003L
g8
((lp843
tp844
Rp845
sL1004L
g8
((lp846
tp847
Rp848
sL1005L
g8
((lp849
tp850
Rp851
sL1006L
g8
((lp852
L1106L
aL917L
atp853
Rp854
sL1007L
g8
((lp855
L1010L
aL902L
aL1542L
atp856
Rp857
sL1008L
g8
((lp858
L802L
aL1250L
aL1327L
aL1271L
aL1543L
atp859
Rp860
sL1009L
g8
((lp861
tp862
Rp863
sL1010L
g8
((lp864
L801L
aL1250L
aL1542L
aL1321L
aL1580L
aL1391L
aL1168L
aL823L
aL762L
aL1007L
aL1341L
atp865
Rp866
sL1012L
g8
((lp867
L1012L
atp868
Rp869
sL1013L
g8
((lp870
L1592L
aL873L
aL1271L
atp871
Rp872
sL1014L
g8
((lp873
tp874
Rp875
sL1015L
g8
((lp876
tp877
Rp878
sL1016L
g8
((lp879
tp880
Rp881
sL1017L
g8
((lp882
tp883
Rp884
sL1018L
g8
((lp885
tp886
Rp887
sL1019L
g8
((lp888
tp889
Rp890
sL1020L
g8
((lp891
tp892
Rp893
sL1021L
g8
((lp894
L797L
aL726L
atp895
Rp896
sL1022L
g8
((lp897
tp898
Rp899
sL1023L
g8
((lp900
tp901
Rp902
sL1024L
g8
((lp903
L1553L
aL889L
atp904
Rp905
sL1025L
g8
((lp906
L1515L
atp907
Rp908
sL1026L
g8
((lp909
tp910
Rp911
sL1027L
g8
((lp912
tp913
Rp914
sL1028L
g8
((lp915
tp916
Rp917
sL1029L
g8
((lp918
L766L
aL1367L
atp919
Rp920
sL1030L
g8
((lp921
L1134L
aL1367L
atp922
Rp923
sL1031L
g8
((lp924
tp925
Rp926
sL1032L
g8
((lp927
tp928
Rp929
sL1033L
g8
((lp930
tp931
Rp932
sL1034L
g8
((lp933
L754L
aL895L
atp934
Rp935
sL1035L
g8
((lp936
tp937
Rp938
sL1036L
g8
((lp939
L1182L
atp940
Rp941
sL1037L
g8
((lp942
L842L
atp943
Rp944
sL1038L
g8
((lp945
tp946
Rp947
sL1039L
g8
((lp948
L744L
aL1222L
atp949
Rp950
sL1040L
g8
((lp951
L808L
aL1287L
atp952
Rp953
sL1041L
g8
((lp954
L1366L
atp955
Rp956
sL1042L
g8
((lp957
tp958
Rp959
sL1043L
g8
((lp960
L1366L
atp961
Rp962
sL1044L
g8
((lp963
tp964
Rp965
sL1045L
g8
((lp966
tp967
Rp968
sL1046L
g8
((lp969
L864L
aL930L
aL899L
aL1547L
aL1048L
aL895L
atp970
Rp971
sL1048L
g8
((lp972
L1547L
aL812L
aL813L
aL1046L
aL732L
aL1183L
atp973
Rp974
sL1049L
g8
((lp975
L929L
atp976
Rp977
sL1050L
g8
((lp978
L1057L
aL1189L
aL925L
atp979
Rp980
sL1052L
g8
((lp981
L1248L
aL1313L
aL1060L
aL1349L
aL1546L
aL1547L
aL1557L
aL1052L
atp982
Rp983
sL1053L
g8
((lp984
L864L
aL1239L
aL1196L
aL1109L
aL1557L
atp985
Rp986
sL1054L
g8
((lp987
L1353L
aL1546L
aL1547L
aL1548L
aL1550L
aL816L
aL1557L
atp988
Rp989
sL1055L
g8
((lp990
L864L
atp991
Rp992
sL1056L
g8
((lp993
L1366L
atp994
Rp995
sL1057L
g8
((lp996
L817L
aL1050L
aL926L
aL927L
atp997
Rp998
sL1058L
g8
((lp999
L814L
atp1000
Rp1001
sL1059L
g8
((lp1002
L1416L
atp1003
Rp1004
sL1060L
g8
((lp1005
L1248L
aL1251L
aL1190L
aL1191L
aL1193L
aL1557L
aL1353L
aL1052L
atp1006
Rp1007
sL1061L
g8
((lp1008
tp1009
Rp1010
sL1062L
g8
((lp1011
L1358L
atp1012
Rp1013
sL1063L
g8
((lp1014
tp1015
Rp1016
sL1064L
g8
((lp1017
L1589L
aL1358L
atp1018
Rp1019
sL1065L
g8
((lp1020
tp1021
Rp1022
sL1066L
g8
((lp1023
tp1024
Rp1025
sL1067L
g8
((lp1026
L944L
aL1577L
aL1200L
aL1264L
aL1267L
aL1342L
atp1027
Rp1028
sL1068L
g8
((lp1029
L1201L
aL941L
aL1390L
aL769L
atp1030
Rp1031
sL1069L
g8
((lp1032
L752L
aL753L
aL750L
aL1366L
atp1033
Rp1034
sL1070L
g8
((lp1035
L1072L
aL1201L
atp1036
Rp1037
sL1071L
g8
((lp1038
L1264L
aL1577L
aL1342L
atp1039
Rp1040
sL1072L
g8
((lp1041
L1070L
atp1042
Rp1043
sL1073L
g8
((lp1044
L1264L
aL1577L
atp1045
Rp1046
sL1074L
g8
((lp1047
L1348L
atp1048
Rp1049
sL1075L
g8
((lp1050
tp1051
Rp1052
sL1076L
g8
((lp1053
tp1054
Rp1055
sL1077L
g8
((lp1056
tp1057
Rp1058
sL1078L
g8
((lp1059
L1264L
aL1577L
aL1342L
atp1060
Rp1061
sL1079L
g8
((lp1062
L873L
aL1271L
atp1063
Rp1064
sL1080L
g8
((lp1065
L1080L
aL906L
aL950L
atp1066
Rp1067
sL1081L
g8
((lp1068
tp1069
Rp1070
sL1082L
g8
((lp1071
L906L
aL892L
atp1072
Rp1073
sL1083L
g8
((lp1074
tp1075
Rp1076
sL1084L
g8
((lp1077
L948L
aL941L
atp1078
Rp1079
sL1085L
g8
((lp1080
L1200L
aL946L
aL1205L
aL1286L
atp1081
Rp1082
sL1086L
g8
((lp1083
L788L
atp1084
Rp1085
sL1087L
g8
((lp1086
tp1087
Rp1088
sL1088L
g8
((lp1089
L1301L
atp1090
Rp1091
sL1089L
g8
((lp1092
L732L
atp1093
Rp1094
sL1090L
g8
((lp1095
tp1096
Rp1097
sL1091L
g8
((lp1098
tp1099
Rp1100
sL1092L
g8
((lp1101
tp1102
Rp1103
sL1093L
g8
((lp1104
tp1105
Rp1106
sL1094L
g8
((lp1107
tp1108
Rp1109
sL1095L
g8
((lp1110
L1326L
atp1111
Rp1112
sL1096L
g8
((lp1113
L1282L
aL1399L
aL1325L
aL1238L
aL1415L
atp1114
Rp1115
sL1097L
g8
((lp1116
tp1117
Rp1118
sL1098L
g8
((lp1119
tp1120
Rp1121
sL1099L
g8
((lp1122
tp1123
Rp1124
sL1100L
g8
((lp1125
tp1126
Rp1127
sL1101L
g8
((lp1128
tp1129
Rp1130
sL1102L
g8
((lp1131
tp1132
Rp1133
sL1103L
g8
((lp1134
tp1135
Rp1136
sL1104L
g8
((lp1137
tp1138
Rp1139
sL1105L
g8
((lp1140
tp1141
Rp1142
sL1106L
g8
((lp1143
L740L
aL1006L
atp1144
Rp1145
sL1107L
g8
((lp1146
L1530L
aL931L
atp1147
Rp1148
sL1108L
g8
((lp1149
L895L
atp1150
Rp1151
sL1109L
g8
((lp1152
L1053L
atp1153
Rp1154
sL1110L
g8
((lp1155
L986L
aL1422L
atp1156
Rp1157
sL1111L
g8
((lp1158
tp1159
Rp1160
sL1112L
g8
((lp1161
tp1162
Rp1163
sL1113L
g8
((lp1164
tp1165
Rp1166
sL1114L
g8
((lp1167
tp1168
Rp1169
sL1115L
g8
((lp1170
L1250L
atp1171
Rp1172
sL1116L
g8
((lp1173
L1282L
atp1174
Rp1175
sL1117L
g8
((lp1176
tp1177
Rp1178
sL1118L
g8
((lp1179
tp1180
Rp1181
sL1119L
g8
((lp1182
L1435L
aL924L
atp1183
Rp1184
sL1120L
g8
((lp1185
tp1186
Rp1187
sL1121L
g8
((lp1188
L761L
atp1189
Rp1190
sL1122L
g8
((lp1191
tp1192
Rp1193
sL1123L
g8
((lp1194
L1124L
atp1195
Rp1196
sL1124L
g8
((lp1197
L1403L
aL1123L
aL831L
atp1198
Rp1199
sL1125L
g8
((lp1200
tp1201
Rp1202
sL1126L
g8
((lp1203
tp1204
Rp1205
sL1127L
g8
((lp1206
tp1207
Rp1208
sL1128L
g8
((lp1209
tp1210
Rp1211
sL1129L
g8
((lp1212
tp1213
Rp1214
sL1130L
g8
((lp1215
tp1216
Rp1217
sL1131L
g8
((lp1218
tp1219
Rp1220
sL1132L
g8
((lp1221
L970L
aL717L
atp1222
Rp1223
sL1133L
g8
((lp1224
L1321L
aL1327L
aL1543L
atp1225
Rp1226
sL1134L
g8
((lp1227
L1553L
aL882L
aL1030L
aL991L
atp1228
Rp1229
sL1135L
g8
((lp1230
tp1231
Rp1232
sL1136L
g8
((lp1233
tp1234
Rp1235
sL1137L
g8
((lp1236
L1137L
atp1237
Rp1238
sL1138L
g8
((lp1239
L1269L
atp1240
Rp1241
sL1139L
g8
((lp1242
L1252L
atp1243
Rp1244
sL1140L
g8
((lp1245
tp1246
Rp1247
sL1141L
g8
((lp1248
L987L
atp1249
Rp1250
sL1142L
g8
((lp1251
tp1252
Rp1253
sL1143L
g8
((lp1254
tp1255
Rp1256
sL1144L
g8
((lp1257
tp1258
Rp1259
sL1145L
g8
((lp1260
tp1261
Rp1262
sL1146L
g8
((lp1263
tp1264
Rp1265
sL1147L
g8
((lp1266
tp1267
Rp1268
sL1148L
g8
((lp1269
tp1270
Rp1271
sL1149L
g8
((lp1272
tp1273
Rp1274
sL1150L
g8
((lp1275
tp1276
Rp1277
sL1151L
g8
((lp1278
L1427L
atp1279
Rp1280
sL1152L
g8
((lp1281
tp1282
Rp1283
sL1153L
g8
((lp1284
tp1285
Rp1286
sL1155L
g8
((lp1287
tp1288
Rp1289
sL1156L
g8
((lp1290
tp1291
Rp1292
sL1157L
g8
((lp1293
tp1294
Rp1295
sL1158L
g8
((lp1296
tp1297
Rp1298
sL1159L
g8
((lp1299
L1367L
atp1300
Rp1301
sL1160L
g8
((lp1302
tp1303
Rp1304
sL1161L
g8
((lp1305
tp1306
Rp1307
sL1162L
g8
((lp1308
L1002L
aL899L
aL1239L
atp1309
Rp1310
sL1163L
g8
((lp1311
tp1312
Rp1313
sL1164L
g8
((lp1314
tp1315
Rp1316
sL1165L
g8
((lp1317
tp1318
Rp1319
sL1166L
g8
((lp1320
L1271L
atp1321
Rp1322
sL1167L
g8
((lp1323
tp1324
Rp1325
sL1168L
g8
((lp1326
L801L
aL1010L
atp1327
Rp1328
sL1169L
g8
((lp1329
L1000L
atp1330
Rp1331
sL1170L
g8
((lp1332
L915L
atp1333
Rp1334
sL1171L
g8
((lp1335
tp1336
Rp1337
sL1172L
g8
((lp1338
tp1339
Rp1340
sL1173L
g8
((lp1341
tp1342
Rp1343
sL1174L
g8
((lp1344
tp1345
Rp1346
sL1175L
g8
((lp1347
tp1348
Rp1349
sL1176L
g8
((lp1350
tp1351
Rp1352
sL1177L
g8
((lp1353
L1232L
aL912L
atp1354
Rp1355
sL1178L
g8
((lp1356
L1385L
aL1271L
aL1319L
atp1357
Rp1358
sL1179L
g8
((lp1359
L1288L
aL1406L
atp1360
Rp1361
sL1180L
g8
((lp1362
tp1363
Rp1364
sL1181L
g8
((lp1365
L794L
atp1366
Rp1367
sL1182L
g8
((lp1368
L1036L
atp1369
Rp1370
sL1183L
g8
((lp1371
L1048L
atp1372
Rp1373
sL1184L
g8
((lp1374
L1248L
aL1309L
aL935L
atp1375
Rp1376
sL1185L
g8
((lp1377
L796L
aL1239L
atp1378
Rp1379
sL1186L
g8
((lp1380
L969L
aL1187L
aL796L
aL1222L
atp1381
Rp1382
sL1187L
g8
((lp1383
L969L
aL1186L
aL1428L
aL796L
atp1384
Rp1385
sL1188L
g8
((lp1386
L1313L
aL1251L
aL933L
aL937L
aL1546L
aL746L
atp1387
Rp1388
sL1189L
g8
((lp1389
L1248L
aL925L
aL1050L
aL1349L
aL1239L
atp1390
Rp1391
sL1190L
g8
((lp1392
L1328L
aL1060L
atp1393
Rp1394
sL1191L
g8
((lp1395
L937L
aL1546L
aL1547L
aL1060L
atp1396
Rp1397
sL1192L
g8
((lp1398
L1557L
atp1399
Rp1400
sL1193L
g8
((lp1401
L1251L
aL1060L
atp1402
Rp1403
sL1194L
g8
((lp1404
L1239L
atp1405
Rp1406
sL1195L
g8
((lp1407
tp1408
Rp1409
sL1196L
g8
((lp1410
L876L
aL1053L
aL982L
atp1411
Rp1412
sL1197L
g8
((lp1413
L1264L
aL1577L
aL1578L
aL803L
aL910L
atp1414
Rp1415
sL1198L
g8
((lp1416
L1250L
aL1395L
aL1339L
aL1341L
aL1342L
aL1343L
atp1417
Rp1418
sL1199L
g8
((lp1419
L1220L
aL1577L
aL1264L
aL1493L
aL1307L
aL1342L
atp1420
Rp1421
sL1200L
g8
((lp1422
L1578L
aL1067L
aL946L
aL1267L
aL822L
aL824L
aL1085L
atp1423
Rp1424
sL1201L
g8
((lp1425
L1264L
aL1068L
aL1070L
aL1342L
aL942L
atp1426
Rp1427
sL1202L
g8
((lp1428
L1264L
aL1577L
aL1343L
aL1295L
atp1429
Rp1430
sL1203L
g8
((lp1431
L1284L
aL1366L
aL1577L
aL908L
aL910L
aL726L
aL950L
atp1432
Rp1433
sL1204L
g8
((lp1434
L1337L
aL903L
aL1271L
atp1435
Rp1436
sL1205L
g8
((lp1437
L1347L
aL1284L
aL1577L
aL1264L
aL948L
aL950L
aL1559L
aL1085L
atp1438
Rp1439
sL1206L
g8
((lp1440
L1271L
atp1441
Rp1442
sL1207L
g8
((lp1443
tp1444
Rp1445
sL1208L
g8
((lp1446
tp1447
Rp1448
sL1209L
g8
((lp1449
tp1450
Rp1451
sL1210L
g8
((lp1452
tp1453
Rp1454
sL1211L
g8
((lp1455
tp1456
Rp1457
sL1212L
g8
((lp1458
tp1459
Rp1460
sL1213L
g8
((lp1461
tp1462
Rp1463
sL1214L
g8
((lp1464
tp1465
Rp1466
sL1215L
g8
((lp1467
tp1468
Rp1469
sL1216L
g8
((lp1470
tp1471
Rp1472
sL1217L
g8
((lp1473
tp1474
Rp1475
sL1218L
g8
((lp1476
tp1477
Rp1478
sL1219L
g8
((lp1479
tp1480
Rp1481
sL1220L
g8
((lp1482
L1348L
aL1493L
aL1199L
atp1483
Rp1484
sL1221L
g8
((lp1485
tp1486
Rp1487
sL1222L
g8
((lp1488
L1186L
aL901L
aL969L
aL970L
aL907L
aL1039L
aL796L
atp1489
Rp1490
sL1223L
g8
((lp1491
L1515L
atp1492
Rp1493
sL1224L
g8
((lp1494
tp1495
Rp1496
sL1225L
g8
((lp1497
tp1498
Rp1499
sL1226L
g8
((lp1500
L1414L
aL735L
atp1501
Rp1502
sL1228L
g8
((lp1503
tp1504
Rp1505
sL1229L
g8
((lp1506
tp1507
Rp1508
sL1230L
g8
((lp1509
tp1510
Rp1511
sL1231L
g8
((lp1512
L872L
atp1513
Rp1514
sL1232L
g8
((lp1515
L1177L
atp1516
Rp1517
sL1233L
g8
((lp1518
L1398L
atp1519
Rp1520
sL1234L
g8
((lp1521
tp1522
Rp1523
sL1236L
g8
((lp1524
tp1525
Rp1526
sL1237L
g8
((lp1527
tp1528
Rp1529
sL1238L
g8
((lp1530
L1096L
aL978L
aL803L
aL910L
atp1531
Rp1532
sL1239L
g8
((lp1533
L1185L
aL1189L
aL938L
aL1053L
aL819L
aL1194L
aL1239L
aL1162L
atp1534
Rp1535
sL1240L
g8
((lp1536
tp1537
Rp1538
sL1241L
g8
((lp1539
L1399L
atp1540
Rp1541
sL1242L
g8
((lp1542
tp1543
Rp1544
sL1243L
g8
((lp1545
L1553L
atp1546
Rp1547
sL1244L
g8
((lp1548
tp1549
Rp1550
sL1245L
g8
((lp1551
tp1552
Rp1553
sL1246L
g8
((lp1554
tp1555
Rp1556
sL1247L
g8
((lp1557
tp1558
Rp1559
sL1248L
g8
((lp1560
L1184L
aL1060L
aL1189L
aL1352L
aL816L
aL1052L
atp1561
Rp1562
sL1249L
g8
((lp1563
tp1564
Rp1565
sL1250L
g8
((lp1566
L1008L
aL952L
aL1010L
aL1115L
aL1198L
atp1567
Rp1568
sL1251L
g8
((lp1569
L1193L
aL1060L
aL1188L
aL1349L
aL937L
atp1570
Rp1571
sL1252L
g8
((lp1572
L1368L
aL1139L
atp1573
Rp1574
sL1253L
g8
((lp1575
L1540L
atp1576
Rp1577
sL1254L
g8
((lp1578
tp1579
Rp1580
sL1255L
g8
((lp1581
L974L
aL895L
atp1582
Rp1583
sL1256L
g8
((lp1584
tp1585
Rp1586
sL1257L
g8
((lp1587
L1410L
atp1588
Rp1589
sL1258L
g8
((lp1590
tp1591
Rp1592
sL1259L
g8
((lp1593
tp1594
Rp1595
sL1260L
g8
((lp1596
tp1597
Rp1598
sL1261L
g8
((lp1599
L1422L
atp1600
Rp1601
sL1262L
g8
((lp1602
L1376L
aL1382L
atp1603
Rp1604
sL1263L
g8
((lp1605
tp1606
Rp1607
sL1264L
g8
((lp1608
L800L
aL1199L
aL1284L
aL1073L
aL1577L
aL1067L
aL1197L
aL1071L
aL1295L
aL1201L
aL1202L
aL1205L
aL1078L
aL952L
aL1307L
aL1308L
atp1609
Rp1610
sL1265L
g8
((lp1611
tp1612
Rp1613
sL1266L
g8
((lp1614
tp1615
Rp1616
sL1267L
g8
((lp1617
L1200L
aL1067L
atp1618
Rp1619
sL1268L
g8
((lp1620
tp1621
Rp1622
sL1269L
g8
((lp1623
L1138L
atp1624
Rp1625
sL1270L
g8
((lp1626
L1353L
aL1547L
atp1627
Rp1628
sL1271L
g8
((lp1629
L1543L
aL873L
aL903L
aL1166L
aL1008L
aL1395L
aL1204L
aL1013L
aL1206L
aL1079L
aL1178L
atp1630
Rp1631
sL1272L
g8
((lp1632
L1362L
aL1534L
atp1633
Rp1634
sL1273L
g8
((lp1635
tp1636
Rp1637
sL1274L
g8
((lp1638
L1590L
atp1639
Rp1640
sL1275L
g8
((lp1641
tp1642
Rp1643
sL1276L
g8
((lp1644
tp1645
Rp1646
sL1277L
g8
((lp1647
L1278L
atp1648
Rp1649
sL1278L
g8
((lp1650
L1277L
atp1651
Rp1652
sL1279L
g8
((lp1653
L1577L
aL1391L
aL1393L
atp1654
Rp1655
sL1280L
g8
((lp1656
L1531L
atp1657
Rp1658
sL1281L
g8
((lp1659
L1530L
atp1660
Rp1661
sL1282L
g8
((lp1662
L1096L
aL740L
aL1116L
aL1415L
atp1663
Rp1664
sL1283L
g8
((lp1665
tp1666
Rp1667
sL1284L
g8
((lp1668
L1264L
aL1577L
aL1203L
aL1205L
aL910L
atp1669
Rp1670
sL1285L
g8
((lp1671
tp1672
Rp1673
sL1286L
g8
((lp1674
L1085L
aL1591L
atp1675
Rp1676
sL1287L
g8
((lp1677
L1040L
aL808L
aL1494L
atp1678
Rp1679
sL1288L
g8
((lp1680
L1179L
aL1406L
atp1681
Rp1682
sL1289L
g8
((lp1683
tp1684
Rp1685
sL1290L
g8
((lp1686
L1422L
atp1687
Rp1688
sL1291L
g8
((lp1689
tp1690
Rp1691
sL1292L
g8
((lp1692
tp1693
Rp1694
sL1293L
g8
((lp1695
L1489L
atp1696
Rp1697
sL1294L
g8
((lp1698
tp1699
Rp1700
sL1295L
g8
((lp1701
L1264L
aL1577L
aL1202L
aL1339L
aL1308L
atp1702
Rp1703
sL1296L
g8
((lp1704
L1500L
atp1705
Rp1706
sL1297L
g8
((lp1707
tp1708
Rp1709
sL1298L
g8
((lp1710
tp1711
Rp1712
sL1299L
g8
((lp1713
L1365L
atp1714
Rp1715
sL1300L
g8
((lp1716
L1574L
atp1717
Rp1718
sL1301L
g8
((lp1719
L1088L
aL897L
aL732L
atp1720
Rp1721
sL1302L
g8
((lp1722
L1400L
aL1548L
aL757L
atp1723
Rp1724
sL1303L
g8
((lp1725
tp1726
Rp1727
sL1304L
g8
((lp1728
tp1729
Rp1730
sL1305L
g8
((lp1731
L1541L
atp1732
Rp1733
sL1306L
g8
((lp1734
tp1735
Rp1736
sL1307L
g8
((lp1737
L1264L
aL1577L
aL1308L
aL1199L
atp1738
Rp1739
sL1308L
g8
((lp1740
L1264L
aL1577L
aL1307L
aL1295L
atp1741
Rp1742
sL1309L
g8
((lp1743
L1352L
aL1184L
aL1349L
atp1744
Rp1745
sL1310L
g8
((lp1746
tp1747
Rp1748
sL1311L
g8
((lp1749
L1516L
atp1750
Rp1751
sL1312L
g8
((lp1752
tp1753
Rp1754
sL1313L
g8
((lp1755
L1347L
aL1188L
aL1349L
aL1350L
aL1352L
aL1547L
aL1550L
aL1052L
aL933L
atp1756
Rp1757
sL1315L
g8
((lp1758
tp1759
Rp1760
sL1316L
g8
((lp1761
L1577L
atp1762
Rp1763
sL1317L
g8
((lp1764
L891L
aL993L
aL1411L
atp1765
Rp1766
sL1318L
g8
((lp1767
tp1768
Rp1769
sL1319L
g8
((lp1770
L1178L
aL1390L
atp1771
Rp1772
sL1320L
g8
((lp1773
L1323L
atp1774
Rp1775
sL1321L
g8
((lp1776
L808L
aL1010L
aL906L
aL1573L
aL1133L
atp1777
Rp1778
sL1322L
g8
((lp1779
tp1780
Rp1781
sL1323L
g8
((lp1782
L1320L
atp1783
Rp1784
sL1324L
g8
((lp1785
tp1786
Rp1787
sL1325L
g8
((lp1788
L1096L
atp1789
Rp1790
sL1326L
g8
((lp1791
L1095L
atp1792
Rp1793
sL1327L
g8
((lp1794
L1008L
aL906L
aL797L
aL1133L
aL1543L
atp1795
Rp1796
sL1328L
g8
((lp1797
L1190L
atp1798
Rp1799
sL1329L
g8
((lp1800
tp1801
Rp1802
sL1330L
g8
((lp1803
tp1804
Rp1805
sL1331L
g8
((lp1806
tp1807
Rp1808
sL1332L
g8
((lp1809
L1367L
atp1810
Rp1811
sL1333L
g8
((lp1812
tp1813
Rp1814
sL1334L
g8
((lp1815
tp1816
Rp1817
sL1335L
g8
((lp1818
tp1819
Rp1820
sL1336L
g8
((lp1821
tp1822
Rp1823
sL1337L
g8
((lp1824
L1204L
atp1825
Rp1826
sL1338L
g8
((lp1827
tp1828
Rp1829
sL1339L
g8
((lp1830
L1577L
aL942L
aL1198L
aL1295L
atp1831
Rp1832
sL1340L
g8
((lp1833
L1530L
aL1579L
aL1580L
atp1834
Rp1835
sL1341L
g8
((lp1836
L944L
aL1010L
aL1198L
aL943L
atp1837
Rp1838
sL1342L
g8
((lp1839
L1577L
aL1067L
aL1198L
aL1071L
aL1201L
aL1078L
aL1199L
atp1840
Rp1841
sL1343L
g8
((lp1842
L1577L
aL1202L
aL1198L
aL726L
atp1843
Rp1844
sL1344L
g8
((lp1845
tp1846
Rp1847
sL1345L
g8
((lp1848
tp1849
Rp1850
sL1346L
g8
((lp1851
L999L
atp1852
Rp1853
sL1347L
g8
((lp1854
L1313L
aL1205L
atp1855
Rp1856
sL1348L
g8
((lp1857
L1074L
aL1220L
aL1493L
atp1858
Rp1859
sL1349L
g8
((lp1860
L1313L
aL1251L
aL1189L
aL1052L
aL1546L
aL1547L
aL1549L
aL1550L
aL1557L
aL1529L
aL796L
aL1309L
atp1861
Rp1862
sL1350L
g8
((lp1863
L1313L
atp1864
Rp1865
sL1351L
g8
((lp1866
tp1867
Rp1868
sL1352L
g8
((lp1869
L1248L
aL1313L
aL1309L
atp1870
Rp1871
sL1353L
g8
((lp1872
L1060L
aL933L
aL812L
aL937L
aL1547L
aL1548L
aL817L
aL1270L
aL1054L
atp1873
Rp1874
sL1354L
g8
((lp1875
tp1876
Rp1877
sL1355L
g8
((lp1878
tp1879
Rp1880
sL1356L
g8
((lp1881
tp1882
Rp1883
sL1357L
g8
((lp1884
tp1885
Rp1886
sL1358L
g8
((lp1887
L1064L
aL1589L
aL1062L
atp1888
Rp1889
sL1359L
g8
((lp1890
tp1891
Rp1892
sL1360L
g8
((lp1893
tp1894
Rp1895
sL1361L
g8
((lp1896
L1537L
aL1534L
atp1897
Rp1898
sL1362L
g8
((lp1899
L1272L
aL1534L
atp1900
Rp1901
sL1363L
g8
((lp1902
tp1903
Rp1904
sL1364L
g8
((lp1905
tp1906
Rp1907
sL1365L
g8
((lp1908
L1299L
atp1909
Rp1910
sL1366L
g8
((lp1911
L1056L
aL803L
aL1203L
aL874L
aL1548L
aL1069L
aL1041L
aL1043L
atp1912
Rp1913
sL1367L
g8
((lp1914
L1332L
aL1029L
aL1030L
aL1159L
atp1915
Rp1916
sL1368L
g8
((lp1917
L994L
aL995L
aL1252L
atp1918
Rp1919
sL1370L
g8
((lp1920
tp1921
Rp1922
sL1371L
g8
((lp1923
tp1924
Rp1925
sL1372L
g8
((lp1926
tp1927
Rp1928
sL1373L
g8
((lp1929
tp1930
Rp1931
sL1374L
g8
((lp1932
tp1933
Rp1934
sL1375L
g8
((lp1935
tp1936
Rp1937
sL1376L
g8
((lp1938
L1262L
atp1939
Rp1940
sL1377L
g8
((lp1941
L1515L
atp1942
Rp1943
sL1378L
g8
((lp1944
tp1945
Rp1946
sL1380L
g8
((lp1947
tp1948
Rp1949
sL1381L
g8
((lp1950
L1524L
aL1549L
atp1951
Rp1952
sL1382L
g8
((lp1953
L1262L
atp1954
Rp1955
sL1383L
g8
((lp1956
tp1957
Rp1958
sL1384L
g8
((lp1959
L808L
atp1960
Rp1961
sL1385L
g8
((lp1962
L1178L
atp1963
Rp1964
sL1386L
g8
((lp1965
L1581L
atp1966
Rp1967
sL1387L
g8
((lp1968
tp1969
Rp1970
sL1388L
g8
((lp1971
tp1972
Rp1973
sL1389L
g8
((lp1974
tp1975
Rp1976
sL1390L
g8
((lp1977
L1068L
aL1319L
atp1978
Rp1979
sL1391L
g8
((lp1980
L1393L
aL1010L
aL1279L
atp1981
Rp1982
sL1392L
g8
((lp1983
L801L
atp1984
Rp1985
sL1393L
g8
((lp1986
L906L
aL1279L
aL726L
aL1391L
atp1987
Rp1988
sL1394L
g8
((lp1989
tp1990
Rp1991
sL1395L
g8
((lp1992
L952L
aL873L
aL1271L
aL1198L
aL1543L
atp1993
Rp1994
sL1396L
g8
((lp1995
tp1996
Rp1997
sL1397L
g8
((lp1998
L1500L
atp1999
Rp2000
sL1398L
g8
((lp2001
L1233L
atp2002
Rp2003
sL1399L
g8
((lp2004
L1096L
aL1241L
atp2005
Rp2006
sL1400L
g8
((lp2007
L1548L
aL1302L
atp2008
Rp2009
sL1401L
g8
((lp2010
tp2011
Rp2012
sL1402L
g8
((lp2013
tp2014
Rp2015
sL1403L
g8
((lp2016
L1600L
aL1124L
atp2017
Rp2018
sL1404L
g8
((lp2019
tp2020
Rp2021
sL1405L
g8
((lp2022
tp2023
Rp2024
sL1406L
g8
((lp2025
L1288L
aL1179L
atp2026
Rp2027
sL1407L
g8
((lp2028
L1601L
atp2029
Rp2030
sL1408L
g8
((lp2031
L1598L
atp2032
Rp2033
sL1409L
g8
((lp2034
tp2035
Rp2036
sL1410L
g8
((lp2037
L1257L
atp2038
Rp2039
sL1411L
g8
((lp2040
L1525L
aL1317L
atp2041
Rp2042
sL1412L
g8
((lp2043
tp2044
Rp2045
sL1413L
g8
((lp2046
tp2047
Rp2048
sL1414L
g8
((lp2049
L737L
aL1226L
aL980L
atp2050
Rp2051
sL1415L
g8
((lp2052
L1096L
aL1282L
aL740L
atp2053
Rp2054
sL1416L
g8
((lp2055
L1059L
aL731L
atp2056
Rp2057
sL1417L
g8
((lp2058
tp2059
Rp2060
sL1418L
g8
((lp2061
L763L
aL813L
aL927L
atp2062
Rp2063
sL1419L
g8
((lp2064
L735L
atp2065
Rp2066
sL1420L
g8
((lp2067
tp2068
Rp2069
sL1421L
g8
((lp2070
tp2071
Rp2072
sL1422L
g8
((lp2073
L986L
aL1290L
aL1261L
aL1110L
atp2074
Rp2075
sL1423L
g8
((lp2076
tp2077
Rp2078
sL1424L
g8
((lp2079
tp2080
Rp2081
sL1425L
g8
((lp2082
tp2083
Rp2084
sL1426L
g8
((lp2085
tp2086
Rp2087
sL1427L
g8
((lp2088
L1151L
atp2089
Rp2090
sL1428L
g8
((lp2091
L969L
aL1187L
atp2092
Rp2093
sL1429L
g8
((lp2094
tp2095
Rp2096
sL1430L
g8
((lp2097
tp2098
Rp2099
sL1431L
g8
((lp2100
tp2101
Rp2102
sL1432L
g8
((lp2103
tp2104
Rp2105
sL1433L
g8
((lp2106
tp2107
Rp2108
sL1434L
g8
((lp2109
tp2110
Rp2111
sL1435L
g8
((lp2112
L924L
aL1119L
atp2113
Rp2114
sL1436L
g8
((lp2115
tp2116
Rp2117
sL1437L
g8
((lp2118
tp2119
Rp2120
sL1438L
g8
((lp2121
tp2122
Rp2123
sL1439L
g8
((lp2124
tp2125
Rp2126
sL1441L
g8
((lp2127
tp2128
Rp2129
sL1442L
g8
((lp2130
tp2131
Rp2132
sL1443L
g8
((lp2133
tp2134
Rp2135
sL1444L
g8
((lp2136
tp2137
Rp2138
sL1445L
g8
((lp2139
tp2140
Rp2141
sL1446L
g8
((lp2142
L1449L
atp2143
Rp2144
sL1447L
g8
((lp2145
tp2146
Rp2147
sL1448L
g8
((lp2148
tp2149
Rp2150
sL1449L
g8
((lp2151
L1446L
atp2152
Rp2153
sL1450L
g8
((lp2154
tp2155
Rp2156
sL1451L
g8
((lp2157
tp2158
Rp2159
sL1452L
g8
((lp2160
tp2161
Rp2162
sL1453L
g8
((lp2163
tp2164
Rp2165
sL1454L
g8
((lp2166
tp2167
Rp2168
sL1455L
g8
((lp2169
tp2170
Rp2171
sL1456L
g8
((lp2172
tp2173
Rp2174
sL1457L
g8
((lp2175
tp2176
Rp2177
sL1458L
g8
((lp2178
tp2179
Rp2180
sL1459L
g8
((lp2181
tp2182
Rp2183
sL1460L
g8
((lp2184
tp2185
Rp2186
sL1461L
g8
((lp2187
tp2188
Rp2189
sL1462L
g8
((lp2190
tp2191
Rp2192
sL1463L
g8
((lp2193
tp2194
Rp2195
sL1464L
g8
((lp2196
tp2197
Rp2198
sL1465L
g8
((lp2199
tp2200
Rp2201
sL1466L
g8
((lp2202
tp2203
Rp2204
sL1467L
g8
((lp2205
tp2206
Rp2207
sL1468L
g8
((lp2208
tp2209
Rp2210
sL1469L
g8
((lp2211
tp2212
Rp2213
sL1470L
g8
((lp2214
tp2215
Rp2216
sL1471L
g8
((lp2217
tp2218
Rp2219
sL1472L
g8
((lp2220
tp2221
Rp2222
sL1473L
g8
((lp2223
tp2224
Rp2225
sL1474L
g8
((lp2226
tp2227
Rp2228
sL1475L
g8
((lp2229
tp2230
Rp2231
sL1476L
g8
((lp2232
tp2233
Rp2234
sL1477L
g8
((lp2235
tp2236
Rp2237
sL1478L
g8
((lp2238
tp2239
Rp2240
sL1479L
g8
((lp2241
tp2242
Rp2243
sL1480L
g8
((lp2244
tp2245
Rp2246
sL1481L
g8
((lp2247
tp2248
Rp2249
sL1482L
g8
((lp2250
tp2251
Rp2252
sL1483L
g8
((lp2253
tp2254
Rp2255
sL1484L
g8
((lp2256
tp2257
Rp2258
sL1486L
g8
((lp2259
tp2260
Rp2261
sL1488L
g8
((lp2262
tp2263
Rp2264
sL1489L
g8
((lp2265
L1293L
atp2266
Rp2267
sL1490L
g8
((lp2268
tp2269
Rp2270
sL1491L
g8
((lp2271
tp2272
Rp2273
sL1492L
g8
((lp2274
tp2275
Rp2276
sL1493L
g8
((lp2277
L1348L
aL1220L
aL1199L
atp2278
Rp2279
sL1494L
g8
((lp2280
L1287L
atp2281
Rp2282
sL1495L
g8
((lp2283
tp2284
Rp2285
sL1496L
g8
((lp2286
tp2287
Rp2288
sL1497L
g8
((lp2289
tp2290
Rp2291
sL1498L
g8
((lp2292
tp2293
Rp2294
sL1499L
g8
((lp2295
tp2296
Rp2297
sL1500L
g8
((lp2298
L1296L
aL1397L
atp2299
Rp2300
sL1501L
g8
((lp2301
tp2302
Rp2303
sL1502L
g8
((lp2304
tp2305
Rp2306
sL1503L
g8
((lp2307
L864L
atp2308
Rp2309
sL1504L
g8
((lp2310
tp2311
Rp2312
sL1505L
g8
((lp2313
tp2314
Rp2315
sL1506L
g8
((lp2316
tp2317
Rp2318
sL1507L
g8
((lp2319
tp2320
Rp2321
sL1508L
g8
((lp2322
tp2323
Rp2324
sL1509L
g8
((lp2325
tp2326
Rp2327
sL1510L
g8
((lp2328
tp2329
Rp2330
sL1511L
g8
((lp2331
tp2332
Rp2333
sL1512L
g8
((lp2334
tp2335
Rp2336
sL1513L
g8
((lp2337
tp2338
Rp2339
sL1515L
g8
((lp2340
L1377L
aL1025L
aL1223L
atp2341
Rp2342
sL1516L
g8
((lp2343
L879L
aL831L
aL1311L
atp2344
Rp2345
sL1517L
g8
((lp2346
tp2347
Rp2348
sL1518L
g8
((lp2349
L1603L
atp2350
Rp2351
sL1519L
g8
((lp2352
tp2353
Rp2354
sL1520L
g8
((lp2355
tp2356
Rp2357
sL1521L
g8
((lp2358
tp2359
Rp2360
sL1522L
g8
((lp2361
tp2362
Rp2363
sL1523L
g8
((lp2364
tp2365
Rp2366
sL1524L
g8
((lp2367
L1381L
atp2368
Rp2369
sL1525L
g8
((lp2370
L1411L
atp2371
Rp2372
sL1526L
g8
((lp2373
tp2374
Rp2375
sL1527L
g8
((lp2376
L1604L
atp2377
Rp2378
sL1528L
g8
((lp2379
tp2380
Rp2381
sL1529L
g8
((lp2382
L1349L
atp2383
Rp2384
sL1530L
g8
((lp2385
L1281L
aL1107L
aL931L
aL1340L
aL740L
atp2386
Rp2387
sL1531L
g8
((lp2388
L1280L
atp2389
Rp2390
sL1532L
g8
((lp2391
L856L
aL754L
aL895L
atp2392
Rp2393
sL1533L
g8
((lp2394
tp2395
Rp2396
sL1534L
g8
((lp2397
L1272L
aL1361L
aL1362L
aL1534L
atp2398
Rp2399
sL1535L
g8
((lp2400
tp2401
Rp2402
sL1536L
g8
((lp2403
tp2404
Rp2405
sL1537L
g8
((lp2406
L808L
aL1361L
atp2407
Rp2408
sL1538L
g8
((lp2409
tp2410
Rp2411
sL1539L
g8
((lp2412
tp2413
Rp2414
sL1540L
g8
((lp2415
L1253L
atp2416
Rp2417
sL1541L
g8
((lp2418
L1305L
aL788L
atp2419
Rp2420
sL1542L
g8
((lp2421
L1010L
aL902L
aL1007L
atp2422
Rp2423
sL1543L
g8
((lp2424
L902L
aL903L
aL873L
aL906L
aL1133L
aL1327L
aL1008L
aL1395L
aL1271L
atp2425
Rp2426
sL1544L
g8
((lp2427
tp2428
Rp2429
sL1545L
g8
((lp2430
tp2431
Rp2432
sL1546L
g8
((lp2433
L1188L
aL1349L
aL1191L
aL796L
aL1052L
aL1054L
aL933L
atp2434
Rp2435
sL1547L
g8
((lp2436
L1313L
aL1270L
aL1349L
aL1191L
aL1353L
aL816L
aL1046L
aL1048L
aL1052L
aL1054L
aL933L
atp2437
Rp2438
sL1548L
g8
((lp2439
L1400L
aL1353L
aL1054L
aL1302L
aL1366L
atp2440
Rp2441
sL1549L
g8
((lp2442
L1349L
aL1381L
atp2443
Rp2444
sL1550L
g8
((lp2445
L1313L
aL1054L
aL1349L
aL974L
atp2446
Rp2447
sL1551L
g8
((lp2448
tp2449
Rp2450
sL1552L
g8
((lp2451
tp2452
Rp2453
sL1553L
g8
((lp2454
L1024L
aL882L
aL1243L
aL1134L
atp2455
Rp2456
sL1554L
g8
((lp2457
tp2458
Rp2459
sL1555L
g8
((lp2460
tp2461
Rp2462
sL1556L
g8
((lp2463
tp2464
Rp2465
sL1557L
g8
((lp2466
L1060L
aL1349L
aL935L
aL1192L
aL796L
aL746L
aL1052L
aL1053L
aL1054L
aL933L
atp2467
Rp2468
sL1558L
g8
((lp2469
tp2470
Rp2471
sL1559L
g8
((lp2472
L1205L
atp2473
Rp2474
sL1560L
g8
((lp2475
tp2476
Rp2477
sL1561L
g8
((lp2478
tp2479
Rp2480
sL1562L
g8
((lp2481
tp2482
Rp2483
sL1563L
g8
((lp2484
tp2485
Rp2486
sL1564L
g8
((lp2487
tp2488
Rp2489
sL1565L
g8
((lp2490
tp2491
Rp2492
sL1566L
g8
((lp2493
tp2494
Rp2495
sL1567L
g8
((lp2496
tp2497
Rp2498
sL1568L
g8
((lp2499
tp2500
Rp2501
sL1569L
g8
((lp2502
tp2503
Rp2504
sL1570L
g8
((lp2505
tp2506
Rp2507
sL1571L
g8
((lp2508
tp2509
Rp2510
sL1572L
g8
((lp2511
tp2512
Rp2513
sL1573L
g8
((lp2514
L1321L
atp2515
Rp2516
sL1574L
g8
((lp2517
L1300L
atp2518
Rp2519
sL1575L
g8
((lp2520
tp2521
Rp2522
sL1576L
g8
((lp2523
tp2524
Rp2525
sL1577L
g8
((lp2526
L1284L
aL908L
aL1295L
aL1199L
aL1308L
aL1307L
aL1316L
aL808L
aL1067L
aL1197L
aL1071L
aL1073L
aL1202L
aL1203L
aL1205L
aL1078L
aL952L
aL953L
aL1339L
aL1342L
aL1343L
aL738L
aL1264L
aL1279L
atp2527
Rp2528
sL1578L
g8
((lp2529
L1200L
aL1197L
atp2530
Rp2531
sL1579L
g8
((lp2532
L1340L
atp2533
Rp2534
sL1580L
g8
((lp2535
L1010L
aL1340L
atp2536
Rp2537
sL1581L
g8
((lp2538
L1386L
atp2539
Rp2540
sL1583L
g8
((lp2541
tp2542
Rp2543
sL1584L
g8
((lp2544
L788L
atp2545
Rp2546
sL1585L
g8
((lp2547
tp2548
Rp2549
sL1587L
g8
((lp2550
tp2551
Rp2552
sL1588L
g8
((lp2553
tp2554
Rp2555
sL1589L
g8
((lp2556
L1064L
aL1358L
atp2557
Rp2558
sL1590L
g8
((lp2559
L1274L
atp2560
Rp2561
sL1591L
g8
((lp2562
L1286L
atp2563
Rp2564
sL1592L
g8
((lp2565
L1013L
atp2566
Rp2567
sL1593L
g8
((lp2568
tp2569
Rp2570
sL1594L
g8
((lp2571
tp2572
Rp2573
sL1595L
g8
((lp2574
tp2575
Rp2576
sL1596L
g8
((lp2577
tp2578
Rp2579
sL1597L
g8
((lp2580
tp2581
Rp2582
sL1598L
g8
((lp2583
L1408L
atp2584
Rp2585
sL1599L
g8
((lp2586
L871L
atp2587
Rp2588
sL1600L
g8
((lp2589
L1403L
aL871L
atp2590
Rp2591
sL1601L
g8
((lp2592
L1407L
aL871L
atp2593
Rp2594
sL1602L
g8
((lp2595
tp2596
Rp2597
sL1603L
g8
((lp2598
L1518L
atp2599
Rp2600
sL1604L
g8
((lp2601
L1527L
atp2602
Rp2603
ssS'names'
p2604
(dp2605
L715L
S'Automatically Generating Form Concepts According to Consumer Preference: A Shape Grammar Implementation With Software Agents'
p2606
sL716L
S'Evolutive Design of Car Silhouettes'
p2607
sL717L
S'Generative Design and CNC Fabrication Using Shape Grammars'
p2608
sL718L
S'Pultrusion Process Analysis Using Knowledge-Based System'
p2609
sL719L
S'Causal Design Knowledge Acquisition by Constructing BBN Through FCM'
p2610
sL720L
S'Rough Set-Based Design Rule Selection for Collaborative Assembly Design'
p2611
sL721L
S'Agent Based Variation Propagation for Collaborative Top-Down Assembly Design'
p2612
sL722L
S'Integrating Assembly Design, Sequence Optimization, and Advanced Path Planning'
p2613
sL723L
S'Assembly and Variety Considerations During Conceptual Design'
p2614
sL724L
S'A Review of Recent Phase Transition Simulation Methods: Transition Path Search'
p2615
sL725L
S'A Review of Recent Phase Transition Simulation Methods: Saddle Point Search'
p2616
sL726L
S'A Multiscale Design Approach With Random Field Representation of Material Uncertainty'
p2617
sL727L
S'Feature-Based Crystal Construction in Computer-Aided Nano-Design'
p2618
sL728L
S'An Approach to Automate Concept Generation of Sheet Metal Parts Based on Manufacturing Operations'
p2619
sL729L
S'Energy Characteristic State Model for Automated Conceptual Design of Hydraulic System'
p2620
sL730L
S'A Growth Design Approach for Tolerancing'
p2621
sL731L
S'Port-Based Ontology Modeling for Product Conceptual Design'
p2622
sL732L
S'Customizing Products Using Functional Component Matrices'
p2623
sL733L
S'Exploiting the Features of ISO GPS Standards to Enhance a Knowledge-Based Method for Product Redesign and Process Reconfiguration'
p2624
sL734L
S'Lagrangian Relaxation for Decentralized Decision Making in Engineering Design'
p2625
sL735L
S'Design Achievement Model for Planning Creative and Concurrent Design Process'
p2626
sL736L
S'Product Realization in the Age of Mass Collaboration'
p2627
sL737L
S'A Proposed Taxonomy for Physical Prototypes: Structure and Validation'
p2628
sL738L
S'An Effective Random Field Characterization for Probability Analysis and Design'
p2629
sL739L
S'Bayesian Reliability Analysis With Evolving, Insufficient, and Subjective Data Sets'
p2630
sL740L
S'Planning on Mistakes: An Approach to Incorporate Error Checking Into the Design Process'
p2631
sL741L
S'Development of a Probabilistic Model for Mechanistic Evaluation of Reliability of Oil Pipelines Subject to Corrosion-Fatigue Cracking'
p2632
sL743L
S'Relating Two Domains via a Third: An Approach to Overcome Ambiguous Attributions Using Multiple Domain Matrices'
p2633
sL744L
S'A Unified Framework for Decomposition of Design Structure Matrix and Domain Mapping Matrix'
p2634
sL745L
S'Towards Rules for Functional Composition'
p2635
sL746L
S'A Deterministic Lagrangian-Based Global Optimization Approach for Large Scale Decomposable Problems'
p2636
sL747L
S'A Structure-Based Approach to Measuring Adaptability of Product Design'
p2637
sL748L
S'Transformation Facilitators: A Quantitative Analysis of Reconfigurable Products and Their Characteristics'
p2638
sL749L
S'Towards Adaptable Architecture'
p2639
sL750L
S'Should Designers Worry About Market Systems?'
p2640
sL751L
S'A Pareto Approach to Aligning Public and Private Objectives in Vehicle Design'
p2641
sL752L
S'Optimal Product Design Under Price Competition'
p2642
sL753L
S'Multi-Category Design of Bundled Products for Retail Channels Considering Demand Uncertainty and Competition'
p2643
sL754L
S'Optimal Experimental Design of Human Appraisals for Modeling Consumer Preferences in Engineering Design'
p2644
sL756L
S"Elicitation and Modeling of Customers' Preferences in Industrial Design: A Comparative Study on Vehicle Front End"
p2645
sL757L
S'Choice Model Specification in Market-Based Engineering Design'
p2646
sL758L
S'Establishing Correspondence Between Value Functions Used in Market-Based Engineering Design'
p2647
sL759L
S'Fuzzy Controlled Hooke-Jeeves Optimization Search Algorithm'
p2648
sL760L
S'Evolutionary Multi-Agent Systems: An Adaptive Approach to Optimization in Dynamic Environments'
p2649
sL761L
S'Incorporating Twinkling in Genetic Algorithms for Global Optimization'
p2650
sL762L
S'Evaluating the Performance of Visual Steering Commands for User-Guided Pareto Frontier Sampling During Trade Space Exploration'
p2651
sL763L
S'Improving the Performance of Visual Steering Commands for Multi-Dimensional Trade Space Exploration'
p2652
sL764L
S'Finite Element Model Updating Approach to Damage Identification in Beams Using Particle Swarm Optimization'
p2653
sL765L
S'Enhanced Multi-Agent Normal Sampling Technique for Global Optimization'
p2654
sL766L
S'A Fast and Efficient Compact Packing Algorithm for Free-Form Objects'
p2655
sL767L
S'Analytical Robust Design of Mechanical Systems'
p2656
sL768L
S'Modeling Variability in Torso Shape for Chair and Seat Design'
p2657
sL769L
S'A General Approach to Robustness Assessment for Multidisciplinary Systems'
p2658
sL770L
S'Predicting 5th and 95th Percentile Anthropometric Segment Lengths From Population Stature'
p2659
sL771L
S'An Integrated Process Planning System Architecture for Machining and On-Machine Inspection'
p2660
sL772L
S'Direct 3D Layer Metal Deposition and Toolpath Generation'
p2661
sL773L
S'A Method and Software Prototype to Support On-Line Planning on CNC Machines'
p2662
sL774L
S'Locating Precision of Fit Datums'
p2663
sL775L
S'Identifying Feature Handles of Freeform Shapes'
p2664
sL777L
S'Contact Analysis Between a Moving Solid and the Boundary of Its Swept Volume'
p2665
sL779L
S'A Hybrid Models Deformation Tool for Free-Form Shapes Manipulation'
p2666
sL780L
S'Interval Extensions of Signed Distance Functions: Uniform Samplings and the Range of Associated Implicit Objects'
p2667
sL781L
S'Shape Optimization of a Camoid Follower Surface'
p2668
sL782L
S'Euclidean Symmetry Detection From Scanned Meshes Based on a Combination of ICP and Region Growing Algorithms'
p2669
sL784L
S'A Measure of the Information Loss for Inspection Point Reduction'
p2670
sL785L
S'A Comparison of Virtual Condition Cylinder Evaluation Methods in Coordinate Metrology'
p2671
sL786L
S'A Subdivision Scheme for Discrete Motion Generation and Swept Volume Analysis'
p2672
sL787L
S'Novel Design of a 3-DOF Parallel Manipulator for Materials Handling'
p2673
sL788L
S'Benefit Evaluation for Manufacturing of Marine Propellers'
p2674
sL789L
S'An Industrial Trial of a Set-Based Approach to Collaborative Design'
p2675
sL790L
S'A Finite Element Approach for the Implementation of Magnetostrictive Material Terfenol-D in CNG Fuel Injection Actuation'
p2676
sL791L
S'Parametric Modeling and Optimization of Chemical Vapor Deposition Process'
p2677
sL792L
S'Optimization Design of a Spatial Six-Degree-of-Freedom Parallel Manipulator Based on Genetic Algorithms and Neural Networks'
p2678
sL793L
S'Optimal Kinematics Design of an Industrial Robot Family'
p2679
sL794L
S'Topology and Dimensional Synthesis of Linkage Mechanism Based on the Constrained Superposition Method'
p2680
sL795L
S'Genetic Programming of an Artificial Neural Network for Robust Control of a 2-D Path Following Robot'
p2681
sL796L
S'Decision Support for Strategic Redesign'
p2682
sL797L
S'Designing Embodiment Design Processes Using a Value-of-Information-Based Approach With Applications for Integrated Product and Materials Design'
p2683
sL798L
S'Knowledge Management for Fault Tree Analysis Based on Quantity Dimension Indexing'
p2684
sL799L
S'Using Multiple Surrogates for Minimization of the RMS Error in Meta-Modeling'
p2685
sL800L
S'Optimization of Engine Torque Management Under Uncertainty for Vehicle Driveline Clunk Using Time-Dependent Metamodels'
p2686
sL801L
S'A Practical Robust and Efficient RBF Metamodel Method for Typical Engineering Problems'
p2687
sL802L
S'A Study of Covariance Functions for Multi-Response Metamodeling for Simulation-Based Design and Optimization'
p2688
sL803L
S'A Sequential Linearization Technique for Analytical Target Cascading'
p2689
sL804L
S'Parallel Implementation of Particle Swarm Optimization (PSO) Through Digital Pheromone Sharing'
p2690
sL805L
S'Consistency Constraint Allocation in Augmented Lagrangian Coordination'
p2691
sL806L
S'Enhanced Collaborative Optimization: A Decomposition-Based Method for Multidisciplinary Design'
p2692
sL807L
S'Multiobjective Optimization Method for Lifecycle Design of Machine Products'
p2693
sL808L
S'Fundamental Strategies for System Optimization of Machine Product Designs'
p2694
sL809L
S'Multi-Objective Optimization of Product Configuration'
p2695
sL810L
S'Plug-In Hybrid Vehicle Simulation: How Battery Weight and Charging Patterns Impact Cost, Fuel Consumption, and CO2 Emissions'
p2696
sL811L
S'Heat Compensation in Buildings Using Thermoelectric Windows: An Energy Efficient Window Technology'
p2697
sL812L
S'The Application of Product Platform Design to the Reuse of Electronic Components Subject to Long-Term Supply Chain Disruptions'
p2698
sL813L
S'Product Family Commonality Selection Through Interactive Visualization'
p2699
sL814L
S'Assessing Functional and Shape Differentiation Within a Family of Products'
p2700
sL815L
S'Product Family Design: Strategic Principles to Choose Between Product-Driven and Platform-Driven Processes'
p2701
sL816L
S'Improving Cost Effectiveness in an Existing Product Line Using Component Product Platforms'
p2702
sL817L
S'Focused Product Family Improvement'
p2703
sL818L
S'A Strategic Module-Based Platform Design Method for Developing Customized Products in Dynamic and Uncertain Market Environments'
p2704
sL819L
S'Functional Part Families and Design Change for Mechanical Assemblies'
p2705
sL820L
S'Optimal Design of Product Family Throughout Commonalization, Customization and Lineup Arrangement'
p2706
sL821L
S'An Efficient Re-Analysis Methodology for Probabilistic Vibration of Large-Scale Structures'
p2707
sL822L
S'Uncertainty Analysis of Damage Evolution Computed Through Microstructure-Property Relations'
p2708
sL823L
S'Reliability-Based Shape Optimization of a Pressure Tank Under Random and Stochastic Environments'
p2709
sL824L
S'Sensitivity Analyses of FORM-Based and DRM-Based Performance Measure Approach for Reliability-Based Design Optimization'
p2710
sL825L
S'Selection of Copula to Generate Input Joint CDF for RBDO'
p2711
sL826L
S'Topology Optimization for Steady-State Heat Transfer Problems Including Design-Dependent Effects'
p2712
sL828L
S'Topology Optimization of Multiple Parts in Dynamic Controlled Systems'
p2713
sL829L
S'An Improved Initial Population Strategy for Compliant Mechanism Designs Using Evolutionary Optimization'
p2714
sL830L
S'On Pattern Recognition in Rule-Based Topology Modification'
p2715
sL831L
S'Topology Optimization of a MEMS Resonator Using Hybrid Fuzzy Techniques'
p2716
sL832L
S'Topology Optimization of Poroelastic Structures to Minimize Mean Sound Pressure Levels'
p2717
sL833L
S'Design of Compliant Thermal Actuators Using Structural Optimization Based on the Level Set Method'
p2718
sL834L
S'Design Automation Tools as a Support for Knowledge Management in Topology Optimization'
p2719
sL836L
S'Topology Synthesis of Multi-Component Structural Assemblies in Continuum Domains'
p2720
sL837L
S'Layer Separation for Optimization of Composite Laminates'
p2721
sL838L
S'Model Validation and Error Modeling to Support Sequential Sampling'
p2722
sL839L
S'Regression Modeling for Computer Model Validation With Functional Responses'
p2723
sL840L
S'A Comprehensive Metric for Comparing Time Histories in Validation of Simulation Models With Emphasis on Vehicle Safety Applications'
p2724
sL841L
S'Overlapped Grouping Genetic Algorithm for Optimization of Reels Cutting Planning Problems'
p2725
sL842L
S'A Perspective of Hierarchical Layout Design Optimization for Highly Packaged Equipments'
p2726
sL843L
S'A Genetic Algorithm Based Procedure for Extracting Optimal Solutions From a Morphological Chart'
p2727
sL845L
S'A Variable Fidelity Model Management Framework for Multiscale Computational Design of Continuous Fiber SiC-Si3N4 Ceramic Composites'
p2728
sL846L
S'Topology Optimization for Synthesizing Extrusion Based Nonlinear Transient Designs'
p2729
sL847L
S'An Intelligent and Efficient Tree Search Algorithm for Computer-Aided Component Selection'
p2730
sL848L
S'A Graph Grammar Approach to Generate Neural Network Topologies'
p2731
sL849L
S'A Learning Algorithm for Optimal Internal Combustion Engine Calibration in Real Time'
p2732
sL850L
S'A Simplified Systematic Method of Acquiring Design Specifications From Customer Requirements'
p2733
sL851L
S'Towards a Reference Ontology for Functional Knowledge Interoperability'
p2734
sL852L
S'Fuzzy Analytical Hierarchy Process-Based Assembly Unit Partition for Complex Products'
p2735
sL853L
S'PDM Implementation in Indian Industries: An Impact Study on Technology Adoption'
p2736
sL854L
S'A Framework for Collaborative Top-Down Assembly Design'
p2737
sL855L
S'A Design Strategy for Collaborative Decision Making in a Distributed Environment'
p2738
sL856L
S'An Approach to Improved Decentralized Design: The Modified Approximation-Based Decentralized Design (MADD) Framework'
p2739
sL857L
S'Design Optimization of a Laptop Computer Using Aggregate and Mixed Logit Demand Models With Consumer Survey Data'
p2740
sL858L
S'A Game-Theoretic Approach to Finding Market Equilibria for Automotive Design Under Environmental Regulation'
p2741
sL859L
S'Measurement of Headlight Form Preference Using a Choice Based Conjoint Analysis'
p2742
sL860L
S'Conjoint-HoQ: A Quantitative Methodology for Consumer-Driven Design'
p2743
sL861L
S'Preference Inconsistency in Multidisciplinary Design Decision Making'
p2744
sL862L
S'Theoretical Design and Control Analysis of Reconfigurable Parallel Kinematic Machine Tools'
p2745
sL863L
S'Design for Product Adaptability'
p2746
sL864L
S'Flexible and Reconfigurable Systems: Nomenclature and Review'
p2747
sL865L
S'Adaptive Complex Method for Efficient Design Optimization'
p2748
sL866L
S'Approximated Unimodal Region Elimination Based Global Optimization Method for Engineering Design'
p2749
sL867L
S'Bayesian Analysis of Adaptive One-Factor-at-a-Time Experimentation'
p2750
sL868L
S'Multi Agent Normal Sampling Technique (MANST) for Global Optimization'
p2751
sL869L
S'Non-Dominated Sorting Genetic Quantum Algorithm for Multi-Objective Optimization'
p2752
sL870L
S'Optimization of a Vehicle Space Frame Under Ballistic Impact Loading'
p2753
sL871L
S'Optimization of Bicycle Frames Using Genetic Algorithms'
p2754
sL872L
S'Generalization of Topological Sensitivity and Its Application to Defeaturing'
p2755
sL873L
S'A Hybrid Method for Surrogate Model Updating in Engineering Design Optimization'
p2756
sL874L
S'Pseudo-Hierarchical Multistage Model for System of Systems Design and Operations'
p2757
sL875L
S'Finite Element Analysis Applied to Ergonomic Design of 2-Piece Aluminum Beverage Cans and Bottles'
p2758
sL876L
S'Including Preference in Anthropometry-Driven Models for Design'
p2759
sL877L
S'Evaluation Method of Drinking Ease for Aluminum Beverage Bottles'
p2760
sL878L
S'Adaptive Deposition Coverage Toolpath Planning for Metal Deposition Process'
p2761
sL879L
S'Automated Synthesis of MEMS Fabrication Sequences Using Graph Grammars'
p2762
sL880L
S'Adaptive Slicing of Moving Least Squares Surfaces: Toward Direct Manufacturing of Point Set Surfaces'
p2763
sL881L
S'Product Reverse Engineering Based on Growth Design Process'
p2764
sL882L
S'High Performance Dirichlet Parametrization Through Triangular Bezier Surface Interpolation for Deformation of CAE Meshes'
p2765
sL883L
S'Curve Shape Modification and Fairness Evaluation'
p2766
sL884L
S'Application of Interactive Deformation to Assembled Mesh Models for CAE Analysis'
p2767
sL885L
S'Pre-Programmed Failure Behavior Using Biology-Inspired Structures'
p2768
sL886L
S'Finding All Undercut-Free Parting Directions for Solids of Revolution'
p2769
sL887L
S'Wavelet SDF-Reps: Solid Modeling With Volumetric Scans'
p2770
sL888L
S'Matching Geometric Shapes in 4D Space Incorporating Curvature Information'
p2771
sL889L
S'Motion-Based Shape Deformation of Solid Models'
p2772
sL890L
S'A Point Membership Classification for Sweeping Solids'
p2773
sL891L
S'Quasi-Optimal Mesh Segmentation Via Region Growing/Merging'
p2774
sL892L
S'Development of Validation Metrics for Vehicle Frontal Impact Simulation'
p2775
sL894L
S'A Development Methodology for Parametric Synthesis Tools'
p2776
sL895L
S'Incorporating Customer Preferences and Market Trends in Vehicle Package Design'
p2777
sL896L
S'A Case Study of Design Process and Development of a Design Enabling Tool for Wright Metal Products'
p2778
sL897L
S'A Process Model and Data Mining to Support Designing Families of Services'
p2779
sL898L
S'Quantity Dimension Indexing for Design Knowledge Management'
p2780
sL899L
S'Representation and Analysis Challenges in Design for Part-Reuse: An Automotive Case Study'
p2781
sL900L
S'Empirical Models for Non-Deterministic Simulation-Based Robust Design'
p2782
sL901L
S'Managing Design Process Complexity: A Value-of-Information Based Approach for Scale and Decision Decoupling'
p2783
sL902L
S'Q2S2: Merging Qualitative Information in Sequential DOE'
p2784
sL903L
S'Using Maximum Likelihood Estimation to Estimate Kriging Model Parameters'
p2785
sL904L
S'Reducing the Number of Variables in a Response Surface Approximation: Application to Thermal Design'
p2786
sL905L
S'Reduction of Non-Monomial Basis in the Dimensional Analysis of a Dynamical System'
p2787
sL906L
S'A New Variable Fidelity Optimization Framework Based on Model Fusion and Objective-Oriented Sequential Sampling'
p2788
sL907L
S'Optimal Partitioning and Coordination Decisions in Decomposition-Based Design Optimization'
p2789
sL908L
S'Multiobjective Collaborative Robust Optimization (McRO) With Interval Uncertainty and Interdisciplinary Uncertainty Propagation'
p2790
sL909L
S'Integrated Structure Decomposition, Optimization and Control Design'
p2791
sL910L
S'A Sequential Linear Programming Coordination Algorithm for Analytical Target Cascading'
p2792
sL911L
S'Diagonal Quadratic Approximation for Parallelization of Analytical Target Cascading'
p2793
sL912L
S'A Concept for a Material That Softens With Frequency'
p2794
sL913L
S'A Template-Based Approach for Multilevel Blast Resistant Panel Design'
p2795
sL914L
S'Predictive Carbon Nanotube Models Using the Eigenvector Dimension Reduction (EDR) Method'
p2796
sL915L
S'A Function-Based Approach for Integrated Design of Material and Product Concepts'
p2797
sL916L
S'A Dual Environment for 3D Modeling With User-Defined Free Form Features'
p2798
sL917L
S'Reverse Engineering of Geometric Surfaces Using Tabu Search Optimization Technique'
p2799
sL918L
S'Correspondences Matching on 3D Mesh Models'
p2800
sL919L
S'Procedural Design of Imprint Rolls for Fluid Pathway Fabrication'
p2801
sL920L
S'OAM+: An Assembly Data Model for Legacy Systems Engineering'
p2802
sL921L
S'Robust Product Design Optimization Method Using Hierarchical Representations of Characteristics'
p2803
sL922L
S'An Optimal Design Method for Reducing Brake Squeal in Disc Brake Systems'
p2804
sL923L
S'Cycle-Based Robot Drive Train Optimization Utilizing SVD Analysis'
p2805
sL924L
S'A Component Based Optimization Approach for Modular Robot Design'
p2806
sL925L
S'A Method for Benchmarking Product Family Design Alternatives'
p2807
sL926L
S'Recommending a Platform Leveraging Strategy Based on the Homogeneous or Heterogeneous Nature of a Product Line'
p2808
sL927L
S'Three Dimensional Design Structure Matrix With Cross-Module and Cross-Interface Analyses'
p2809
sL928L
S'A Product Platform Development Method Using QFD'
p2810
sL929L
S'A Customer-Driven Approach to One-of-a-Kind Product Design'
p2811
sL930L
S'Product Family Concept Generation and Validation Through Predictive Decision Tree Data Mining and Multi-Level Optimization'
p2812
sL931L
S'Robust Product Family Consolidation and Selection Using the Hypothetical Equivalents and Inequivalents Method'
p2813
sL932L
S'An Extension of the Commonality Index for Product Family Optimization'
p2814
sL933L
S'A Single-Stage Gradient-Based Approach for Solving the Joint Product Family Platform Selection and Design Problem Using Decomposition'
p2815
sL934L
S'An Investigation of the Impact of Assembly Sequencing on the Product Family Design Outcomes'
p2816
sL935L
S'Switchgear Component Commonality Design Method Considering Delivery Lead-Time and Inventory Level'
p2817
sL936L
S'Process Platform Formation for Product Families'
p2818
sL937L
S'Application of Product Platform Design for Engineered System'
p2819
sL938L
S'A Framework for Designing Balanced Product Platforms by Estimating Versatility of Components'
p2820
sL939L
S'Function Block Design to Enable Adaptive Job Shop Operations'
p2821
sL940L
S'Improving Confidence in Simulation-Based Design Through Error Functions'
p2822
sL941L
S'Interval Reliability Analysis'
p2823
sL942L
S'Evidence Theory-Based Reliability Analysis and Optimization in Engineering Design'
p2824
sL943L
S'Reliability Estimation for Time-Dependent Problems Using a Niching Genetic Algorithm'
p2825
sL944L
S'A Monte Carlo Reliability Assessment for Multiple Failure Region Problems Using Approximate Metamodels'
p2826
sL945L
S'Supervised Bayesian Models to Carry Out Kansei Engineering of Car Dashbaords'
p2827
sL946L
S'A New Inverse Reliability Analysis Method Using MPP-Based Dimension Reduction Method (DRM)'
p2828
sL947L
S'Reliability Based Design Optimization With Correlated Input Variables Using Copulas'
p2829
sL948L
S'Robust Design Concept in Possibility Theory and Optimization for System With Both Random and Fuzzy Input Variables'
p2830
sL949L
S'Updating Uncertainty Assessments: A Comparison of Statistical Approaches'
p2831
sL950L
S'Decision Making and Constraint Tradeoff Visualization for Design Under Uncertainty'
p2832
sL951L
S'Conservative Estimations of Reliability With Limited Sampling'
p2833
sL952L
S'Reliable Space Pursuing for RBDO With Black-Box Performance Functions'
p2834
sL953L
S'Bayesian Reliability Based Design Optimization Using Eigenvector Dimension Reduction (EDR) Method'
p2835
sL954L
S'A Hierarchical Statistical Sensitivity Analysis Method for Complex Engineering Systems'
p2836
sL955L
S'A Comparative Study of Uncertainty Propagation Methods for Black-Box Type Functions'
p2837
sL956L
S'Complementary Interaction Method (CIM) for System Reliability Analysis'
p2838
sL957L
S'Innovative Six Sigma Design Using the Eigenvector Dimension-Reduction (EDR) Method'
p2839
sL958L
S'Sensitivity-Free Approach for Reliability-Based Robust Design Optimization'
p2840
sL960L
S'Differential Evolution Applied to the Design of a Three-Dimensional Vehicular Structure'
p2841
sL961L
S'On Optimization of 2D Compliant Mechanisms Using Honeycomb Discretization With Material-Mask Overlay Strategy'
p2842
sL962L
S'Design of Piezoelectric Actuator With In-Plane Motion Using Topology Optimization'
p2843
sL963L
S'Indirect Encoding of Structures for Evolutionary Design'
p2844
sL964L
S'Interactive Mesh-Free Stress Analysis for Mechanical Design Assembly With Haptics'
p2845
sL965L
S'Visual Steering Commands for Trade Space Exploration: User-Guided Sampling With Example'
p2846
sL966L
S'Virtual Reality Systems: A Method to Evaluate the Applicability Based on the Design Context'
p2847
sL967L
S'Representing Historically Based Component-Function Relationships Through Design Templates'
p2848
sL968L
S'Immersive Product Configurator for Conceptual Design'
p2849
sL969L
S'Pattern-Based Reasoning in Critical Parameter Management (CPM) for Rapid Redesign'
p2850
sL970L
S'Topological Synthesis of Shell Structures'
p2851
sL971L
S'Growth Design Modeling'
p2852
sL972L
S'Fuzzy Preference Evaluation for Hierarchical Co-Evolutionary Design Concept Generation'
p2853
sL973L
S'Application of a Genetic Algorithm to Concept Variant Selection'
p2854
sL974L
S'A Hybrid Method for Parametric Conceptual Vehicle Design Using Legacy Components and Parametric Surfaces'
p2855
sL975L
S'Exploiting Shape Similarity in Engineering Analysis'
p2856
sL976L
S'Issues of Similarity in Engineering Design'
p2857
sL977L
S'Enabling Local Risk Assessment to Support Global Collaboration in a Distributed Environment'
p2858
sL978L
S'Enhanced Convergence in Distributed Design Processes'
p2859
sL979L
S'Investigating Different Approaches for Front-Loading Problem Solving in Product Development: Evidence From Engine Engineering'
p2860
sL980L
S'Case Study Instrument Development for Studying Collaborative Design'
p2861
sL981L
S'Topology and Classical Shape Optimization of a Lower Control Arm: A Case Study'
p2862
sL982L
S'Improved Head Restraint Design for Safety and Compliance'
p2863
sL983L
S'An Efficient Algorithm for Vehicle Crashworthiness Design Via Crash Mode Matching'
p2864
sL984L
S'Crashworthiness Design Using a Hybrid Cellular Automaton Algorithm'
p2865
sL985L
S'Preliminary Results on Generating Assembly Sequences for Shape Display'
p2866
sL986L
S'Process Planning Support System Considering Product Quality'
p2867
sL987L
S'Optimum Disassembly Process With Genetic Algorithms for a Compressor'
p2868
sL988L
S'Multiobjective Optimization for Integrated Tolerance Allocation and Fixture Layout Design in Multistation Assembly'
p2869
sL989L
S'Visibility for Determining the Rotational Axis CNC Rapid Prototyping and Rapid Manufacturing'
p2870
sL990L
S'Stereolithography Mock-Up With Internal Camera for Automatic Usability Data Acquisition and Functional Simulation'
p2871
sL991L
S'Determine Mesh Orientation by Voxel-Based Principal Component Analysis'
p2872
sL992L
S'Introducing Hierarchical Particle Swarm Optimization to Optimal Part Orientation in Fused Deposition Modeling'
p2873
sL993L
S'High Accuracy Laser Scanned View Registration Method for Reverse Engineering Using a CMM Generated CAD Model'
p2874
sL994L
S'Using Tolerance-Maps to Generate Frequency Distributions of Clearance for Pin-Hole Assemblies'
p2875
sL995L
S'Semantic Tolerance Modeling'
p2876
sL996L
S'Geometric Construction of Piecewise Line-Symmetric Spherical Motions Using Quaternion Biarcs'
p2877
sL997L
S'Aeronautical Planar Flank Milling Automation: Computing the G-Zones'
p2878
sL998L
S'Aerodynamic Shape Optimization and Knowledge Mining of Centrifugal Fans Using Simulated Annealing Coupled With a Neural Network'
p2879
sL999L
S'Optimal Tolerance Allocation of Automotive Pneumatic Control Valves Based on Product and Process Simulations'
p2880
sL1000L
S'Optimization of Chemical Vapor Deposition Process'
p2881
sL1001L
S'Data Mining and Fuzzy Clustering to Support Product Family Design'
p2882
sL1002L
S'Knowledge Model for Managing Product Variety and Its Reflective Design Process'
p2883
sL1003L
S'Design Information Support Tool (DIST): Its Development and Effectiveness Investigation'
p2884
sL1004L
S'Automating Redesign of Sheet-Metal Parts in Automotive Industry Using KBE and CBR'
p2885
sL1005L
S'Verve: A General Purpose Open Source Reinforcement Learning Toolkit'
p2886
sL1006L
S'Augmenting Tools for Reverse Engineering Methods'
p2887
sL1007L
S'Qualitative and Quantitative Sequential Sampling'
p2888
sL1008L
S'On Adaptive Sampling for Single and Multi-Response Bayesian Surrogate Models'
p2889
sL1009L
S'A Kriging Metamodel Assisted Multi-Objective Genetic Algorithm for Design Optimization'
p2890
sL1010L
S'Review of Metamodeling Techniques in Support of Engineering Design Optimization'
p2891
sL1012L
S'An Improved Genetic Algorithm for the Optimization of Composite Structures'
p2892
sL1013L
S'Surrogate Model Updating Using Clustering in a Genetic Algorithm Setup'
p2893
sL1014L
S'Exploration in the Preliminary Mechanical Design of Trade-Offs Between Automotive Architectural Constraints and Aggregate Noise Performances'
p2894
sL1015L
S'Heterogeneous Design Optimization From the Microstructure'
p2895
sL1016L
S'Parametric Structural Shape and Topology Optimization Method With Radial Basis Functions and Level-Set Method'
p2896
sL1017L
S'FEA-Based Design of Heterogeneous Objects'
p2897
sL1018L
S'Material Property Identification and Sensitivity Analysis Using Indentation and FEM'
p2898
sL1019L
S'Topology Optimization of Micromachined Structures With Surface Micromachining Manufacturing Constraints'
p2899
sL1020L
S'Multifunctional Topology Design of Cellular Material Structures'
p2900
sL1021L
S'Designing Design Processes for Integrated Materials and Products Realization: A Multifunctional Energetic Structural Material Example'
p2901
sL1022L
S'Exploring the Advantages of Materials Design in a Product Design Process'
p2902
sL1023L
S'Free-Form Feature Representation and Comparison'
p2903
sL1024L
S'Parametric Solid Modeling'
p2904
sL1025L
S'Poisson Based Reuse of Freeform Features'
p2905
sL1026L
S'Parametric and Topological Control in Shape Optimization'
p2906
sL1027L
S'Topology Synthesis and Classification of Low-Mobility Parallel Mechanisms'
p2907
sL1028L
S'Coupling Degree of Mechanism and Its Application'
p2908
sL1029L
S'A Survey of Various Encoding Schemes and Associated Placement Algorithms Applied to Packing and Layout Problems'
p2909
sL1030L
S'Vehicle Component Layout With Shape Morphing: An Initial Study'
p2910
sL1031L
S'Simultaneous Geometry Optimization and Material Selection for Truss Structures'
p2911
sL1032L
S'A Two-Stage Design Method for Compliant Mechanisms Having Specified Non-Linear Output Paths'
p2912
sL1033L
S'A Multicriteria System-Based Method for Simulation-Driven Design Synthesis'
p2913
sL1034L
S'Design and Verification of a New Computer Controlled Seating Buck'
p2914
sL1035L
S'An Efficient Method for Detecting Packaging Supporting Space'
p2915
sL1036L
S'Topology Optimization Considering Gravitational and Centrifugal Forces'
p2916
sL1037L
S'BB-ATC: Analytical Target Cascading Using Branch and Bound for Mixed-Integer Nonlinear Programming'
p2917
sL1038L
S'Applying the Mahalanobis-Taguchi System to Vehicle Handling'
p2918
sL1039L
S'Model-Based Decomposition Using Non-Binary Dependency Analysis and Heuristic Partitioning Analysis'
p2919
sL1040L
S'Product Optimization Incorporating Discrete Design Variables Based on Decomposition of Performance Characteristics'
p2920
sL1041L
S'Development of Distributed Computing Framework for Parallel Multi-Disciplinary Optimization'
p2921
sL1042L
S'Ontologies for Supporting Engineering Design Optimization'
p2922
sL1043L
S'Two-Stage System of Systems Model by Linking System Design With Resource Allocation'
p2923
sL1044L
S'Optimization of a PEM Fuel Cell System for Low-Speed Hybrid Electric Vehicles'
p2924
sL1045L
S"A Multidisciplinary and Multiobjective System Analysis and Optimization Methodology for Embedding Integrated Systems Health Management (ISHM) Into NASA's Complex Systems"
p2925
sL1046L
S'Flexible Product Platforms: Framework and Case Study'
p2926
sL1048L
S'Platform-Based Design and Development: Current Trends and Needs in Industry'
p2927
sL1049L
S'Two Methodologies for Identifying Product Platform Elements Within an Existing Set of Products'
p2928
sL1050L
S'A Comprehensive Metric for Evaluating Component Commonality in a Product Family'
p2929
sL1052L
S'Towards a Suite of Problems for Comparison of Product Platform Design Methods: A Proposed Classification'
p2930
sL1053L
S'Selection-Integrated Optimization (SIO) Methodology for Optimal Design of Adaptive Systems'
p2931
sL1054L
S'A Method to Improve Platform Leveraging in a Market Segmentation Grid for an Existing Product Line'
p2932
sL1055L
S'An Enhanced Change Modes and Effects Analysis (CMEA) Tool for Measuring Product Flexibility With Applications to Consumer Products'
p2933
sL1056L
S'Determination of Ranged Sets of Design Specifications by Incorporating Heterogeneous Design Capability Information'
p2934
sL1057L
S'Assessing and Improving Commonality and Diversity Within a Product Family'
p2935
sL1058L
S'Assessing and Increasing Product and Family Differentiation in the Market'
p2936
sL1059L
S'Module Interface Representation'
p2937
sL1060L
S'Product Platform Problem Taxonomy: Classification and Identification of Benchmark Problems'
p2938
sL1061L
S'Adapted Concept Generation and Computational Techniques for the Application of a Transformer Design Theory'
p2939
sL1062L
S'2-D Deposition Pattern and Strategy Study on Rapid Manufacturing'
p2940
sL1063L
S'Ruled Layer Generation Between Two Freeform Curves by Normal and Distance Matching'
p2941
sL1064L
S'Spiral-Like Path Planning Without Gap for Material Deposition Processes'
p2942
sL1065L
S'Fast Layered Manufacturing Support Volume Computation on GPUs'
p2943
sL1066L
S'A Sensitivity Analysis of Shot Peening Parameters'
p2944
sL1067L
S'Reliability-Based Design Using Saddlepoint Approximation'
p2945
sL1068L
S'Uncertainty Analysis With Probability and Evidence Theories'
p2946
sL1069L
S'Engineering Product Design Optimization for Retail Channel Acceptance'
p2947
sL1070L
S'A Comparison of Probability Bounds Analysis and Sensitivity Analysis in Environmentally Benign Design and Manufacture'
p2948
sL1071L
S'A Sequential Algorithm for Possibility-Based Design Optimization'
p2949
sL1072L
S'Numerical Methods for Propagating Imprecise Uncertainty'
p2950
sL1073L
S'A Single-Loop Approach for System Reliability-Based Design Optimization'
p2951
sL1074L
S'Robust Design of Compressor Blades Against Manufacturing Variations'
p2952
sL1075L
S'The Risk in Early Design (RED) Method: Likelihood and Consequence Formulations'
p2953
sL1076L
S'Optimal Design With Non-Normally Distributed Random Parameters, Conditional Probability, and Joint Constraint Reliabilities: A Case Study in Vehicle Emissions Regulations to Achieve Ambient Air Quality Standards'
p2954
sL1077L
S'Simulation Model Refinement for Decision Making Via a Value-of-Information Based Metric'
p2955
sL1078L
S'A Bayesian Approach to Reliability-Based Optimization With Incomplete Information'
p2956
sL1079L
S'Modeling Implications in Simulation-Based Design of Stents'
p2957
sL1080L
S'Understanding the Effects of Model Uncertainty in Robust Design With Computer Experiments'
p2958
sL1081L
S'A Function-Based Methodology for Analyzing Critical Events'
p2959
sL1082L
S'Some Metrics and a Bayesian Procedure for Validating Predictive Models in Engineering Design'
p2960
sL1083L
S'Multi-Disciplinary Conceptual Modeling and Optimization With Uncertainty Effects Consideration'
p2961
sL1084L
S'An Inverse Analysis Method for Design Optimization With Both Statistical and Fuzzy Uncertainties'
p2962
sL1085L
S'Alternative Methods for Reliability-Based Robust Design Optimization Including Dimension Reduction Method'
p2963
sL1086L
S'INSIDES: A New Design and Simulation Platform for Virtual Prototyping in Automotive and Aerospace Industry'
p2964
sL1087L
S'Development of Evaluation System for Style Design Using Mixed Reality Technology'
p2965
sL1088L
S'A Graphical Modeling Environment for Configuring Modular Product Families and Platforms'
p2966
sL1089L
S'Visual Representations as an Aid to Concept Generation'
p2967
sL1090L
S'Style Design Method Based on Form Impressions'
p2968
sL1091L
S'Automated Concept Generation: A Co-Evolutionary Approach'
p2969
sL1092L
S'Knowledge Sharing Between Designers and Accidentologists for the Development of Road Safety Systems'
p2970
sL1093L
S'A Method for Inferring Design Rules With Explicit Bounds of Applicability'
p2971
sL1094L
S'Using Q-Learning and Genetic Algorithms to Improve the Efficiency of Weight Adjustments for Optimal Control and Design Problems'
p2972
sL1095L
S'A Web-Enabled Engineering Object Modeling Environment to Support Interoperability and Intelligent Services in Collaborative Design'
p2973
sL1096L
S'Handling Multiple Objectives in Decentralized Design'
p2974
sL1097L
S'Facilitating Collaborative Design: A Review on Design Representations and Workstations'
p2975
sL1098L
S'Acquisition of Product Design Guidelines Considering User Kansei Data Pertaining to Product Environments'
p2976
sL1099L
S'Computational Methods Applied to Modelica Simulation Models in a Web Based Framework'
p2977
sL1100L
S'Evaluation of Modular Design Concepts of Complex Mechatronic Systems'
p2978
sL1101L
S'Modeling of Evolutionary Design Database'
p2979
sL1102L
S'On Performance Enhancement of Parallel Kinematic Machine'
p2980
sL1103L
S'An Information Theoretical Perspective on Performance, Refinement and Cost'
p2981
sL1104L
S'A Graph-Based Method for Mechanical Product Family Modeling and Functional Tolerancing'
p2982
sL1105L
S'A Cost Based Methodology for Design Optimization'
p2983
sL1106L
S'Can a House Without a Foundation Support Design?'
p2984
sL1107L
S'A Decision Support Formulation for Design Teams: A Study in Preference Aggregation and Handling Unequal Group Members'
p2985
sL1108L
S'Manufacturing Investment and Allocation in Product Line Design Decision-Making'
p2986
sL1109L
S'An Optimization Based Methodology to Design Flexible Systems Subjected to Changing Operating Conditions'
p2987
sL1110L
S'A Conceptual Design Tool With Error Warning'
p2988
sL1111L
S'Analyzing Accidents of Jamming Body Parts in Doors'
p2989
sL1112L
S'Organizational Applications of Failure Knowledge Management'
p2990
sL1113L
S'Development of a Robust Design Process Using a New Robustness Index'
p2991
sL1114L
S'On Providing Formal Manufacturability Information to Upstream Product Development Processes: Methodology and Case Study'
p2992
sL1115L
S'Modeling of Non-Linear Relations Among Different Design Evaluation Measures for Multi-Objective Design Optimization'
p2993
sL1116L
S'On the Impact of Coupling Strength on Complex System Optimization for Single-Level Formulations'
p2994
sL1117L
S'Feasibility Assessment in Preliminary Design Using Pareto Sets'
p2995
sL1118L
S'PSO Driven Genetic Range Genetic Algorithms'
p2996
sL1119L
S'Methods for Discrete Design Optimization'
p2997
sL1120L
S'Design Optimization by Integration of Evolutionary Search and Cumulative Approximation'
p2998
sL1121L
S'Twinkling a Random Search Algorithm for Design Optimization'
p2999
sL1122L
S'Pipe Route Design Using Variable Topography Distance Transforms'
p3000
sL1123L
S'Heuristic Gradient Projection for 3D Space Frame Optimization'
p3001
sL1124L
S'Fuzzy Heuristic Gradient Projection for Frame Topology Optimization'
p3002
sL1125L
S'Faster Generation of Feasible Design Points'
p3003
sL1126L
S'Methodology to Reach Optimal Design of CHP Plants'
p3004
sL1127L
S'A Comparison of Optimized Stacked-Ply Flywheel Designs That Are Based on Different Failure Criteria'
p3005
sL1128L
S'Roles and Observations of a Graduate Design Coach'
p3006
sL1129L
S'Low Cost Demonstrator as a Mean for Rapid Product Realization With an Electric Motorcycle Application'
p3007
sL1130L
S'Synthesis of Structural Symmetry Driven by Cost Savings'
p3008
sL1131L
S'An Interval-Based Focalization Method for Decision-Making in Decentralized, Multi-Functional Design'
p3009
sL1132L
S'A Parallel Grammar for Simulation-Driven Mechanical Design Synthesis'
p3010
sL1133L
S'A Study of Factor Effects in Data From Factorial Experiments'
p3011
sL1134L
S'Geometric Surface Features Applied to Volumetric CAE Mesh Models'
p3012
sL1135L
S'A CAD-Integrated System for Automated Idealization of CAD-Models for Finite Element Analysis'
p3013
sL1136L
S'A Method for Integrating Form Errors Into Geometric Tolerance Analysis'
p3014
sL1137L
S'Shape Recovery From Medical Image Data Using Extended Superquadrics'
p3015
sL1138L
S'Insertion of Planar Areas Into Free-Form Surfaces in Early Product Design'
p3016
sL1139L
S'Tolerance-Maps Applied to a Point-Line Cluster of Features'
p3017
sL1140L
S'Allocating Tolerances Statistically With Tolerance-Maps and Beta Distributions: The Target a Planar Face'
p3018
sL1141L
S'Design for Product-Embedded Disassembly'
p3019
sL1142L
S'Filleting and Rounding Using a Point-Based Method'
p3020
sL1143L
S'Recognition of Interacting Turning Features for Mill/Turn Parts'
p3021
sL1144L
S'A Packing Genetic Algorithm for Configuration Design'
p3022
sL1145L
S'Polygon Offsetting by Computing Winding Numbers'
p3023
sL1146L
S'Mesh Processing for Computerized Anthropometry'
p3024
sL1147L
S'A Complete Variation Algorithm for Slot and Tab Features for 3D Simulation-Based Tolerance Analysis'
p3025
sL1148L
S'On Tolerance Information Extraction of Feature Model in Automotive Engine CAPP System'
p3026
sL1149L
S'Hole-Making on a Bent Thick Plate'
p3027
sL1150L
S'Design and Experimental Research of Magneto-Rheological Fluid Fan Clutch'
p3028
sL1151L
S'Continuum-Based Design Sensitivity Analysis and Optimization of Springback in Stamping Process'
p3029
sL1152L
S'Design of an Automobile Seat With Regulations Using Axiomatic Design'
p3030
sL1153L
S'Design Optimization of Continuous Caster Refractory Components'
p3031
sL1155L
S'Methodology for Market Analysis of CHP Systems'
p3032
sL1156L
S'Integrating a Vision System With a Coordinate Measuring Machine to Automate the Datum Alignment Process'
p3033
sL1157L
S'A Study on the Feed Rate Optimization of a Ball Screw Feed Drive System for Minimum Vibrations'
p3034
sL1158L
S'Occupant Restraint System Design Under Uncertainty Using Analytical Uncertainty Propagation Via Metamodels'
p3035
sL1159L
S'Packing Optimization by Enhanced Rubber Band Analogy'
p3036
sL1160L
S'Automating Error Attenuation of Cutting Tools Using Smart Material'
p3037
sL1161L
S'Knowledge Based Design Method for Fibre Metal Laminate Fuselage Panels'
p3038
sL1162L
S'A Unified Information Model for Product Family Design Management'
p3039
sL1163L
S'Analysis of Information Complexity During Product Development'
p3040
sL1164L
S'Integrated Feature Modeller for Certain Manufacturing Processes'
p3041
sL1165L
S'Extended Radial Basis Functions for Metamodeling: A Comparative Study'
p3042
sL1166L
S'Selecting an Appropriate Metamodel: The Case for NURBs Metamodels'
p3043
sL1167L
S'A Hybrid Method Using Response Surface and Pattern Search for Design Optimization'
p3044
sL1168L
S'Gaussian Process Meta-Models for Efficient Probabilistic Design in Complex Engineering Design Spaces'
p3045
sL1169L
S'A Compromise Method for the Design of Parametric Polynomial Surrogate Models'
p3046
sL1170L
S'Robust Design of Cellular Materials With Topological and Dimensional Imperfections'
p3047
sL1171L
S'Microstructure Design for a Rotating Disk: With Application to Turbine Engines'
p3048
sL1172L
S'Design of Functionally Graded Structures for Enhanced Thermal Behavior'
p3049
sL1173L
S'A Strategy for Simulation-Based Multiscale, Multi-Functional Products and Associated Design Processes'
p3050
sL1174L
S'An Inductive Design Exploration Method for the Integrated Design of Multi-Scale Materials and Products'
p3051
sL1175L
S'The Generalized Cahn-Hilliard Equations of Multiphase Transition for Structural Topology Optimization'
p3052
sL1176L
S'A Topology Optimization Problem in Control of Structures Using Modal Disparity'
p3053
sL1177L
S'Synthesis of Bistable Periodic Structures Using Topology Optimization and a Genetic Algorithm'
p3054
sL1178L
S'Vehicle Crashworthiness Design Via a Surrogate Model Ensemble and a Co-Evolutionary Genetic Algorithm'
p3055
sL1179L
S'Structural Topology Optimization Using Frame Elements Based on the Complementary Strain Energy Concept for Eigen-Frequency Maximization'
p3056
sL1180L
S'Optimisation of a Robotic Workcell Layout Using Genetic Algorithms'
p3057
sL1181L
S'Topological Synthesis for Linkage Mechanism Design Using the Minimum Potential Energy Principle'
p3058
sL1182L
S'Structural Topology Optimization Under Design-Dependent Loads'
p3059
sL1183L
S'A Review of Software Solutions for the Management of New Product Development and Product Family Planning'
p3060
sL1184L
S'An Activity-Based Costing Method for Product Family Design in the Early Stages of Development'
p3061
sL1185L
S'Product Family Representation and Redesign: Increasing Commonality Using Formal Concept Analysis'
p3062
sL1186L
S'Towards Rapid Redesign: Pattern-Based Design Diagnostics for Large-Scale and Complex Redesign Problems'
p3063
sL1187L
S'Towards Rapid Redesign: Pattern-Based Redesign Planning for Large-Scale and Complex Redesign Problems'
p3064
sL1188L
S'Multi-Objective Design Optimization for Product Platform and Product Family Design Using Genetic Algorithms'
p3065
sL1189L
S'A Methodology to Support Product Family Redesign Using Genetic Algorithm and Commonality Indices'
p3066
sL1190L
S'Assembly Process Selection to Minimize Existing Assembly System Modification Cost During New Product Family Member Design'
p3067
sL1191L
S'Designing Product Families for a Changing Market Space'
p3068
sL1192L
S'A Group Technology Based Representation for Product Portfolios'
p3069
sL1193L
S'Customer Need Driven Function-Behavior Platform Formation'
p3070
sL1194L
S'Product Configuration Design Based on Extensible Product Family for Mass Customization'
p3071
sL1195L
S'Process Platform-Based Production Configuration'
p3072
sL1196L
S'Robust Truck Cabin Layout Optimization Using Advanced Driver Variance Models'
p3073
sL1197L
S'An Adaptive Sequential Linear Programming Algorithm for Optimal Design Problems With Probabilistic Constraints'
p3074
sL1198L
S'Reliability Assessment Based on the Concept of Failure Surface Frontier'
p3075
sL1199L
S'Reliability Optimization Involving Mixed Continuous-Discrete Uncertainties'
p3076
sL1200L
S'Uncertainty Analysis by Dimension Reduction Integration and Saddlepoint Approximations'
p3077
sL1201L
S'A Design Optimization Method Using Evidence Theory'
p3078
sL1202L
S'Enhanced Sequential Optimization and Reliability Assessment Method for Changing Design Variance'
p3079
sL1203L
S'Probabilistic Analytical Target Cascading: A Moment Matching Formulation for Multilevel Optimization Under Uncertainty'
p3080
sL1204L
S'A Methodology to Manage Uncertainty During System-Level Conceptual Design'
p3081
sL1205L
S'A Methodology for Trading-Off Performance and Robustness Under Uncertainty'
p3082
sL1206L
S'Efficient Genetic Algoritm Based Robust Design Method for Compressor Fan Blades'
p3083
sL1207L
S'A New Approach to Probabilistic Risk Analysis in Concurrent and Distributed Design of Aerospace Systems'
p3084
sL1208L
S'Effects of Uncertainty Reduction on Weight of Composite Laminates at Cryogenic Temperatures'
p3085
sL1209L
S'A New Deterministic Approach Using Sensitivity Region Measures for Multi-Objective Robust and Feasibilty Robust Design Optimization'
p3086
sL1210L
S'Reliability-Based Topology Optimization Considering Multicriteria Using Frame Elements'
p3087
sL1211L
S'Integrated Framework for Design Optimization Under Aleatory and/or Epistemic Uncertainties Using Adaptive-Loop Method'
p3088
sL1212L
S'Effect of Safety Measures on Reliability of Aircraft Structures Subjected to Damage Growth'
p3089
sL1213L
S'A Quadrature-Based Sampling Technique for Robust Design With Computer Models'
p3090
sL1214L
S'Automatic Decomposition and Refinement of Oversized Components for Rapid Prototyping'
p3091
sL1215L
S'Virtual Reality Interactive Design Utilizing Meshless Stress Re-Analysis'
p3092
sL1216L
S'Selective Clay Milling for Interactive Prototyping'
p3093
sL1217L
S'Building Sequence of Boundary Model in Layered Manufacturing'
p3094
sL1218L
S'Automatic Fairing of Two-Parameter Rational B-Spline Motion'
p3095
sL1219L
S'PDE-Driven Level Sets and Shape Sensitivity for Structural Topology Optimization'
p3096
sL1220L
S'An Efficient Feasibility Robust Optimization Method Using a Sensitivity Region Concept'
p3097
sL1221L
S'Numerical and Experimental Study of Shielding Gas Orientation Effects on Particle Stream Concentration Mode in Coaxial Laser Aided Material Deposition Process'
p3098
sL1222L
S'Analysis of Decomposability and Complexity for Design Problems in the Context of Decomposition'
p3099
sL1223L
S'Freeform Feature Retrieval by Signal Processing'
p3100
sL1224L
S'Covariance Modeling Method for Use in Compliant Assembly Tolerance Analysis'
p3101
sL1225L
S'A Product Ontology for Automotive Seat Specification'
p3102
sL1226L
S'Resistance Based Modeling of Collaborative Design'
p3103
sL1228L
S'An Optimization Study of the Ultrasonic Welding of Thin Film Polymers'
p3104
sL1229L
S'A Method to Solve Inverse Kinematics Problems Using Lie Algebra and Its Application to Robot Spray Painting Simulation'
p3105
sL1230L
S'Derivation of Design Guidelines for Miniature Machine Tools'
p3106
sL1231L
S'Automated Symmetry Exploitation in Engineering Analysis'
p3107
sL1232L
S'On the Design Synthesis of Multistable Equilibrium Systems'
p3108
sL1233L
S'Optimization of a Semi-Active Shock Absorber Using a Genetic Algorithm'
p3109
sL1234L
S'Concurrent Parameter Design Based on Constraint Network'
p3110
sL1236L
S'A Quantitative Analysis of the Evolution of Design Automation Conference Fields'
p3111
sL1237L
S'Optimization of Chemical Etching Process in Niobium Cavities'
p3112
sL1238L
S'An Efficient Weighting Update Method to Achieve Acceptable Consistency Deviation in Analytical Target Cascading'
p3113
sL1239L
S'A Comparison of Commonality Indices for Product Family Design'
p3114
sL1240L
S'A System Approach to Simulation-Based Design Under Uncertainty, Through Best in Class Simulation Process Integration and Design Optimization'
p3115
sL1241L
S'A Comparative Study of Constraint Programming Techniques Over Intervals in Preliminary Design'
p3116
sL1242L
S'Front Structure Design Procedure for Optimal Pedestrian Leg Impact Performance'
p3117
sL1243L
S'A Recursive, Line-Intersection Method for Finding the Area of a Mesh Projected Onto a Plane'
p3118
sL1244L
S'Task Scheduling of Parallel Development Projects Using Genetic Algorithms'
p3119
sL1245L
S'Dynamic Modeling and Simulation of Parallel Kinematic Machines'
p3120
sL1246L
S'DRed and Design Folders: A Way of Capturing, Storing and Passing On Knowledge Generated During Design Projects'
p3121
sL1247L
S'Identifying and Tracking Features in Freeform Shape'
p3122
sL1248L
S'Development of a Production Cost Estimation Framework for Product Family Design'
p3123
sL1249L
S'Modeling and Design of Materials for Controlled Wave Propagation in Plane Grid Structures'
p3124
sL1250L
S'An Efficient Pareto Set Identification Approach for Multi-Objective Optimization on Black-Box Functions'
p3125
sL1251L
S'Ant Colony Optimization Method for Product Platform Formation'
p3126
sL1252L
S'The Effects of Different Specifications on the Tolerance-Maps for an Angled Face'
p3127
sL1253L
S'Development of Process Optimization for an Intelligent Knowledge-Based System for Spur Gear Precision Forging Die Design'
p3128
sL1254L
S'Global Stiffness Improvement for Tricept Machine Tools Family'
p3129
sL1255L
S'A Parametric Approach to Vehicle Seating Buck Design'
p3130
sL1256L
S'Parameter and Tolerance Constraints Modeling for Assembly'
p3131
sL1257L
S'Fully Free-Form Deformation Features Incorporating Discontinuities'
p3132
sL1258L
S'Design of Components With Optimized Microstructure'
p3133
sL1259L
S'An Integrated Design Support Environment for a Micro-Scale Portable Absorption Cooling System'
p3134
sL1260L
S'A Conceptual Design Synthesis Framework for Micro-Electro-Mechanical Systems (MEMS)'
p3135
sL1261L
S'A Survey of the Study of Failure'
p3136
sL1262L
S'A Knowledge-Based System for Change Impact Analysis'
p3137
sL1263L
S'Evaluation Method for the Topological Synthesis of Sheet Metal Components'
p3138
sL1264L
S'A Single-Loop Method for Reliability-Based Design Optimization'
p3139
sL1265L
S'Geometric Design of Uniform Developable B-Spline Surfaces'
p3140
sL1266L
S'Creative Design, Issues and Strategies'
p3141
sL1267L
S'A Saddlepoint Approximation Method for Uncertainty Analysis'
p3142
sL1268L
S'Geometric Containment Analysis for Rotational Parts'
p3143
sL1269L
S'Integrating Freeform and Feature-Based Fitting Methods'
p3144
sL1270L
S'A Systems Framework for Platform Architecture Analysis'
p3145
sL1271L
S'On the Use of Kriging Models to Approximate Deterministic Computer Models'
p3146
sL1272L
S'Decomposition-Based Assembly Synthesis of Space Frame Structures Using Joint Library'
p3147
sL1273L
S'A New Approach for Simultaneous Shape and Topology Optimization Based on Implicit Topology Description Functions'
p3148
sL1274L
S'On Electrochemical Deposition for Layered Manufacturing'
p3149
sL1275L
S'Robustness and Performance Optimization of Engine Bearing System Using Computer Model and Surrogate Noise'
p3150
sL1276L
S'Design Optimization of Enclosed Liquid Containers With Baffles for Sloshing and Impact'
p3151
sL1277L
S'Design for Project Change Management: Part 1 -- Configuration Design'
p3152
sL1278L
S'Design for Project Change Management: Part 2 -- Attribute Design'
p3153
sL1279L
S'Moment Matching for Sensitivity Analysis of Probabilistic Model Output'
p3154
sL1280L
S'Product Design Selection With Variability in Preferences for an Implicit Value Function'
p3155
sL1281L
S'A Formal Approach to Handling Conflicts in Multiattribute Group Decision Making'
p3156
sL1282L
S'Convergence and Stability in Distributed Design of Large Systems'
p3157
sL1283L
S'Transient Root Cause Analysis: A Model-Based Systems Engineering Methodology'
p3158
sL1284L
S'Design Optimization of Hierarchically Decomposed Multilevel Systems Under Uncertainty'
p3159
sL1285L
S'Purely Declarative Feature-Based Design With Feature Type Property Maintenance'
p3160
sL1286L
S'A Weighted Three-Point-Based Strategy for Variance Estimation'
p3161
sL1287L
S'Hierarchical Arrangement of Characteristics in Product Design Optimization Problems for Deeper Insight Into Optimized Results'
p3162
sL1288L
S'A Method for Determining the Optimal Direction of the Principal Moment of Inertia in Frame Element Cross-Sections'
p3163
sL1289L
S'A Collaborative Rapid Analysis Method for Decision-Making in Assembly Line Design'
p3164
sL1290L
S'Text and Illustration Based Scenario Expressions for Conveying Failure Knowledge'
p3165
sL1291L
S'Variant Design Automation: Strategy and Procedure for Storing Design Process Information'
p3166
sL1292L
S'A Process-Oriented Approach for Management of Product Configuration Models'
p3167
sL1293L
S'Design of a Bimorph Driven Meander-Line Structure for Parts Feeder Application'
p3168
sL1294L
S'Optimisation and Robust Design in Aero Engine Development'
p3169
sL1295L
S'Decoupled and Single Loop Methods for Reliability-Based Optimization and Robust Design'
p3170
sL1296L
S'An Integrated Robust Design and Marketing Approach for Product Design Selection Process'
p3171
sL1297L
S'A CAD Package for High-Speed Cam Design Based on Direct Multiple Shooting Optimal Control Techniques'
p3172
sL1298L
S'A Fuzzy Dynamic Programming Approach for Mixed-Discrete Multistage Decision Processes'
p3173
sL1299L
S'Structural Topology Optimization Under Impact Loads Using Beam Ground Structures'
p3174
sL1300L
S'Objective Function Based Pattern Search: A Computationally Efficient Algorithm for 3D Component Layout'
p3175
sL1301L
S'Toward an Information Management Infrastructure for Product Family Planning and Mass Customization'
p3176
sL1302L
S'Application of Math-Based Marketing and Financial Tools in an Automated Parametric Design Framework'
p3177
sL1303L
S'An Information Theoretical Perspective on Design Optimization'
p3178
sL1304L
S'Economics of Sacrificial Fixturing for CNC Machining and Rapid Manufacturing'
p3179
sL1305L
S'A Benchmark Comparison of CAD 5-Axis Machining Packages'
p3180
sL1306L
S'A Comparative Study of Optimal Design for an Inkjet Printer Tube With and Without Performance Variations'
p3181
sL1307L
S'Reliability-Based Design Optimization Methods'
p3182
sL1308L
S'A Reliability-Based Design Method Using Simulation Techniques and Efficient Optimization Approach'
p3183
sL1309L
S'Assessing Product Architecture Costing: Product Life Cycles, Allocation Rules, and Cost Models'
p3184
sL1310L
S'Unified Distance Queries in a Heterogeneous Model Environment'
p3185
sL1311L
S'The Role of Constraints and Human Interaction in Evolving MEMS Designs: Microresonator Case Study'
p3186
sL1312L
S'Two-Level Approximation Method for Reliability-Based Design Optimization'
p3187
sL1313L
S'Product Platform Design Through Sensitivity Analysis and Cluster Analysis'
p3188
sL1315L
S'A Full Parametric Model for Turbomachinery Blade Design and Optimisation'
p3189
sL1316L
S'The Performance Moment Integration Method for Reliability-Based Robust Design Optimization'
p3190
sL1317L
S'Segmentation of Noisy Laser-Scanner Generated Meshes With Piecewise Polynomial Approximations'
p3191
sL1318L
S'Solid Modeler Evaluation and Comparison Cycle: A Methodology for Optimum Selection of Modeling Software'
p3192
sL1319L
S'Vehicle Structure Optimization for Crash Pulse'
p3193
sL1320L
S'Analytical Variance-Based Global Sensitivity Analysis in Simulation-Based Design Under Uncertainty'
p3194
sL1321L
S'Building Surrogate Models Based on Detailed and Approximate Simulations'
p3195
sL1322L
S'Graphical Modeling Environment and Supporting Framework for Function-Based Conceptual Design'
p3196
sL1323L
S'Relative Entropy Based Method for Global and Regional Sensitivity Analysis in Probabilistic Design'
p3197
sL1324L
S'A Haptic System for Virtual Prototyping of Polygonal Models'
p3198
sL1325L
S'Influence of Group Cohesion and Information Sharing on Effectiveness of Design Review'
p3199
sL1326L
S'Development of a J2EE Web Application for STEP-Based Design Conformance Checking'
p3200
sL1327L
S'A Sequential Exploratory Experimental Design Method: Development of Appropriate Empirical Models in Design'
p3201
sL1328L
S'Applicability of Design Spaces to Utilize Current Assembly Plant Resources to Produce New Product Family Members'
p3202
sL1329L
S'A Sketch-Based Interface for the Design and Analysis of Simple Vibratory Mechanical Systems'
p3203
sL1330L
S'Trim Loop Closure for Enhanced CAD Interoperability'
p3204
sL1331L
S'Haptically Guided Filtering for Reverse Engineering'
p3205
sL1332L
S'Design Configuration of Vehicle With Domain Knowledge Enhancement'
p3206
sL1333L
S'An Exploration-Estimation Algorithm for Synthesis and Analysis of Engineering Systems Using Minimal Physical Testing'
p3207
sL1334L
S'Quantifying Profit and Loss Associated With Failure Cases'
p3208
sL1335L
S'Using the Compromise Decision Support Problem in Microsystem Design: A Formulation for a Miniature Parylene Gas Chromatographic Column'
p3209
sL1336L
S'Improved Disassembly Matrices for Disassembly Processes'
p3210
sL1337L
S'Design Under Uncertainty Using Monte Carlo Simulation and Probabilistic Sufficiency Factor'
p3211
sL1338L
S'A Cross-Evaluation Matrix (CEM) Rating Based Approach to Pareto Efficient Frontier and Design Alternatives Enumeration'
p3212
sL1339L
S'An Integrated Framework for Probabilistic Optimization Using Inverse Reliability Strategy'
p3213
sL1340L
S'An Approach to Robust Multiattribute Concept Selection'
p3214
sL1341L
S'An Indicator Response Surface-Based Monte Carlo Method for Efficient Component and System Reliability Analysis'
p3215
sL1342L
S'Reliability-Based Design With the Mixture of Random and Interval Variables'
p3216
sL1343L
S'Application of the Sequential Optimization and Reliability Assessment Method to Structural Design Problems'
p3217
sL1344L
S'Structural Durability Design Optimization and Its Reliability Assessment'
p3218
sL1345L
S'Incorporating Epistemic Uncertainty in Robust Design'
p3219
sL1346L
S'Robust Optimization of an Automotive Valvetrain Using a Multiobjective Genetic Algorithm'
p3220
sL1347L
S'Robust Design Using Preference Aggregation Methods'
p3221
sL1348L
S'Non-Gradient Based Parameter Sensitivity Estimation for Robust Design Optimization'
p3222
sL1349L
S'Product Platform Design and Optimization: Status and Promise'
p3223
sL1350L
S'Optimal Design Methodology of Common Components for a Class of Products: Its Foundations and Promise'
p3224
sL1351L
S'Internet Based Framework to Perform Automated FEA on User Customized Products'
p3225
sL1352L
S'Production Cost Modeling to Support Product Family Design Optimization'
p3226
sL1353L
S'Product Family and Platform Portfolio Optimization'
p3227
sL1354L
S'Dimensional Adjustment for Assemblability of Rapid Protoyped Parts'
p3228
sL1355L
S'WirePATH Rapid Tooling Process and Supporting Software Development'
p3229
sL1356L
S'Layered Manufacturing by Electrophotographic Printing'
p3230
sL1357L
S'Towards Automated Design of Multi-Piece Permanent Molds'
p3231
sL1358L
S'Toward Automatic Process Planning of a Multi-Axis Hybrid Laser Aided Manufacturing System: Skeleton-Based Offset Edge Generation'
p3232
sL1359L
S'Extracting Freeform Shape Information by Template Fitting'
p3233
sL1360L
S'Extended Hierarchical Cluster Analysis for the Decomposition of Complex Design Problems'
p3234
sL1361L
S'Assembly Synthesis With Subassembly Partitioning for Optimal In-Process Dimensional Adjustability'
p3235
sL1362L
S'Topology Optimization of Multi-Component Structures via Decomposition-Based Assembly Synthesis'
p3236
sL1363L
S'Quantitative Exploratory Techniques to Simplify Multiple Objectives in Product Design Optimization'
p3237
sL1364L
S'Multi-Objective Optimisation of Ship Hull With Distributed Applications'
p3238
sL1365L
S'Structural Topology Design Optimization for Controlled Crash Behavior'
p3239
sL1366L
S'Analytical Target Setting: An Enterprise Context in Optimal Product Design'
p3240
sL1367L
S'Multi-Objective Configuration Optimization With Vehicle Dynamics Applied to Midsize Truck Design'
p3241
sL1368L
S'A New Mathematical Model for Geometric Tolerances as Applied to Axes'
p3242
sL1370L
S'Tolerance Synthesis of Mechanisms: A Robust Design Approach'
p3243
sL1371L
S'Development of a Design Reuse View of Cutting Tool Design Ontology'
p3244
sL1372L
S'A Study of Geometric Error Measurement of CNC Machine Tools Using the Improved Planar Encoder System'
p3245
sL1373L
S'Reducing Cycle Time and Errors in the Design and Layout of MEMS'
p3246
sL1374L
S'Approaches of Knowledge-Based Design'
p3247
sL1375L
S'A Methodology for the Study of the Effects of Communication Method on Design Review Effectiveness'
p3248
sL1376L
S'Development of Knowledge Based System to Facilitate Design of On-Board Car Safety Systems'
p3249
sL1377L
S'Shape Knowledge Indexing Using Invariant Shape Code'
p3250
sL1378L
S'Knowledge Management: A Concept Review'
p3251
sL1380L
S'A Design Alternatives Assessment and Management Approach'
p3252
sL1381L
S'Knowledge Intensive Collaborative Decision Support for Design Process'
p3253
sL1382L
S'A Knowledge-Supported System for Engineering Change Impact Analysis'
p3254
sL1383L
S'Design Optimization of a Vehicle B-Pillar Subjected to Roof Crush Using Mixed Reactive Taboo Search'
p3255
sL1384L
S'Design Optimization of Vehicle Structures for Crashworthiness Using Equivalent Mechanism Approximations'
p3256
sL1385L
S'Response Surface Methods and Pareto Optimization in Crashworthiness Design'
p3257
sL1386L
S'Parametric Design Sensitivity Analysis of High Frequency Structural-Acoustic Problems Using Energy Finite Element Method'
p3258
sL1387L
S'The Effect of Tempering (Artificial Aging) on the Crashworthiness Performance of Mass-Efficient Extruded Aluminum Structures'
p3259
sL1388L
S'Bayesian Approximation-Assisted Optimization Applied to Crashworthiness Design of a Pickup Truck'
p3260
sL1389L
S'Emerging Virtual Machine Tools'
p3261
sL1390L
S'Computer Model Validation in Vehicle Crash Safety Design'
p3262
sL1391L
S'Penalized Likelihood Kriging Model for Analysis of Computer Experiments'
p3263
sL1392L
S'Analysis of Support Vector Regression for Approximation of Complex Engineering Analyses'
p3264
sL1393L
S'An Efficient Algorithm for Constructing Optimal Design of Computer Experiments'
p3265
sL1394L
S'Introducing Rough Set for Design Space Exploration and Optimization'
p3266
sL1395L
S'A Study on the Use of Kriging Models to Approximate Deterministic Computer Models'
p3267
sL1396L
S'A New Global Optimization Method for Simultaneous Computation on Expensive Black-Box Functions'
p3268
sL1397L
S'Multidimensional Solution Clustering and Its Application to the Coolant Passage Optimization of a Turbine Blade'
p3269
sL1398L
S'Optimization of a Semi-Active Shock Absorber for Aircraft Landing Gear'
p3270
sL1399L
S'Towards a Conceptual Design Explorer Using Metamodeling Approaches and Constraint Programming'
p3271
sL1400L
S'A Study of Emission Policy Effects on Optimal Vehicle Design Decisions'
p3272
sL1401L
S'Level Set Models for Structural Topology Optimization'
p3273
sL1402L
S'Topology Optimization of Heat-Resistant Structures'
p3274
sL1403L
S'Topology Optimization of a Compliant Gripper Using Hybrid Simulated Annealing and Direct Search'
p3275
sL1404L
S'Topology Optimization and Dynamic Performance of a Bike Frame With Dampers'
p3276
sL1405L
S'Robust Topological Design of Cellular Materials'
p3277
sL1406L
S'Structural Topology Optimization Using Function-Oriented Elements Based on the Concept of First Order Analysis'
p3278
sL1407L
S'Design of Energy Absorbing Structure Using Topology Optimization With a Multi-Material Model'
p3279
sL1408L
S'Parameterization Strategy for Optimization of Shape Morphing Compliant Mechanisms Using Load Path Representation'
p3280
sL1409L
S'A Face Clustering Method for a Hexahedral Meshing'
p3281
sL1410L
S'A New Approach to Minimisations for Shape Control During Free-Form Surface Deformation'
p3282
sL1411L
S'Smoothing of Noisy Laser Scanner Generated Meshes Using Polynomial Fitting and Neighborhood Erosion'
p3283
sL1412L
S'Partitioning Positional and Normal Space for Fast Occlusion Detection'
p3284
sL1413L
S'Automatic Toolpath Generation for Multi-Axis Surface Machining in a Hybrid Manufacturing System'
p3285
sL1414L
S'A Taxonomy for Collaborative Design'
p3286
sL1415L
S'A Study of Convergence in Decentralized Design'
p3287
sL1416L
S'Port-Compatibility and Connectability Based Assembly Design'
p3288
sL1417L
S'A Concurrent Design Method for Multiple Cross-Sectional Automotive Body Frames Involving Discrete and Continuous Design Variables'
p3289
sL1418L
S'Design Space Visualization and Its Application to a Design by Shopping Paradigm'
p3290
sL1419L
S'Design Process Error-Proofing: Development of Automated Error-Proofing Information Systems'
p3291
sL1420L
S'Design Evaluation Method for Miniature Machine Tools Utilizing Form-Shaping Theory'
p3292
sL1421L
S'Design Shell for Parametric Design at Embodiment Stage'
p3293
sL1422L
S'Scenario Expression for Characterizing Failure Cases'
p3294
sL1423L
S'Design Methodology for the Thermal Packaging of Hybrid Electronic-Mechanical Products: A Case Study on the Berkeley Emulation Engine (BEE)'
p3295
sL1424L
S'A Modeling Method for Vibration Analysis of a Stator Frame of Turbine Generators and Its Application to a Design System: Vibration Analysis and Analysis System'
p3296
sL1425L
S'Strengthening of Bone Cement by Shape Optimization of Short Fibers'
p3297
sL1426L
S'Constraint Dominance Methods Applied to the Design of a Linear Motor'
p3298
sL1427L
S'Design Sensitivity Analysis of Nonlinear Shell Structure With Frictionless Contact'
p3299
sL1428L
S'Optimal Troubleshooting for Electro-Mechanical Systems'
p3300
sL1429L
S'Optimization for Mass Variation of System Including Shock Absorber'
p3301
sL1430L
S'Discretizing Continuous Problems for Faster Global Convergence'
p3302
sL1431L
S'Optimal Packaging of Tank Turret System'
p3303
sL1432L
S'Genetic Range Genetic Algorithms to Obtain Quasi-Optimum Solutions'
p3304
sL1433L
S'Optimization of Helicopter Air Intake Scoop Design'
p3305
sL1434L
S'A Study on Immune Algorithms Considering Interaction of Design With Environment Properties'
p3306
sL1435L
S'Optimizing Optimization for Design Optimization'
p3307
sL1436L
S'Generalized Random Tunneling Algorithm for Continuous Design Variables'
p3308
sL1437L
S'Improved Development Cycle of a Compliant Manipulator'
p3309
sL1438L
S'On Honeycomb Parameterization for Topology Optimization of Compliant Mechanisms'
p3310
sL1439L
S'On Design of Electro-Thermally Compliant MEMS for Strength'
p3311
sL1441L
S'Introduction to Compliant Long-Dwell Mechanism Synthesis Using Buckling Arc Theory'
p3312
sL1442L
S'Distributed Compliant Model for Efficient Dynamic Simulation of Systems With Frictional Contacts'
p3313
sL1443L
S'Suspension Synthesis for N:1 Roll Center Motion'
p3314
sL1444L
S'A Robust Solution to the Spherical Rigid-Body Guidance Problem'
p3315
sL1445L
S'Designing a Dexterous Reconfigurable Packaging System for Flexible Automation'
p3316
sL1446L
S'Kinematic Synthesis of RPS Serial Chains'
p3317
sL1447L
S'Approximate Motion Synthesis of Open and Closed Chains via Parametric Constraint Manifold Fitting: Preliminary Results'
p3318
sL1448L
S'Suggesting Joint Limitations and Physical Parameters for Motion Generating 3 DOF Planar Chains'
p3319
sL1449L
S'Geometric Design of Cylindric PRS Serial Chains'
p3320
sL1450L
S'On the Effects of Weights in Rational Motion Design'
p3321
sL1451L
S'Dimensional Synthesis of CRR Serial Chains'
p3322
sL1452L
S'Analytical Determination of Principal Twists and Singular Directions in Robot Manipulators'
p3323
sL1453L
S'Type Synthesis of Three-DOF Translational Parallel Mechanisms'
p3324
sL1454L
S'Forward Problem Singularities of Manipulators Which Become PS-2RS or 2PS-RS Structures When the Actuators Are Locked'
p3325
sL1455L
S'Singularity Analysis of a Novel 4-DOFs Parallel Robot H4 by Using Screw Theory'
p3326
sL1456L
S'Planar Translational Cable-Direct-Driven Robots: Hardware Implementation'
p3327
sL1457L
S'Interpolation Algorithm and Its Error Prediction of a Tripod-Based Parallel Kinematic Machine'
p3328
sL1458L
S'An Integrated Virtual Validation System for Parallel Kinematic Machine Analysis Design'
p3329
sL1459L
S'Design Optimization of 6-HTRT Parallel Robot Orientated on Workspace'
p3330
sL1460L
S'Cable-Based Metrology System for Sculpting Assistance'
p3331
sL1461L
S'Optimal Integration of Smart Actuators in the Structure of Serial and Parallel Robot Manipulators to Enhance Speed and Tracking Precision'
p3332
sL1462L
S'An XZ Micropositioning Mechanism (XZMM) With Out-of-Plane Translation'
p3333
sL1463L
S'Kinetic Analysis of Planar Frictionless Mechanisms Made Simple'
p3334
sL1464L
S'Computer Simulation of Path and Motion Generation With Six-Bar Linkage'
p3335
sL1465L
S'On the Existence of Special Cases of Input Speed Doubling Linkage Mechanisms'
p3336
sL1466L
S'The Radius of Curvature of a Coupler Curve of the Single Flier Eight-Bar Linkage'
p3337
sL1467L
S'An Analytical Comparison Between Ball and Crossed Roller Bearings for Utilization in Actuator Modules for Precision Modular Robots'
p3338
sL1468L
S'Influence of End-Effector Velocities on Robotic Manipulator Dynamic Performance: An Analytical Approach'
p3339
sL1469L
S'Analysis and Visualization of the Contact Force Solution Space for Multi-Limbed Mobile Robots With Three Feet Contact'
p3340
sL1470L
S'Choosing the Optimal Contact Force Distribution for Multi-Limbed Mobile Robots With Three Feet Contact'
p3341
sL1471L
S'An Articulated Body Algorithm for Modelling and Simulation of an Underwater Vehicle Equipped With Manipulator Arm'
p3342
sL1472L
S'On the Design of Nesting Forces for Exactly Constrained, Robust Mechanical Assemblies'
p3343
sL1473L
S'On the Robustness of Exactly Constrained Mechanical Assemblies'
p3344
sL1474L
S'Analysis of Multiple Equilibrium Positions in Magnetostatic Field'
p3345
sL1475L
S'On the Geometry of 3D Orientation Measurement Using a New Class of Wireless Angular Position Sensors'
p3346
sL1476L
S'Similarity and Equivalence of Nutating Mechanisms to Bevel Epicyclic Gear Trains'
p3347
sL1477L
S'Forward Kinematics of 3-GPR Planar Parallel Manipulators With Circular Rolling Contact Joints'
p3348
sL1478L
S'The Robust Design of a Two-Wheeled Quasiholonomic Mobile Robot'
p3349
sL1479L
S'Kinematics of Wheeled Mobile Robots With Toroidal Wheels on Uneven Terrain'
p3350
sL1480L
S'Design of a Self-Actuating, Traction Drive System for High-Speed Ratios'
p3351
sL1481L
S'Topology and Shape Optimization of an Interbody Fusion Implant for Lumbar Spine Fixation'
p3352
sL1482L
S'An Integrated Design Optimization Approach for Quantitative and Qualitative Search Space'
p3353
sL1483L
S'An Approach for Generating Variational Geometry of a Pattern of Holes With Composite Positional Tolerances'
p3354
sL1484L
S'Design Decision-Making in the Early Stages of Collaborative Engineering'
p3355
sL1486L
S'Identifying Variable Effects on the Dimensional Quality of Compliant Assembly, Using Computer Experiments'
p3356
sL1488L
S'Reconstructing Freeform Surface With Parameterized Features'
p3357
sL1489L
S'Analysis and Design of a Four-Bar Linkage Type of Vibratory Parts Feeder Driven by Piezoelectric Actuator'
p3358
sL1490L
S'Autogenetic Design Theory: An Approach to Optimise Both the Design Process and the Product'
p3359
sL1491L
S'Human Head Aesthetic Design Using Hybrid Genetic Algorithm'
p3360
sL1492L
S'Applying Universal Linking of Engineering Objects in the Automotive Industry: Practical Aspects, Benefits, and Prototypes'
p3361
sL1493L
S'Mini-Max Type Formulation of Strict Robust Design Optimization Under Correlative Variation'
p3362
sL1494L
S'Optimization of Machine System Designs Using Hierarchical Decomposition Based on Criteria Influence'
p3363
sL1495L
S'Lifecycle-Based Product Design Using Global Optimization Methods Based on Hierarchical Genotype Representation of Alternatives and Constraints'
p3364
sL1496L
S'Conceptual Design of Tool Storage Based on the Divergent Tree Method'
p3365
sL1497L
S'Comparison of Gradient and Non Gradient Based Methods for Crash Optimisation'
p3366
sL1498L
S'Computational Geometric Modeling and Unfolding of 3-D Folded Structures'
p3367
sL1499L
S'Performance Optimization of Extrusion Blow Molded Parts Using Fuzzy Neural-Taguchi Method and Genetic Algorithm'
p3368
sL1500L
S'An Evolutionary Clustering Approach to Pareto Solutions in Multiobjective Optimization'
p3369
sL1501L
S'Automatic Conceptual Design of Mechanical Devices Based on Reasoning the Design Rules'
p3370
sL1502L
S'A Study on Collaborative Design Considering Features of Design'
p3371
sL1503L
S'Reconfiguration of Kinematic Structure for Changing Motion Requirement Based on Reusability Evaluation in Lie Algebra'
p3372
sL1504L
S'A Study on Optimum Topology of Plate Structure Using Coordinate Transformation by Conformal Mapping'
p3373
sL1505L
S'Computer-Aided Analysis of Free Transverse-Vibration of Stepped Beams'
p3374
sL1506L
S'Thermal Robustness and Mass Optimization of Heat Pipe Shape for Spacecraft Panel Using a Combination of Response Surface Methodology and Monte Carlo Simulation'
p3375
sL1507L
S'Dual Stage Input Coupled Split Power Transmission Efficiency Optimization'
p3376
sL1508L
S'Informing Design Using Data Mining Methods'
p3377
sL1509L
S'Development of Multi-Stage and Hybrid Real-Coded Genetic Algorithms With Active Constraints'
p3378
sL1510L
S'Computational Recognition of Functional Parameters of Surfaces for the Kinematic Design of Window Regulator Systems'
p3379
sL1511L
S'Human Modelling: A Constraint-Based Feature Modelling Approach'
p3380
sL1512L
S'Analysis of Loads and Stresses for a Sewing Needle'
p3381
sL1513L
S'Artificial Immune System Based Isomorphism Identification Method for Mechanism Kinematics Chains'
p3382
sL1515L
S'Cross Model Shape Reuse: Copying and Pasting of Freeform Features'
p3383
sL1516L
S'Automated Design Synthesis for Micro-Electro-Mechanical Systems (MEMS)'
p3384
sL1517L
S'Use of Constrained Viscoelastic Layers in the Design of Satellite Panels to Predict the Amplification Factor'
p3385
sL1518L
S'Stiffness Testing of Hydraulic Hoses'
p3386
sL1519L
S'Finite Element Analysis in 3D Using the Penalty Boundary Method'
p3387
sL1520L
S'Integration of Commercial CAD/CAM System With Custom CAPP Using Orbix Middleware and CORBA Standard'
p3388
sL1521L
S'Counting Degrees of Freedom for Developable Bezier Surface Design'
p3389
sL1522L
S'Determination of Geometric Distortions in Automotive Lamps Using Non-Linear Parametric Estimations'
p3390
sL1523L
S'Macroscopic Shape-Information as a Curve Design-Guideline'
p3391
sL1524L
S'Collaborative Decision Making Across Digital Interfaces'
p3392
sL1525L
S'Local Least Squares Fitting for Surface Mesh Fairing in Automobile Panel Design'
p3393
sL1526L
S'A Stochastic Optimization Application for Vehicle Structures'
p3394
sL1527L
S'Math-Based Performance Evaluation of an Experimental Car: Side Impact Protection'
p3395
sL1528L
S'Model Reduction in Structural Analysis Using a Multiresolution Analysis'
p3396
sL1529L
S'A Web Enabled Process for Accessing Customized Parametric Designs'
p3397
sL1530L
S'Multiattribute Decision Making Using Hypothetical Equivalents'
p3398
sL1531L
S'Interactive Product Design Selection With an Implicit Value Function'
p3399
sL1532L
S'A Customer-Based Expected Utility Metric for Product Design Selection'
p3400
sL1533L
S'Empirical Analysis Using Advanced Similarity Methods'
p3401
sL1534L
S'Decomposition-Based Assembly Synthesis Based on Structural Stiffness Considerations'
p3402
sL1535L
S'An Analytical Approach to Functional Design'
p3403
sL1536L
S'Control, Design and Error Variables in Decomposition of Design Optimization Problems'
p3404
sL1537L
S'Decomposition-Based Assembly Synthesis for In-Process Dimensional Adjustability'
p3405
sL1538L
S'A Grammar-Based Approach to Sheet Metal Design'
p3406
sL1539L
S'Adaptive-Agent Based Simulation Model to Study Diffusion of Eco-Innovation Strategies'
p3407
sL1540L
S'A Knowledge-Based Approach to Spur Gear Fabrication in Precision Forging Process'
p3408
sL1541L
S'A Benchmark Comparison of Curvature Matched Machining versus Three- and Five-Axis Machining Methods Applied to Industrial Part Surfaces'
p3409
sL1542L
S'Adaptive Experimental Design Applied to Ergonomics Testing Procedure'
p3410
sL1543L
S'On Sequential Sampling for Global Metamodeling in Engineering Design'
p3411
sL1544L
S'Computer Implementation of an Improved Kutzbach-Grubler Mobility Criterion'
p3412
sL1545L
S'Modeling of Slope Discontinuities in Flexible Body Dynamics Using the Finite Element Method'
p3413
sL1546L
S'Design of Hierarchic Platforms for Customizable Products'
p3414
sL1547L
S'A Quantitative Approach for Designing Multiple Product Platforms for an Evolving Portfolio of Products'
p3415
sL1548L
S'Optimal Design Decisions in Product Portfolio Valuation'
p3416
sL1549L
S'Knowledge Intensive Support for Product Family Design'
p3417
sL1550L
S'Platform Selection Under Performance Loss Constraints in Optimal Design of Product Families'
p3418
sL1551L
S'Inverse Parametric Modeling From Independently Generated Product Data Sets'
p3419
sL1552L
S'A Hybrid Approach to Feature Recognition Using Approximate and Partial Exact CAD Models'
p3420
sL1553L
S'A Mesh Feature Paradigm for Rapid Generation of CAE-Based Design of Experiments Data'
p3421
sL1554L
S'Development of Adaptive Range Genetic Algorithms Considering Inheritance of Searching Range'
p3422
sL1555L
S'GA-Based Multi-Objective Fuzzy Matter-Element Optimization'
p3423
sL1556L
S'Using Genetic Algorithms With Niche Formation to Solve the Minimum Distance Problem Among Concave Objects'
p3424
sL1557L
S'A Genetic Algorithm Based Method for Product Family Design Optimization'
p3425
sL1558L
S'Shape Optimization of NURBS Modeled 3D C-Frames Using Hybrid Genetic Algorithm'
p3426
sL1559L
S'Robust Design Through the Use of a Hybrid Genetic Algorithm'
p3427
sL1560L
S'Nonlinear Kinematic Tolerance Analysis of Planar Higher Pairs'
p3428
sL1561L
S'Parameter Sensitivity in System Identification of Parallel Mechanisms'
p3429
sL1562L
S'A New Symbolic Method to Determine Base Inertia Parameters for General Spatial Mechanisms'
p3430
sL1563L
S'Redesign of a Spatial Gear Pair Using Configuration Spaces'
p3431
sL1564L
S'Error Sensitivity Analysis for Optimal Calibration of Parallel Kinematic Machines'
p3432
sL1565L
S'Development of an Interactive Web-Based Support System for Gear Design'
p3433
sL1566L
S'An Extensive Simplex Method Mapping the Global Feasibility'
p3434
sL1567L
S'Theoretical Evaluation of the Integrated Structure and Control Design Approach by Optimization Theory'
p3435
sL1568L
S'Finding the Shortest Path for Quality Assurance of Electric Components'
p3436
sL1569L
S'Development of an Automatic Design and Optimization System for Industrial Silencers'
p3437
sL1570L
S'Architectural Optimisation Using Real Options Theory and Dependency Structure Matrices'
p3438
sL1571L
S'Dynamic Analysis and Optimization of Tensioner in Automotive Serpentine Belt Drive Systems'
p3439
sL1572L
S'Configurable and Extensible System for Experimenting With Design Optimization'
p3440
sL1573L
S'On the Entropy of Multi-Objective Design Optimization Solution Sets'
p3441
sL1574L
S'A Sensitivity-Based Pattern Search Algorithm for 3D Component Layout'
p3442
sL1575L
S'Hybrid Approach for Containment Problems'
p3443
sL1576L
S'A Non-Deterministic Approach to Concept Selection Using S-Pareto Frontiers'
p3444
sL1577L
S'Sequential Optimization and Reliability Assessment Method for Efficient Probabilistic Design'
p3445
sL1578L
S'An Investigation of Nonlinearity of Reliability-Based Design Optimization Approaches'
p3446
sL1579L
S'New Concepts in Graphic Visualization of Objective Functions'
p3447
sL1580L
S'Visualization of Multidimensional Design and Optimization Data Using Cloud Visualization'
p3448
sL1581L
S'Design Optimization for Structural-Acoustic Problems Using FEM-BEM'
p3449
sL1583L
S'Dynamic Project Navigation: Modelling, Improving, and Review of Engineering Processes'
p3450
sL1584L
S'Benefit Evaluation of New Technologies'
p3451
sL1585L
S'Smart Assemblies for Robust Design: A Progress Report'
p3452
sL1587L
S'The Evolution of a Layered Manufacturing Interchange Format'
p3453
sL1588L
S'ModelAngelo: A Rapid Prototyping System for Polystyrene'
p3454
sL1589L
S'Automatic Process Planning of a Multi-Axis Hybrid Manufacturing System'
p3455
sL1590L
S'H-ISM: An Implementation of Heterogeneous Implicit Solid Modeling'
p3456
sL1591L
S'Model Validation via Uncertainty Propagation Using Response Surface Models'
p3457
sL1592L
S'Bayesian Evaluation of Engineering Models'
p3458
sL1593L
S'Uncertainty Analysis Using a Constraint Reliability Index'
p3459
sL1594L
S'A Tool Management System for Probabilistic Design Problems'
p3460
sL1595L
S'Evaluation of Conceptual Designs and Maintainability Incorporating Uncertainty'
p3461
sL1596L
S'Computer-Aided Fixture Design Verification: Part II -- Tolerance Analysis'
p3462
sL1597L
S'A Scheme for Transformation of Tolerance Specifications to Generalized Deviation Space for Use in Tolerance Synthesis and Analysis'
p3463
sL1598L
S'Topology Optimization of Compliant Mechanisms Using Evolutionary Algorithm With Design Geometry Encoded as a Graph'
p3464
sL1599L
S'Optimal Embedding in the Topology Design of Structures'
p3465
sL1600L
S'An Evolutionary Multi-Objective Optimization Approach to the Topology Optimization of Auxetic Structures'
p3466
sL1601L
S'Compliant Mechanism Design With Non-Linear Materials Using Topology Optimization'
p3467
sL1602L
S'An Interactive Virtual Environment for 3D Model Assembly With Video Immersion'
p3468
sL1603L
S'Modeling of Hydraulic Hose Paths'
p3469
sL1604L
S'Math-Based Performance Evaluation of an Experimental Car: Frontal Impact Crashworthiness'
p3470
ssb.