ccopy_reg
_reconstructor
p0
(c__main__
CitationNetwork
p1
c__builtin__
object
p2
Ntp3
Rp4
(dp5
S'network_dict'
p6
(dp7
L1219L
c__builtin__
set
p8
((lp9
tp10
Rp11
sL1220L
g8
((lp12
L1348L
aL1493L
atp13
Rp14
sL1221L
g8
((lp15
tp16
Rp17
sL1222L
g8
((lp18
tp19
Rp20
sL1223L
g8
((lp21
L1515L
atp22
Rp23
sL1224L
g8
((lp24
tp25
Rp26
sL1225L
g8
((lp27
tp28
Rp29
sL1226L
g8
((lp30
L1414L
atp31
Rp32
sL1228L
g8
((lp33
tp34
Rp35
sL1229L
g8
((lp36
tp37
Rp38
sL1230L
g8
((lp39
tp40
Rp41
sL1231L
g8
((lp42
tp43
Rp44
sL1232L
g8
((lp45
tp46
Rp47
sL1233L
g8
((lp48
L1398L
atp49
Rp50
sL1234L
g8
((lp51
tp52
Rp53
sL1236L
g8
((lp54
tp55
Rp56
sL1237L
g8
((lp57
tp58
Rp59
sL1238L
g8
((lp60
tp61
Rp62
sL1239L
g8
((lp63
L1239L
atp64
Rp65
sL1240L
g8
((lp66
tp67
Rp68
sL1241L
g8
((lp69
L1399L
atp70
Rp71
sL1242L
g8
((lp72
tp73
Rp74
sL1243L
g8
((lp75
L1553L
atp76
Rp77
sL1244L
g8
((lp78
tp79
Rp80
sL1245L
g8
((lp81
tp82
Rp83
sL1246L
g8
((lp84
tp85
Rp86
sL1247L
g8
((lp87
tp88
Rp89
sL1248L
g8
((lp90
L1352L
atp91
Rp92
sL1249L
g8
((lp93
tp94
Rp95
sL1250L
g8
((lp96
tp97
Rp98
sL1251L
g8
((lp99
L1349L
atp100
Rp101
sL1252L
g8
((lp102
L1368L
atp103
Rp104
sL1253L
g8
((lp105
L1540L
atp106
Rp107
sL1254L
g8
((lp108
tp109
Rp110
sL1255L
g8
((lp111
tp112
Rp113
sL1256L
g8
((lp114
tp115
Rp116
sL1257L
g8
((lp117
L1410L
atp118
Rp119
sL1258L
g8
((lp120
tp121
Rp122
sL1259L
g8
((lp123
tp124
Rp125
sL1260L
g8
((lp126
tp127
Rp128
sL1261L
g8
((lp129
L1422L
atp130
Rp131
sL1262L
g8
((lp132
L1376L
aL1382L
atp133
Rp134
sL1263L
g8
((lp135
tp136
Rp137
sL1264L
g8
((lp138
L1577L
aL1307L
aL1284L
aL1308L
aL1295L
atp139
Rp140
sL1265L
g8
((lp141
tp142
Rp143
sL1266L
g8
((lp144
tp145
Rp146
sL1267L
g8
((lp147
tp148
Rp149
sL1268L
g8
((lp150
tp151
Rp152
sL1269L
g8
((lp153
tp154
Rp155
sL1270L
g8
((lp156
L1353L
aL1547L
atp157
Rp158
sL1271L
g8
((lp159
L1395L
aL1543L
atp160
Rp161
sL1272L
g8
((lp162
L1362L
aL1534L
atp163
Rp164
sL1273L
g8
((lp165
tp166
Rp167
sL1274L
g8
((lp168
L1590L
atp169
Rp170
sL1275L
g8
((lp171
tp172
Rp173
sL1276L
g8
((lp174
tp175
Rp176
sL1277L
g8
((lp177
L1278L
atp178
Rp179
sL1278L
g8
((lp180
L1277L
atp181
Rp182
sL1279L
g8
((lp183
L1577L
aL1391L
aL1393L
atp184
Rp185
sL1280L
g8
((lp186
L1531L
atp187
Rp188
sL1281L
g8
((lp189
L1530L
atp190
Rp191
sL1282L
g8
((lp192
L1415L
atp193
Rp194
sL1283L
g8
((lp195
tp196
Rp197
sL1284L
g8
((lp198
L1264L
aL1577L
atp199
Rp200
sL1285L
g8
((lp201
tp202
Rp203
sL1286L
g8
((lp204
L1591L
atp205
Rp206
sL1287L
g8
((lp207
L1494L
atp208
Rp209
sL1288L
g8
((lp210
L1406L
atp211
Rp212
sL1289L
g8
((lp213
tp214
Rp215
sL1290L
g8
((lp216
L1422L
atp217
Rp218
sL1291L
g8
((lp219
tp220
Rp221
sL1292L
g8
((lp222
tp223
Rp224
sL1293L
g8
((lp225
L1489L
atp226
Rp227
sL1294L
g8
((lp228
tp229
Rp230
sL1295L
g8
((lp231
L1264L
aL1577L
aL1339L
aL1308L
atp232
Rp233
sL1296L
g8
((lp234
L1500L
atp235
Rp236
sL1297L
g8
((lp237
tp238
Rp239
sL1298L
g8
((lp240
tp241
Rp242
sL1299L
g8
((lp243
L1365L
atp244
Rp245
sL1300L
g8
((lp246
L1574L
atp247
Rp248
sL1301L
g8
((lp249
tp250
Rp251
sL1302L
g8
((lp252
L1400L
aL1548L
atp253
Rp254
sL1303L
g8
((lp255
tp256
Rp257
sL1304L
g8
((lp258
tp259
Rp260
sL1305L
g8
((lp261
L1541L
atp262
Rp263
sL1306L
g8
((lp264
tp265
Rp266
sL1307L
g8
((lp267
L1264L
aL1577L
aL1308L
atp268
Rp269
sL1308L
g8
((lp270
L1264L
aL1577L
aL1307L
aL1295L
atp271
Rp272
sL1309L
g8
((lp273
L1352L
aL1349L
atp274
Rp275
sL1310L
g8
((lp276
tp277
Rp278
sL1311L
g8
((lp279
L1516L
atp280
Rp281
sL1312L
g8
((lp282
tp283
Rp284
sL1313L
g8
((lp285
L1347L
aL1349L
aL1350L
aL1352L
aL1547L
aL1550L
atp286
Rp287
sL1315L
g8
((lp288
tp289
Rp290
sL1316L
g8
((lp291
L1577L
atp292
Rp293
sL1317L
g8
((lp294
L1411L
atp295
Rp296
sL1318L
g8
((lp297
tp298
Rp299
sL1319L
g8
((lp300
L1390L
atp301
Rp302
sL1320L
g8
((lp303
L1323L
atp304
Rp305
sL1321L
g8
((lp306
L1573L
atp307
Rp308
sL1322L
g8
((lp309
tp310
Rp311
sL1323L
g8
((lp312
L1320L
atp313
Rp314
sL1324L
g8
((lp315
tp316
Rp317
sL1325L
g8
((lp318
tp319
Rp320
sL1326L
g8
((lp321
tp322
Rp323
sL1327L
g8
((lp324
L1543L
atp325
Rp326
sL1328L
g8
((lp327
tp328
Rp329
sL1329L
g8
((lp330
tp331
Rp332
sL1330L
g8
((lp333
tp334
Rp335
sL1331L
g8
((lp336
tp337
Rp338
sL1332L
g8
((lp339
L1367L
atp340
Rp341
sL1333L
g8
((lp342
tp343
Rp344
sL1334L
g8
((lp345
tp346
Rp347
sL1335L
g8
((lp348
tp349
Rp350
sL1336L
g8
((lp351
tp352
Rp353
sL1337L
g8
((lp354
tp355
Rp356
sL1338L
g8
((lp357
tp358
Rp359
sL1339L
g8
((lp360
L1577L
aL1295L
atp361
Rp362
sL1340L
g8
((lp363
L1530L
aL1579L
aL1580L
atp364
Rp365
sL1341L
g8
((lp366
tp367
Rp368
sL1342L
g8
((lp369
L1577L
atp370
Rp371
sL1343L
g8
((lp372
L1577L
atp373
Rp374
sL1344L
g8
((lp375
tp376
Rp377
sL1345L
g8
((lp378
tp379
Rp380
sL1346L
g8
((lp381
tp382
Rp383
sL1347L
g8
((lp384
L1313L
atp385
Rp386
sL1348L
g8
((lp387
L1220L
aL1493L
atp388
Rp389
sL1349L
g8
((lp390
L1313L
aL1251L
aL1546L
aL1547L
aL1549L
aL1550L
aL1557L
aL1529L
aL1309L
atp391
Rp392
sL1350L
g8
((lp393
L1313L
atp394
Rp395
sL1351L
g8
((lp396
tp397
Rp398
sL1352L
g8
((lp399
L1248L
aL1313L
aL1309L
atp400
Rp401
sL1353L
g8
((lp402
L1547L
aL1548L
aL1270L
atp403
Rp404
sL1354L
g8
((lp405
tp406
Rp407
sL1355L
g8
((lp408
tp409
Rp410
sL1356L
g8
((lp411
tp412
Rp413
sL1357L
g8
((lp414
tp415
Rp416
sL1358L
g8
((lp417
L1589L
atp418
Rp419
sL1359L
g8
((lp420
tp421
Rp422
sL1360L
g8
((lp423
tp424
Rp425
sL1361L
g8
((lp426
L1537L
aL1534L
atp427
Rp428
sL1362L
g8
((lp429
L1272L
aL1534L
atp430
Rp431
sL1363L
g8
((lp432
tp433
Rp434
sL1364L
g8
((lp435
tp436
Rp437
sL1365L
g8
((lp438
L1299L
atp439
Rp440
sL1366L
g8
((lp441
L1548L
atp442
Rp443
sL1367L
g8
((lp444
L1332L
atp445
Rp446
sL1368L
g8
((lp447
L1252L
atp448
Rp449
sL1370L
g8
((lp450
tp451
Rp452
sL1371L
g8
((lp453
tp454
Rp455
sL1372L
g8
((lp456
tp457
Rp458
sL1373L
g8
((lp459
tp460
Rp461
sL1374L
g8
((lp462
tp463
Rp464
sL1375L
g8
((lp465
tp466
Rp467
sL1376L
g8
((lp468
L1262L
atp469
Rp470
sL1377L
g8
((lp471
L1515L
atp472
Rp473
sL1378L
g8
((lp474
tp475
Rp476
sL1380L
g8
((lp477
tp478
Rp479
sL1381L
g8
((lp480
L1524L
aL1549L
atp481
Rp482
sL1382L
g8
((lp483
L1262L
atp484
Rp485
sL1383L
g8
((lp486
tp487
Rp488
sL1384L
g8
((lp489
tp490
Rp491
sL1385L
g8
((lp492
tp493
Rp494
sL1386L
g8
((lp495
L1581L
atp496
Rp497
sL1387L
g8
((lp498
tp499
Rp500
sL1388L
g8
((lp501
tp502
Rp503
sL1389L
g8
((lp504
tp505
Rp506
sL1390L
g8
((lp507
L1319L
atp508
Rp509
sL1391L
g8
((lp510
L1393L
aL1279L
atp511
Rp512
sL1392L
g8
((lp513
tp514
Rp515
sL1393L
g8
((lp516
L1279L
aL1391L
atp517
Rp518
sL1394L
g8
((lp519
tp520
Rp521
sL1395L
g8
((lp522
L1271L
aL1543L
atp523
Rp524
sL1396L
g8
((lp525
tp526
Rp527
sL1397L
g8
((lp528
L1500L
atp529
Rp530
sL1398L
g8
((lp531
L1233L
atp532
Rp533
sL1399L
g8
((lp534
L1241L
atp535
Rp536
sL1400L
g8
((lp537
L1548L
aL1302L
atp538
Rp539
sL1401L
g8
((lp540
tp541
Rp542
sL1402L
g8
((lp543
tp544
Rp545
sL1403L
g8
((lp546
L1600L
atp547
Rp548
sL1404L
g8
((lp549
tp550
Rp551
sL1405L
g8
((lp552
tp553
Rp554
sL1406L
g8
((lp555
L1288L
atp556
Rp557
sL1407L
g8
((lp558
L1601L
atp559
Rp560
sL1408L
g8
((lp561
L1598L
atp562
Rp563
sL1409L
g8
((lp564
tp565
Rp566
sL1410L
g8
((lp567
L1257L
atp568
Rp569
sL1411L
g8
((lp570
L1525L
aL1317L
atp571
Rp572
sL1412L
g8
((lp573
tp574
Rp575
sL1413L
g8
((lp576
tp577
Rp578
sL1414L
g8
((lp579
L1226L
atp580
Rp581
sL1415L
g8
((lp582
L1282L
atp583
Rp584
sL1416L
g8
((lp585
tp586
Rp587
sL1417L
g8
((lp588
tp589
Rp590
sL1418L
g8
((lp591
tp592
Rp593
sL1419L
g8
((lp594
tp595
Rp596
sL1420L
g8
((lp597
tp598
Rp599
sL1421L
g8
((lp600
tp601
Rp602
sL1422L
g8
((lp603
L1290L
aL1261L
atp604
Rp605
sL1423L
g8
((lp606
tp607
Rp608
sL1424L
g8
((lp609
tp610
Rp611
sL1425L
g8
((lp612
tp613
Rp614
sL1426L
g8
((lp615
tp616
Rp617
sL1427L
g8
((lp618
tp619
Rp620
sL1428L
g8
((lp621
tp622
Rp623
sL1429L
g8
((lp624
tp625
Rp626
sL1430L
g8
((lp627
tp628
Rp629
sL1431L
g8
((lp630
tp631
Rp632
sL1432L
g8
((lp633
tp634
Rp635
sL1433L
g8
((lp636
tp637
Rp638
sL1434L
g8
((lp639
tp640
Rp641
sL1435L
g8
((lp642
tp643
Rp644
sL1436L
g8
((lp645
tp646
Rp647
sL1437L
g8
((lp648
tp649
Rp650
sL1438L
g8
((lp651
tp652
Rp653
sL1439L
g8
((lp654
tp655
Rp656
sL1441L
g8
((lp657
tp658
Rp659
sL1442L
g8
((lp660
tp661
Rp662
sL1443L
g8
((lp663
tp664
Rp665
sL1444L
g8
((lp666
tp667
Rp668
sL1445L
g8
((lp669
tp670
Rp671
sL1446L
g8
((lp672
L1449L
atp673
Rp674
sL1447L
g8
((lp675
tp676
Rp677
sL1448L
g8
((lp678
tp679
Rp680
sL1449L
g8
((lp681
L1446L
atp682
Rp683
sL1450L
g8
((lp684
tp685
Rp686
sL1451L
g8
((lp687
tp688
Rp689
sL1452L
g8
((lp690
tp691
Rp692
sL1453L
g8
((lp693
tp694
Rp695
sL1454L
g8
((lp696
tp697
Rp698
sL1455L
g8
((lp699
tp700
Rp701
sL1456L
g8
((lp702
tp703
Rp704
sL1457L
g8
((lp705
tp706
Rp707
sL1458L
g8
((lp708
tp709
Rp710
sL1459L
g8
((lp711
tp712
Rp713
sL1460L
g8
((lp714
tp715
Rp716
sL1461L
g8
((lp717
tp718
Rp719
sL1462L
g8
((lp720
tp721
Rp722
sL1463L
g8
((lp723
tp724
Rp725
sL1464L
g8
((lp726
tp727
Rp728
sL1465L
g8
((lp729
tp730
Rp731
sL1466L
g8
((lp732
tp733
Rp734
sL1467L
g8
((lp735
tp736
Rp737
sL1468L
g8
((lp738
tp739
Rp740
sL1469L
g8
((lp741
tp742
Rp743
sL1470L
g8
((lp744
tp745
Rp746
sL1471L
g8
((lp747
tp748
Rp749
sL1472L
g8
((lp750
tp751
Rp752
sL1473L
g8
((lp753
tp754
Rp755
sL1474L
g8
((lp756
tp757
Rp758
sL1475L
g8
((lp759
tp760
Rp761
sL1476L
g8
((lp762
tp763
Rp764
sL1477L
g8
((lp765
tp766
Rp767
sL1478L
g8
((lp768
tp769
Rp770
sL1479L
g8
((lp771
tp772
Rp773
sL1480L
g8
((lp774
tp775
Rp776
sL1481L
g8
((lp777
tp778
Rp779
sL1482L
g8
((lp780
tp781
Rp782
sL1483L
g8
((lp783
tp784
Rp785
sL1484L
g8
((lp786
tp787
Rp788
sL1486L
g8
((lp789
tp790
Rp791
sL1488L
g8
((lp792
tp793
Rp794
sL1489L
g8
((lp795
L1293L
atp796
Rp797
sL1490L
g8
((lp798
tp799
Rp800
sL1491L
g8
((lp801
tp802
Rp803
sL1492L
g8
((lp804
tp805
Rp806
sL1493L
g8
((lp807
L1348L
aL1220L
atp808
Rp809
sL1494L
g8
((lp810
L1287L
atp811
Rp812
sL1495L
g8
((lp813
tp814
Rp815
sL1496L
g8
((lp816
tp817
Rp818
sL1497L
g8
((lp819
tp820
Rp821
sL1498L
g8
((lp822
tp823
Rp824
sL1499L
g8
((lp825
tp826
Rp827
sL1500L
g8
((lp828
L1296L
aL1397L
atp829
Rp830
sL1501L
g8
((lp831
tp832
Rp833
sL1502L
g8
((lp834
tp835
Rp836
sL1503L
g8
((lp837
tp838
Rp839
sL1504L
g8
((lp840
tp841
Rp842
sL1505L
g8
((lp843
tp844
Rp845
sL1506L
g8
((lp846
tp847
Rp848
sL1507L
g8
((lp849
tp850
Rp851
sL1508L
g8
((lp852
tp853
Rp854
sL1509L
g8
((lp855
tp856
Rp857
sL1510L
g8
((lp858
tp859
Rp860
sL1511L
g8
((lp861
tp862
Rp863
sL1512L
g8
((lp864
tp865
Rp866
sL1513L
g8
((lp867
tp868
Rp869
sL1515L
g8
((lp870
L1377L
aL1223L
atp871
Rp872
sL1516L
g8
((lp873
L1311L
atp874
Rp875
sL1517L
g8
((lp876
tp877
Rp878
sL1518L
g8
((lp879
L1603L
atp880
Rp881
sL1519L
g8
((lp882
tp883
Rp884
sL1520L
g8
((lp885
tp886
Rp887
sL1521L
g8
((lp888
tp889
Rp890
sL1522L
g8
((lp891
tp892
Rp893
sL1523L
g8
((lp894
tp895
Rp896
sL1524L
g8
((lp897
L1381L
atp898
Rp899
sL1525L
g8
((lp900
L1411L
atp901
Rp902
sL1526L
g8
((lp903
tp904
Rp905
sL1527L
g8
((lp906
L1604L
atp907
Rp908
sL1528L
g8
((lp909
tp910
Rp911
sL1529L
g8
((lp912
L1349L
atp913
Rp914
sL1530L
g8
((lp915
L1281L
aL1340L
atp916
Rp917
sL1531L
g8
((lp918
L1280L
atp919
Rp920
sL1532L
g8
((lp921
tp922
Rp923
sL1533L
g8
((lp924
tp925
Rp926
sL1534L
g8
((lp927
L1272L
aL1361L
aL1362L
aL1534L
atp928
Rp929
sL1535L
g8
((lp930
tp931
Rp932
sL1536L
g8
((lp933
tp934
Rp935
sL1537L
g8
((lp936
L1361L
atp937
Rp938
sL1538L
g8
((lp939
tp940
Rp941
sL1539L
g8
((lp942
tp943
Rp944
sL1540L
g8
((lp945
L1253L
atp946
Rp947
sL1541L
g8
((lp948
L1305L
atp949
Rp950
sL1542L
g8
((lp951
tp952
Rp953
sL1543L
g8
((lp954
L1395L
aL1271L
aL1327L
atp955
Rp956
sL1544L
g8
((lp957
tp958
Rp959
sL1545L
g8
((lp960
tp961
Rp962
sL1546L
g8
((lp963
L1349L
atp964
Rp965
sL1547L
g8
((lp966
L1353L
aL1349L
aL1270L
aL1313L
atp967
Rp968
sL1548L
g8
((lp969
L1400L
aL1353L
aL1302L
aL1366L
atp970
Rp971
sL1549L
g8
((lp972
L1349L
aL1381L
atp973
Rp974
sL1550L
g8
((lp975
L1313L
aL1349L
atp976
Rp977
sL1551L
g8
((lp978
tp979
Rp980
sL1552L
g8
((lp981
tp982
Rp983
sL1553L
g8
((lp984
L1243L
atp985
Rp986
sL1554L
g8
((lp987
tp988
Rp989
sL1555L
g8
((lp990
tp991
Rp992
sL1556L
g8
((lp993
tp994
Rp995
sL1557L
g8
((lp996
L1349L
atp997
Rp998
sL1558L
g8
((lp999
tp1000
Rp1001
sL1559L
g8
((lp1002
tp1003
Rp1004
sL1560L
g8
((lp1005
tp1006
Rp1007
sL1561L
g8
((lp1008
tp1009
Rp1010
sL1562L
g8
((lp1011
tp1012
Rp1013
sL1563L
g8
((lp1014
tp1015
Rp1016
sL1564L
g8
((lp1017
tp1018
Rp1019
sL1565L
g8
((lp1020
tp1021
Rp1022
sL1566L
g8
((lp1023
tp1024
Rp1025
sL1567L
g8
((lp1026
tp1027
Rp1028
sL1568L
g8
((lp1029
tp1030
Rp1031
sL1569L
g8
((lp1032
tp1033
Rp1034
sL1570L
g8
((lp1035
tp1036
Rp1037
sL1571L
g8
((lp1038
tp1039
Rp1040
sL1572L
g8
((lp1041
tp1042
Rp1043
sL1573L
g8
((lp1044
L1321L
atp1045
Rp1046
sL1574L
g8
((lp1047
L1300L
atp1048
Rp1049
sL1575L
g8
((lp1050
tp1051
Rp1052
sL1576L
g8
((lp1053
tp1054
Rp1055
sL1577L
g8
((lp1056
L1307L
aL1316L
aL1295L
aL1264L
aL1343L
aL1284L
aL1339L
aL1308L
aL1342L
aL1279L
atp1057
Rp1058
sL1578L
g8
((lp1059
tp1060
Rp1061
sL1579L
g8
((lp1062
L1340L
atp1063
Rp1064
sL1580L
g8
((lp1065
L1340L
atp1066
Rp1067
sL1581L
g8
((lp1068
L1386L
atp1069
Rp1070
sL1583L
g8
((lp1071
tp1072
Rp1073
sL1584L
g8
((lp1074
tp1075
Rp1076
sL1585L
g8
((lp1077
tp1078
Rp1079
sL1587L
g8
((lp1080
tp1081
Rp1082
sL1588L
g8
((lp1083
tp1084
Rp1085
sL1589L
g8
((lp1086
L1358L
atp1087
Rp1088
sL1590L
g8
((lp1089
L1274L
atp1090
Rp1091
sL1591L
g8
((lp1092
L1286L
atp1093
Rp1094
sL1592L
g8
((lp1095
tp1096
Rp1097
sL1593L
g8
((lp1098
tp1099
Rp1100
sL1594L
g8
((lp1101
tp1102
Rp1103
sL1595L
g8
((lp1104
tp1105
Rp1106
sL1596L
g8
((lp1107
tp1108
Rp1109
sL1597L
g8
((lp1110
tp1111
Rp1112
sL1598L
g8
((lp1113
L1408L
atp1114
Rp1115
sL1599L
g8
((lp1116
tp1117
Rp1118
sL1600L
g8
((lp1119
L1403L
atp1120
Rp1121
sL1601L
g8
((lp1122
L1407L
atp1123
Rp1124
sL1602L
g8
((lp1125
tp1126
Rp1127
sL1603L
g8
((lp1128
L1518L
atp1129
Rp1130
sL1604L
g8
((lp1131
L1527L
atp1132
Rp1133
ssS'names'
p1134
(dp1135
L1219L
S'PDE-Driven Level Sets and Shape Sensitivity for Structural Topology Optimization'
p1136
sL1220L
S'An Efficient Feasibility Robust Optimization Method Using a Sensitivity Region Concept'
p1137
sL1221L
S'Numerical and Experimental Study of Shielding Gas Orientation Effects on Particle Stream Concentration Mode in Coaxial Laser Aided Material Deposition Process'
p1138
sL1222L
S'Analysis of Decomposability and Complexity for Design Problems in the Context of Decomposition'
p1139
sL1223L
S'Freeform Feature Retrieval by Signal Processing'
p1140
sL1224L
S'Covariance Modeling Method for Use in Compliant Assembly Tolerance Analysis'
p1141
sL1225L
S'A Product Ontology for Automotive Seat Specification'
p1142
sL1226L
S'Resistance Based Modeling of Collaborative Design'
p1143
sL1228L
S'An Optimization Study of the Ultrasonic Welding of Thin Film Polymers'
p1144
sL1229L
S'A Method to Solve Inverse Kinematics Problems Using Lie Algebra and Its Application to Robot Spray Painting Simulation'
p1145
sL1230L
S'Derivation of Design Guidelines for Miniature Machine Tools'
p1146
sL1231L
S'Automated Symmetry Exploitation in Engineering Analysis'
p1147
sL1232L
S'On the Design Synthesis of Multistable Equilibrium Systems'
p1148
sL1233L
S'Optimization of a Semi-Active Shock Absorber Using a Genetic Algorithm'
p1149
sL1234L
S'Concurrent Parameter Design Based on Constraint Network'
p1150
sL1236L
S'A Quantitative Analysis of the Evolution of Design Automation Conference Fields'
p1151
sL1237L
S'Optimization of Chemical Etching Process in Niobium Cavities'
p1152
sL1238L
S'An Efficient Weighting Update Method to Achieve Acceptable Consistency Deviation in Analytical Target Cascading'
p1153
sL1239L
S'A Comparison of Commonality Indices for Product Family Design'
p1154
sL1240L
S'A System Approach to Simulation-Based Design Under Uncertainty, Through Best in Class Simulation Process Integration and Design Optimization'
p1155
sL1241L
S'A Comparative Study of Constraint Programming Techniques Over Intervals in Preliminary Design'
p1156
sL1242L
S'Front Structure Design Procedure for Optimal Pedestrian Leg Impact Performance'
p1157
sL1243L
S'A Recursive, Line-Intersection Method for Finding the Area of a Mesh Projected Onto a Plane'
p1158
sL1244L
S'Task Scheduling of Parallel Development Projects Using Genetic Algorithms'
p1159
sL1245L
S'Dynamic Modeling and Simulation of Parallel Kinematic Machines'
p1160
sL1246L
S'DRed and Design Folders: A Way of Capturing, Storing and Passing On Knowledge Generated During Design Projects'
p1161
sL1247L
S'Identifying and Tracking Features in Freeform Shape'
p1162
sL1248L
S'Development of a Production Cost Estimation Framework for Product Family Design'
p1163
sL1249L
S'Modeling and Design of Materials for Controlled Wave Propagation in Plane Grid Structures'
p1164
sL1250L
S'An Efficient Pareto Set Identification Approach for Multi-Objective Optimization on Black-Box Functions'
p1165
sL1251L
S'Ant Colony Optimization Method for Product Platform Formation'
p1166
sL1252L
S'The Effects of Different Specifications on the Tolerance-Maps for an Angled Face'
p1167
sL1253L
S'Development of Process Optimization for an Intelligent Knowledge-Based System for Spur Gear Precision Forging Die Design'
p1168
sL1254L
S'Global Stiffness Improvement for Tricept Machine Tools Family'
p1169
sL1255L
S'A Parametric Approach to Vehicle Seating Buck Design'
p1170
sL1256L
S'Parameter and Tolerance Constraints Modeling for Assembly'
p1171
sL1257L
S'Fully Free-Form Deformation Features Incorporating Discontinuities'
p1172
sL1258L
S'Design of Components With Optimized Microstructure'
p1173
sL1259L
S'An Integrated Design Support Environment for a Micro-Scale Portable Absorption Cooling System'
p1174
sL1260L
S'A Conceptual Design Synthesis Framework for Micro-Electro-Mechanical Systems (MEMS)'
p1175
sL1261L
S'A Survey of the Study of Failure'
p1176
sL1262L
S'A Knowledge-Based System for Change Impact Analysis'
p1177
sL1263L
S'Evaluation Method for the Topological Synthesis of Sheet Metal Components'
p1178
sL1264L
S'A Single-Loop Method for Reliability-Based Design Optimization'
p1179
sL1265L
S'Geometric Design of Uniform Developable B-Spline Surfaces'
p1180
sL1266L
S'Creative Design, Issues and Strategies'
p1181
sL1267L
S'A Saddlepoint Approximation Method for Uncertainty Analysis'
p1182
sL1268L
S'Geometric Containment Analysis for Rotational Parts'
p1183
sL1269L
S'Integrating Freeform and Feature-Based Fitting Methods'
p1184
sL1270L
S'A Systems Framework for Platform Architecture Analysis'
p1185
sL1271L
S'On the Use of Kriging Models to Approximate Deterministic Computer Models'
p1186
sL1272L
S'Decomposition-Based Assembly Synthesis of Space Frame Structures Using Joint Library'
p1187
sL1273L
S'A New Approach for Simultaneous Shape and Topology Optimization Based on Implicit Topology Description Functions'
p1188
sL1274L
S'On Electrochemical Deposition for Layered Manufacturing'
p1189
sL1275L
S'Robustness and Performance Optimization of Engine Bearing System Using Computer Model and Surrogate Noise'
p1190
sL1276L
S'Design Optimization of Enclosed Liquid Containers With Baffles for Sloshing and Impact'
p1191
sL1277L
S'Design for Project Change Management: Part 1 -- Configuration Design'
p1192
sL1278L
S'Design for Project Change Management: Part 2 -- Attribute Design'
p1193
sL1279L
S'Moment Matching for Sensitivity Analysis of Probabilistic Model Output'
p1194
sL1280L
S'Product Design Selection With Variability in Preferences for an Implicit Value Function'
p1195
sL1281L
S'A Formal Approach to Handling Conflicts in Multiattribute Group Decision Making'
p1196
sL1282L
S'Convergence and Stability in Distributed Design of Large Systems'
p1197
sL1283L
S'Transient Root Cause Analysis: A Model-Based Systems Engineering Methodology'
p1198
sL1284L
S'Design Optimization of Hierarchically Decomposed Multilevel Systems Under Uncertainty'
p1199
sL1285L
S'Purely Declarative Feature-Based Design With Feature Type Property Maintenance'
p1200
sL1286L
S'A Weighted Three-Point-Based Strategy for Variance Estimation'
p1201
sL1287L
S'Hierarchical Arrangement of Characteristics in Product Design Optimization Problems for Deeper Insight Into Optimized Results'
p1202
sL1288L
S'A Method for Determining the Optimal Direction of the Principal Moment of Inertia in Frame Element Cross-Sections'
p1203
sL1289L
S'A Collaborative Rapid Analysis Method for Decision-Making in Assembly Line Design'
p1204
sL1290L
S'Text and Illustration Based Scenario Expressions for Conveying Failure Knowledge'
p1205
sL1291L
S'Variant Design Automation: Strategy and Procedure for Storing Design Process Information'
p1206
sL1292L
S'A Process-Oriented Approach for Management of Product Configuration Models'
p1207
sL1293L
S'Design of a Bimorph Driven Meander-Line Structure for Parts Feeder Application'
p1208
sL1294L
S'Optimisation and Robust Design in Aero Engine Development'
p1209
sL1295L
S'Decoupled and Single Loop Methods for Reliability-Based Optimization and Robust Design'
p1210
sL1296L
S'An Integrated Robust Design and Marketing Approach for Product Design Selection Process'
p1211
sL1297L
S'A CAD Package for High-Speed Cam Design Based on Direct Multiple Shooting Optimal Control Techniques'
p1212
sL1298L
S'A Fuzzy Dynamic Programming Approach for Mixed-Discrete Multistage Decision Processes'
p1213
sL1299L
S'Structural Topology Optimization Under Impact Loads Using Beam Ground Structures'
p1214
sL1300L
S'Objective Function Based Pattern Search: A Computationally Efficient Algorithm for 3D Component Layout'
p1215
sL1301L
S'Toward an Information Management Infrastructure for Product Family Planning and Mass Customization'
p1216
sL1302L
S'Application of Math-Based Marketing and Financial Tools in an Automated Parametric Design Framework'
p1217
sL1303L
S'An Information Theoretical Perspective on Design Optimization'
p1218
sL1304L
S'Economics of Sacrificial Fixturing for CNC Machining and Rapid Manufacturing'
p1219
sL1305L
S'A Benchmark Comparison of CAD 5-Axis Machining Packages'
p1220
sL1306L
S'A Comparative Study of Optimal Design for an Inkjet Printer Tube With and Without Performance Variations'
p1221
sL1307L
S'Reliability-Based Design Optimization Methods'
p1222
sL1308L
S'A Reliability-Based Design Method Using Simulation Techniques and Efficient Optimization Approach'
p1223
sL1309L
S'Assessing Product Architecture Costing: Product Life Cycles, Allocation Rules, and Cost Models'
p1224
sL1310L
S'Unified Distance Queries in a Heterogeneous Model Environment'
p1225
sL1311L
S'The Role of Constraints and Human Interaction in Evolving MEMS Designs: Microresonator Case Study'
p1226
sL1312L
S'Two-Level Approximation Method for Reliability-Based Design Optimization'
p1227
sL1313L
S'Product Platform Design Through Sensitivity Analysis and Cluster Analysis'
p1228
sL1315L
S'A Full Parametric Model for Turbomachinery Blade Design and Optimisation'
p1229
sL1316L
S'The Performance Moment Integration Method for Reliability-Based Robust Design Optimization'
p1230
sL1317L
S'Segmentation of Noisy Laser-Scanner Generated Meshes With Piecewise Polynomial Approximations'
p1231
sL1318L
S'Solid Modeler Evaluation and Comparison Cycle: A Methodology for Optimum Selection of Modeling Software'
p1232
sL1319L
S'Vehicle Structure Optimization for Crash Pulse'
p1233
sL1320L
S'Analytical Variance-Based Global Sensitivity Analysis in Simulation-Based Design Under Uncertainty'
p1234
sL1321L
S'Building Surrogate Models Based on Detailed and Approximate Simulations'
p1235
sL1322L
S'Graphical Modeling Environment and Supporting Framework for Function-Based Conceptual Design'
p1236
sL1323L
S'Relative Entropy Based Method for Global and Regional Sensitivity Analysis in Probabilistic Design'
p1237
sL1324L
S'A Haptic System for Virtual Prototyping of Polygonal Models'
p1238
sL1325L
S'Influence of Group Cohesion and Information Sharing on Effectiveness of Design Review'
p1239
sL1326L
S'Development of a J2EE Web Application for STEP-Based Design Conformance Checking'
p1240
sL1327L
S'A Sequential Exploratory Experimental Design Method: Development of Appropriate Empirical Models in Design'
p1241
sL1328L
S'Applicability of Design Spaces to Utilize Current Assembly Plant Resources to Produce New Product Family Members'
p1242
sL1329L
S'A Sketch-Based Interface for the Design and Analysis of Simple Vibratory Mechanical Systems'
p1243
sL1330L
S'Trim Loop Closure for Enhanced CAD Interoperability'
p1244
sL1331L
S'Haptically Guided Filtering for Reverse Engineering'
p1245
sL1332L
S'Design Configuration of Vehicle With Domain Knowledge Enhancement'
p1246
sL1333L
S'An Exploration-Estimation Algorithm for Synthesis and Analysis of Engineering Systems Using Minimal Physical Testing'
p1247
sL1334L
S'Quantifying Profit and Loss Associated With Failure Cases'
p1248
sL1335L
S'Using the Compromise Decision Support Problem in Microsystem Design: A Formulation for a Miniature Parylene Gas Chromatographic Column'
p1249
sL1336L
S'Improved Disassembly Matrices for Disassembly Processes'
p1250
sL1337L
S'Design Under Uncertainty Using Monte Carlo Simulation and Probabilistic Sufficiency Factor'
p1251
sL1338L
S'A Cross-Evaluation Matrix (CEM) Rating Based Approach to Pareto Efficient Frontier and Design Alternatives Enumeration'
p1252
sL1339L
S'An Integrated Framework for Probabilistic Optimization Using Inverse Reliability Strategy'
p1253
sL1340L
S'An Approach to Robust Multiattribute Concept Selection'
p1254
sL1341L
S'An Indicator Response Surface-Based Monte Carlo Method for Efficient Component and System Reliability Analysis'
p1255
sL1342L
S'Reliability-Based Design With the Mixture of Random and Interval Variables'
p1256
sL1343L
S'Application of the Sequential Optimization and Reliability Assessment Method to Structural Design Problems'
p1257
sL1344L
S'Structural Durability Design Optimization and Its Reliability Assessment'
p1258
sL1345L
S'Incorporating Epistemic Uncertainty in Robust Design'
p1259
sL1346L
S'Robust Optimization of an Automotive Valvetrain Using a Multiobjective Genetic Algorithm'
p1260
sL1347L
S'Robust Design Using Preference Aggregation Methods'
p1261
sL1348L
S'Non-Gradient Based Parameter Sensitivity Estimation for Robust Design Optimization'
p1262
sL1349L
S'Product Platform Design and Optimization: Status and Promise'
p1263
sL1350L
S'Optimal Design Methodology of Common Components for a Class of Products: Its Foundations and Promise'
p1264
sL1351L
S'Internet Based Framework to Perform Automated FEA on User Customized Products'
p1265
sL1352L
S'Production Cost Modeling to Support Product Family Design Optimization'
p1266
sL1353L
S'Product Family and Platform Portfolio Optimization'
p1267
sL1354L
S'Dimensional Adjustment for Assemblability of Rapid Protoyped Parts'
p1268
sL1355L
S'WirePATH Rapid Tooling Process and Supporting Software Development'
p1269
sL1356L
S'Layered Manufacturing by Electrophotographic Printing'
p1270
sL1357L
S'Towards Automated Design of Multi-Piece Permanent Molds'
p1271
sL1358L
S'Toward Automatic Process Planning of a Multi-Axis Hybrid Laser Aided Manufacturing System: Skeleton-Based Offset Edge Generation'
p1272
sL1359L
S'Extracting Freeform Shape Information by Template Fitting'
p1273
sL1360L
S'Extended Hierarchical Cluster Analysis for the Decomposition of Complex Design Problems'
p1274
sL1361L
S'Assembly Synthesis With Subassembly Partitioning for Optimal In-Process Dimensional Adjustability'
p1275
sL1362L
S'Topology Optimization of Multi-Component Structures via Decomposition-Based Assembly Synthesis'
p1276
sL1363L
S'Quantitative Exploratory Techniques to Simplify Multiple Objectives in Product Design Optimization'
p1277
sL1364L
S'Multi-Objective Optimisation of Ship Hull With Distributed Applications'
p1278
sL1365L
S'Structural Topology Design Optimization for Controlled Crash Behavior'
p1279
sL1366L
S'Analytical Target Setting: An Enterprise Context in Optimal Product Design'
p1280
sL1367L
S'Multi-Objective Configuration Optimization With Vehicle Dynamics Applied to Midsize Truck Design'
p1281
sL1368L
S'A New Mathematical Model for Geometric Tolerances as Applied to Axes'
p1282
sL1370L
S'Tolerance Synthesis of Mechanisms: A Robust Design Approach'
p1283
sL1371L
S'Development of a Design Reuse View of Cutting Tool Design Ontology'
p1284
sL1372L
S'A Study of Geometric Error Measurement of CNC Machine Tools Using the Improved Planar Encoder System'
p1285
sL1373L
S'Reducing Cycle Time and Errors in the Design and Layout of MEMS'
p1286
sL1374L
S'Approaches of Knowledge-Based Design'
p1287
sL1375L
S'A Methodology for the Study of the Effects of Communication Method on Design Review Effectiveness'
p1288
sL1376L
S'Development of Knowledge Based System to Facilitate Design of On-Board Car Safety Systems'
p1289
sL1377L
S'Shape Knowledge Indexing Using Invariant Shape Code'
p1290
sL1378L
S'Knowledge Management: A Concept Review'
p1291
sL1380L
S'A Design Alternatives Assessment and Management Approach'
p1292
sL1381L
S'Knowledge Intensive Collaborative Decision Support for Design Process'
p1293
sL1382L
S'A Knowledge-Supported System for Engineering Change Impact Analysis'
p1294
sL1383L
S'Design Optimization of a Vehicle B-Pillar Subjected to Roof Crush Using Mixed Reactive Taboo Search'
p1295
sL1384L
S'Design Optimization of Vehicle Structures for Crashworthiness Using Equivalent Mechanism Approximations'
p1296
sL1385L
S'Response Surface Methods and Pareto Optimization in Crashworthiness Design'
p1297
sL1386L
S'Parametric Design Sensitivity Analysis of High Frequency Structural-Acoustic Problems Using Energy Finite Element Method'
p1298
sL1387L
S'The Effect of Tempering (Artificial Aging) on the Crashworthiness Performance of Mass-Efficient Extruded Aluminum Structures'
p1299
sL1388L
S'Bayesian Approximation-Assisted Optimization Applied to Crashworthiness Design of a Pickup Truck'
p1300
sL1389L
S'Emerging Virtual Machine Tools'
p1301
sL1390L
S'Computer Model Validation in Vehicle Crash Safety Design'
p1302
sL1391L
S'Penalized Likelihood Kriging Model for Analysis of Computer Experiments'
p1303
sL1392L
S'Analysis of Support Vector Regression for Approximation of Complex Engineering Analyses'
p1304
sL1393L
S'An Efficient Algorithm for Constructing Optimal Design of Computer Experiments'
p1305
sL1394L
S'Introducing Rough Set for Design Space Exploration and Optimization'
p1306
sL1395L
S'A Study on the Use of Kriging Models to Approximate Deterministic Computer Models'
p1307
sL1396L
S'A New Global Optimization Method for Simultaneous Computation on Expensive Black-Box Functions'
p1308
sL1397L
S'Multidimensional Solution Clustering and Its Application to the Coolant Passage Optimization of a Turbine Blade'
p1309
sL1398L
S'Optimization of a Semi-Active Shock Absorber for Aircraft Landing Gear'
p1310
sL1399L
S'Towards a Conceptual Design Explorer Using Metamodeling Approaches and Constraint Programming'
p1311
sL1400L
S'A Study of Emission Policy Effects on Optimal Vehicle Design Decisions'
p1312
sL1401L
S'Level Set Models for Structural Topology Optimization'
p1313
sL1402L
S'Topology Optimization of Heat-Resistant Structures'
p1314
sL1403L
S'Topology Optimization of a Compliant Gripper Using Hybrid Simulated Annealing and Direct Search'
p1315
sL1404L
S'Topology Optimization and Dynamic Performance of a Bike Frame With Dampers'
p1316
sL1405L
S'Robust Topological Design of Cellular Materials'
p1317
sL1406L
S'Structural Topology Optimization Using Function-Oriented Elements Based on the Concept of First Order Analysis'
p1318
sL1407L
S'Design of Energy Absorbing Structure Using Topology Optimization With a Multi-Material Model'
p1319
sL1408L
S'Parameterization Strategy for Optimization of Shape Morphing Compliant Mechanisms Using Load Path Representation'
p1320
sL1409L
S'A Face Clustering Method for a Hexahedral Meshing'
p1321
sL1410L
S'A New Approach to Minimisations for Shape Control During Free-Form Surface Deformation'
p1322
sL1411L
S'Smoothing of Noisy Laser Scanner Generated Meshes Using Polynomial Fitting and Neighborhood Erosion'
p1323
sL1412L
S'Partitioning Positional and Normal Space for Fast Occlusion Detection'
p1324
sL1413L
S'Automatic Toolpath Generation for Multi-Axis Surface Machining in a Hybrid Manufacturing System'
p1325
sL1414L
S'A Taxonomy for Collaborative Design'
p1326
sL1415L
S'A Study of Convergence in Decentralized Design'
p1327
sL1416L
S'Port-Compatibility and Connectability Based Assembly Design'
p1328
sL1417L
S'A Concurrent Design Method for Multiple Cross-Sectional Automotive Body Frames Involving Discrete and Continuous Design Variables'
p1329
sL1418L
S'Design Space Visualization and Its Application to a Design by Shopping Paradigm'
p1330
sL1419L
S'Design Process Error-Proofing: Development of Automated Error-Proofing Information Systems'
p1331
sL1420L
S'Design Evaluation Method for Miniature Machine Tools Utilizing Form-Shaping Theory'
p1332
sL1421L
S'Design Shell for Parametric Design at Embodiment Stage'
p1333
sL1422L
S'Scenario Expression for Characterizing Failure Cases'
p1334
sL1423L
S'Design Methodology for the Thermal Packaging of Hybrid Electronic-Mechanical Products: A Case Study on the Berkeley Emulation Engine (BEE)'
p1335
sL1424L
S'A Modeling Method for Vibration Analysis of a Stator Frame of Turbine Generators and Its Application to a Design System: Vibration Analysis and Analysis System'
p1336
sL1425L
S'Strengthening of Bone Cement by Shape Optimization of Short Fibers'
p1337
sL1426L
S'Constraint Dominance Methods Applied to the Design of a Linear Motor'
p1338
sL1427L
S'Design Sensitivity Analysis of Nonlinear Shell Structure With Frictionless Contact'
p1339
sL1428L
S'Optimal Troubleshooting for Electro-Mechanical Systems'
p1340
sL1429L
S'Optimization for Mass Variation of System Including Shock Absorber'
p1341
sL1430L
S'Discretizing Continuous Problems for Faster Global Convergence'
p1342
sL1431L
S'Optimal Packaging of Tank Turret System'
p1343
sL1432L
S'Genetic Range Genetic Algorithms to Obtain Quasi-Optimum Solutions'
p1344
sL1433L
S'Optimization of Helicopter Air Intake Scoop Design'
p1345
sL1434L
S'A Study on Immune Algorithms Considering Interaction of Design With Environment Properties'
p1346
sL1435L
S'Optimizing Optimization for Design Optimization'
p1347
sL1436L
S'Generalized Random Tunneling Algorithm for Continuous Design Variables'
p1348
sL1437L
S'Improved Development Cycle of a Compliant Manipulator'
p1349
sL1438L
S'On Honeycomb Parameterization for Topology Optimization of Compliant Mechanisms'
p1350
sL1439L
S'On Design of Electro-Thermally Compliant MEMS for Strength'
p1351
sL1441L
S'Introduction to Compliant Long-Dwell Mechanism Synthesis Using Buckling Arc Theory'
p1352
sL1442L
S'Distributed Compliant Model for Efficient Dynamic Simulation of Systems With Frictional Contacts'
p1353
sL1443L
S'Suspension Synthesis for N:1 Roll Center Motion'
p1354
sL1444L
S'A Robust Solution to the Spherical Rigid-Body Guidance Problem'
p1355
sL1445L
S'Designing a Dexterous Reconfigurable Packaging System for Flexible Automation'
p1356
sL1446L
S'Kinematic Synthesis of RPS Serial Chains'
p1357
sL1447L
S'Approximate Motion Synthesis of Open and Closed Chains via Parametric Constraint Manifold Fitting: Preliminary Results'
p1358
sL1448L
S'Suggesting Joint Limitations and Physical Parameters for Motion Generating 3 DOF Planar Chains'
p1359
sL1449L
S'Geometric Design of Cylindric PRS Serial Chains'
p1360
sL1450L
S'On the Effects of Weights in Rational Motion Design'
p1361
sL1451L
S'Dimensional Synthesis of CRR Serial Chains'
p1362
sL1452L
S'Analytical Determination of Principal Twists and Singular Directions in Robot Manipulators'
p1363
sL1453L
S'Type Synthesis of Three-DOF Translational Parallel Mechanisms'
p1364
sL1454L
S'Forward Problem Singularities of Manipulators Which Become PS-2RS or 2PS-RS Structures When the Actuators Are Locked'
p1365
sL1455L
S'Singularity Analysis of a Novel 4-DOFs Parallel Robot H4 by Using Screw Theory'
p1366
sL1456L
S'Planar Translational Cable-Direct-Driven Robots: Hardware Implementation'
p1367
sL1457L
S'Interpolation Algorithm and Its Error Prediction of a Tripod-Based Parallel Kinematic Machine'
p1368
sL1458L
S'An Integrated Virtual Validation System for Parallel Kinematic Machine Analysis Design'
p1369
sL1459L
S'Design Optimization of 6-HTRT Parallel Robot Orientated on Workspace'
p1370
sL1460L
S'Cable-Based Metrology System for Sculpting Assistance'
p1371
sL1461L
S'Optimal Integration of Smart Actuators in the Structure of Serial and Parallel Robot Manipulators to Enhance Speed and Tracking Precision'
p1372
sL1462L
S'An XZ Micropositioning Mechanism (XZMM) With Out-of-Plane Translation'
p1373
sL1463L
S'Kinetic Analysis of Planar Frictionless Mechanisms Made Simple'
p1374
sL1464L
S'Computer Simulation of Path and Motion Generation With Six-Bar Linkage'
p1375
sL1465L
S'On the Existence of Special Cases of Input Speed Doubling Linkage Mechanisms'
p1376
sL1466L
S'The Radius of Curvature of a Coupler Curve of the Single Flier Eight-Bar Linkage'
p1377
sL1467L
S'An Analytical Comparison Between Ball and Crossed Roller Bearings for Utilization in Actuator Modules for Precision Modular Robots'
p1378
sL1468L
S'Influence of End-Effector Velocities on Robotic Manipulator Dynamic Performance: An Analytical Approach'
p1379
sL1469L
S'Analysis and Visualization of the Contact Force Solution Space for Multi-Limbed Mobile Robots With Three Feet Contact'
p1380
sL1470L
S'Choosing the Optimal Contact Force Distribution for Multi-Limbed Mobile Robots With Three Feet Contact'
p1381
sL1471L
S'An Articulated Body Algorithm for Modelling and Simulation of an Underwater Vehicle Equipped With Manipulator Arm'
p1382
sL1472L
S'On the Design of Nesting Forces for Exactly Constrained, Robust Mechanical Assemblies'
p1383
sL1473L
S'On the Robustness of Exactly Constrained Mechanical Assemblies'
p1384
sL1474L
S'Analysis of Multiple Equilibrium Positions in Magnetostatic Field'
p1385
sL1475L
S'On the Geometry of 3D Orientation Measurement Using a New Class of Wireless Angular Position Sensors'
p1386
sL1476L
S'Similarity and Equivalence of Nutating Mechanisms to Bevel Epicyclic Gear Trains'
p1387
sL1477L
S'Forward Kinematics of 3-GPR Planar Parallel Manipulators With Circular Rolling Contact Joints'
p1388
sL1478L
S'The Robust Design of a Two-Wheeled Quasiholonomic Mobile Robot'
p1389
sL1479L
S'Kinematics of Wheeled Mobile Robots With Toroidal Wheels on Uneven Terrain'
p1390
sL1480L
S'Design of a Self-Actuating, Traction Drive System for High-Speed Ratios'
p1391
sL1481L
S'Topology and Shape Optimization of an Interbody Fusion Implant for Lumbar Spine Fixation'
p1392
sL1482L
S'An Integrated Design Optimization Approach for Quantitative and Qualitative Search Space'
p1393
sL1483L
S'An Approach for Generating Variational Geometry of a Pattern of Holes With Composite Positional Tolerances'
p1394
sL1484L
S'Design Decision-Making in the Early Stages of Collaborative Engineering'
p1395
sL1486L
S'Identifying Variable Effects on the Dimensional Quality of Compliant Assembly, Using Computer Experiments'
p1396
sL1488L
S'Reconstructing Freeform Surface With Parameterized Features'
p1397
sL1489L
S'Analysis and Design of a Four-Bar Linkage Type of Vibratory Parts Feeder Driven by Piezoelectric Actuator'
p1398
sL1490L
S'Autogenetic Design Theory: An Approach to Optimise Both the Design Process and the Product'
p1399
sL1491L
S'Human Head Aesthetic Design Using Hybrid Genetic Algorithm'
p1400
sL1492L
S'Applying Universal Linking of Engineering Objects in the Automotive Industry: Practical Aspects, Benefits, and Prototypes'
p1401
sL1493L
S'Mini-Max Type Formulation of Strict Robust Design Optimization Under Correlative Variation'
p1402
sL1494L
S'Optimization of Machine System Designs Using Hierarchical Decomposition Based on Criteria Influence'
p1403
sL1495L
S'Lifecycle-Based Product Design Using Global Optimization Methods Based on Hierarchical Genotype Representation of Alternatives and Constraints'
p1404
sL1496L
S'Conceptual Design of Tool Storage Based on the Divergent Tree Method'
p1405
sL1497L
S'Comparison of Gradient and Non Gradient Based Methods for Crash Optimisation'
p1406
sL1498L
S'Computational Geometric Modeling and Unfolding of 3-D Folded Structures'
p1407
sL1499L
S'Performance Optimization of Extrusion Blow Molded Parts Using Fuzzy Neural-Taguchi Method and Genetic Algorithm'
p1408
sL1500L
S'An Evolutionary Clustering Approach to Pareto Solutions in Multiobjective Optimization'
p1409
sL1501L
S'Automatic Conceptual Design of Mechanical Devices Based on Reasoning the Design Rules'
p1410
sL1502L
S'A Study on Collaborative Design Considering Features of Design'
p1411
sL1503L
S'Reconfiguration of Kinematic Structure for Changing Motion Requirement Based on Reusability Evaluation in Lie Algebra'
p1412
sL1504L
S'A Study on Optimum Topology of Plate Structure Using Coordinate Transformation by Conformal Mapping'
p1413
sL1505L
S'Computer-Aided Analysis of Free Transverse-Vibration of Stepped Beams'
p1414
sL1506L
S'Thermal Robustness and Mass Optimization of Heat Pipe Shape for Spacecraft Panel Using a Combination of Response Surface Methodology and Monte Carlo Simulation'
p1415
sL1507L
S'Dual Stage Input Coupled Split Power Transmission Efficiency Optimization'
p1416
sL1508L
S'Informing Design Using Data Mining Methods'
p1417
sL1509L
S'Development of Multi-Stage and Hybrid Real-Coded Genetic Algorithms With Active Constraints'
p1418
sL1510L
S'Computational Recognition of Functional Parameters of Surfaces for the Kinematic Design of Window Regulator Systems'
p1419
sL1511L
S'Human Modelling: A Constraint-Based Feature Modelling Approach'
p1420
sL1512L
S'Analysis of Loads and Stresses for a Sewing Needle'
p1421
sL1513L
S'Artificial Immune System Based Isomorphism Identification Method for Mechanism Kinematics Chains'
p1422
sL1515L
S'Cross Model Shape Reuse: Copying and Pasting of Freeform Features'
p1423
sL1516L
S'Automated Design Synthesis for Micro-Electro-Mechanical Systems (MEMS)'
p1424
sL1517L
S'Use of Constrained Viscoelastic Layers in the Design of Satellite Panels to Predict the Amplification Factor'
p1425
sL1518L
S'Stiffness Testing of Hydraulic Hoses'
p1426
sL1519L
S'Finite Element Analysis in 3D Using the Penalty Boundary Method'
p1427
sL1520L
S'Integration of Commercial CAD/CAM System With Custom CAPP Using Orbix Middleware and CORBA Standard'
p1428
sL1521L
S'Counting Degrees of Freedom for Developable Bezier Surface Design'
p1429
sL1522L
S'Determination of Geometric Distortions in Automotive Lamps Using Non-Linear Parametric Estimations'
p1430
sL1523L
S'Macroscopic Shape-Information as a Curve Design-Guideline'
p1431
sL1524L
S'Collaborative Decision Making Across Digital Interfaces'
p1432
sL1525L
S'Local Least Squares Fitting for Surface Mesh Fairing in Automobile Panel Design'
p1433
sL1526L
S'A Stochastic Optimization Application for Vehicle Structures'
p1434
sL1527L
S'Math-Based Performance Evaluation of an Experimental Car: Side Impact Protection'
p1435
sL1528L
S'Model Reduction in Structural Analysis Using a Multiresolution Analysis'
p1436
sL1529L
S'A Web Enabled Process for Accessing Customized Parametric Designs'
p1437
sL1530L
S'Multiattribute Decision Making Using Hypothetical Equivalents'
p1438
sL1531L
S'Interactive Product Design Selection With an Implicit Value Function'
p1439
sL1532L
S'A Customer-Based Expected Utility Metric for Product Design Selection'
p1440
sL1533L
S'Empirical Analysis Using Advanced Similarity Methods'
p1441
sL1534L
S'Decomposition-Based Assembly Synthesis Based on Structural Stiffness Considerations'
p1442
sL1535L
S'An Analytical Approach to Functional Design'
p1443
sL1536L
S'Control, Design and Error Variables in Decomposition of Design Optimization Problems'
p1444
sL1537L
S'Decomposition-Based Assembly Synthesis for In-Process Dimensional Adjustability'
p1445
sL1538L
S'A Grammar-Based Approach to Sheet Metal Design'
p1446
sL1539L
S'Adaptive-Agent Based Simulation Model to Study Diffusion of Eco-Innovation Strategies'
p1447
sL1540L
S'A Knowledge-Based Approach to Spur Gear Fabrication in Precision Forging Process'
p1448
sL1541L
S'A Benchmark Comparison of Curvature Matched Machining versus Three- and Five-Axis Machining Methods Applied to Industrial Part Surfaces'
p1449
sL1542L
S'Adaptive Experimental Design Applied to Ergonomics Testing Procedure'
p1450
sL1543L
S'On Sequential Sampling for Global Metamodeling in Engineering Design'
p1451
sL1544L
S'Computer Implementation of an Improved Kutzbach-Grubler Mobility Criterion'
p1452
sL1545L
S'Modeling of Slope Discontinuities in Flexible Body Dynamics Using the Finite Element Method'
p1453
sL1546L
S'Design of Hierarchic Platforms for Customizable Products'
p1454
sL1547L
S'A Quantitative Approach for Designing Multiple Product Platforms for an Evolving Portfolio of Products'
p1455
sL1548L
S'Optimal Design Decisions in Product Portfolio Valuation'
p1456
sL1549L
S'Knowledge Intensive Support for Product Family Design'
p1457
sL1550L
S'Platform Selection Under Performance Loss Constraints in Optimal Design of Product Families'
p1458
sL1551L
S'Inverse Parametric Modeling From Independently Generated Product Data Sets'
p1459
sL1552L
S'A Hybrid Approach to Feature Recognition Using Approximate and Partial Exact CAD Models'
p1460
sL1553L
S'A Mesh Feature Paradigm for Rapid Generation of CAE-Based Design of Experiments Data'
p1461
sL1554L
S'Development of Adaptive Range Genetic Algorithms Considering Inheritance of Searching Range'
p1462
sL1555L
S'GA-Based Multi-Objective Fuzzy Matter-Element Optimization'
p1463
sL1556L
S'Using Genetic Algorithms With Niche Formation to Solve the Minimum Distance Problem Among Concave Objects'
p1464
sL1557L
S'A Genetic Algorithm Based Method for Product Family Design Optimization'
p1465
sL1558L
S'Shape Optimization of NURBS Modeled 3D C-Frames Using Hybrid Genetic Algorithm'
p1466
sL1559L
S'Robust Design Through the Use of a Hybrid Genetic Algorithm'
p1467
sL1560L
S'Nonlinear Kinematic Tolerance Analysis of Planar Higher Pairs'
p1468
sL1561L
S'Parameter Sensitivity in System Identification of Parallel Mechanisms'
p1469
sL1562L
S'A New Symbolic Method to Determine Base Inertia Parameters for General Spatial Mechanisms'
p1470
sL1563L
S'Redesign of a Spatial Gear Pair Using Configuration Spaces'
p1471
sL1564L
S'Error Sensitivity Analysis for Optimal Calibration of Parallel Kinematic Machines'
p1472
sL1565L
S'Development of an Interactive Web-Based Support System for Gear Design'
p1473
sL1566L
S'An Extensive Simplex Method Mapping the Global Feasibility'
p1474
sL1567L
S'Theoretical Evaluation of the Integrated Structure and Control Design Approach by Optimization Theory'
p1475
sL1568L
S'Finding the Shortest Path for Quality Assurance of Electric Components'
p1476
sL1569L
S'Development of an Automatic Design and Optimization System for Industrial Silencers'
p1477
sL1570L
S'Architectural Optimisation Using Real Options Theory and Dependency Structure Matrices'
p1478
sL1571L
S'Dynamic Analysis and Optimization of Tensioner in Automotive Serpentine Belt Drive Systems'
p1479
sL1572L
S'Configurable and Extensible System for Experimenting With Design Optimization'
p1480
sL1573L
S'On the Entropy of Multi-Objective Design Optimization Solution Sets'
p1481
sL1574L
S'A Sensitivity-Based Pattern Search Algorithm for 3D Component Layout'
p1482
sL1575L
S'Hybrid Approach for Containment Problems'
p1483
sL1576L
S'A Non-Deterministic Approach to Concept Selection Using S-Pareto Frontiers'
p1484
sL1577L
S'Sequential Optimization and Reliability Assessment Method for Efficient Probabilistic Design'
p1485
sL1578L
S'An Investigation of Nonlinearity of Reliability-Based Design Optimization Approaches'
p1486
sL1579L
S'New Concepts in Graphic Visualization of Objective Functions'
p1487
sL1580L
S'Visualization of Multidimensional Design and Optimization Data Using Cloud Visualization'
p1488
sL1581L
S'Design Optimization for Structural-Acoustic Problems Using FEM-BEM'
p1489
sL1583L
S'Dynamic Project Navigation: Modelling, Improving, and Review of Engineering Processes'
p1490
sL1584L
S'Benefit Evaluation of New Technologies'
p1491
sL1585L
S'Smart Assemblies for Robust Design: A Progress Report'
p1492
sL1587L
S'The Evolution of a Layered Manufacturing Interchange Format'
p1493
sL1588L
S'ModelAngelo: A Rapid Prototyping System for Polystyrene'
p1494
sL1589L
S'Automatic Process Planning of a Multi-Axis Hybrid Manufacturing System'
p1495
sL1590L
S'H-ISM: An Implementation of Heterogeneous Implicit Solid Modeling'
p1496
sL1591L
S'Model Validation via Uncertainty Propagation Using Response Surface Models'
p1497
sL1592L
S'Bayesian Evaluation of Engineering Models'
p1498
sL1593L
S'Uncertainty Analysis Using a Constraint Reliability Index'
p1499
sL1594L
S'A Tool Management System for Probabilistic Design Problems'
p1500
sL1595L
S'Evaluation of Conceptual Designs and Maintainability Incorporating Uncertainty'
p1501
sL1596L
S'Computer-Aided Fixture Design Verification: Part II -- Tolerance Analysis'
p1502
sL1597L
S'A Scheme for Transformation of Tolerance Specifications to Generalized Deviation Space for Use in Tolerance Synthesis and Analysis'
p1503
sL1598L
S'Topology Optimization of Compliant Mechanisms Using Evolutionary Algorithm With Design Geometry Encoded as a Graph'
p1504
sL1599L
S'Optimal Embedding in the Topology Design of Structures'
p1505
sL1600L
S'An Evolutionary Multi-Objective Optimization Approach to the Topology Optimization of Auxetic Structures'
p1506
sL1601L
S'Compliant Mechanism Design With Non-Linear Materials Using Topology Optimization'
p1507
sL1602L
S'An Interactive Virtual Environment for 3D Model Assembly With Video Immersion'
p1508
sL1603L
S'Modeling of Hydraulic Hose Paths'
p1509
sL1604L
S'Math-Based Performance Evaluation of an Experimental Car: Frontal Impact Crashworthiness'
p1510
ssb.