ccopy_reg
_reconstructor
p0
(c__main__
CitationNetwork
p1
c__builtin__
object
p2
Ntp3
Rp4
(dp5
S'network_dict'
p6
(dp7
L1536L
c__builtin__
set
p8
((lp9
tp10
Rp11
sL1537L
g8
((lp12
L1361L
atp13
Rp14
sL1538L
g8
((lp15
tp16
Rp17
sL1539L
g8
((lp18
tp19
Rp20
sL1540L
g8
((lp21
tp22
Rp23
sL1541L
g8
((lp24
tp25
Rp26
sL1542L
g8
((lp27
tp28
Rp29
sL1543L
g8
((lp30
L1395L
atp31
Rp32
sL1544L
g8
((lp33
tp34
Rp35
sL1545L
g8
((lp36
tp37
Rp38
sL1546L
g8
((lp39
L1349L
atp40
Rp41
sL1547L
g8
((lp42
L1353L
aL1349L
atp43
Rp44
sL1548L
g8
((lp45
L1400L
aL1353L
aL1366L
atp46
Rp47
sL1549L
g8
((lp48
L1349L
aL1381L
atp49
Rp50
sL1550L
g8
((lp51
L1349L
atp52
Rp53
sL1551L
g8
((lp54
tp55
Rp56
sL1552L
g8
((lp57
tp58
Rp59
sL1553L
g8
((lp60
tp61
Rp62
sL1554L
g8
((lp63
tp64
Rp65
sL1555L
g8
((lp66
tp67
Rp68
sL1556L
g8
((lp69
tp70
Rp71
sL1557L
g8
((lp72
L1349L
atp73
Rp74
sL1558L
g8
((lp75
tp76
Rp77
sL1559L
g8
((lp78
tp79
Rp80
sL1560L
g8
((lp81
tp82
Rp83
sL1561L
g8
((lp84
tp85
Rp86
sL1562L
g8
((lp87
tp88
Rp89
sL1563L
g8
((lp90
tp91
Rp92
sL1564L
g8
((lp93
tp94
Rp95
sL1565L
g8
((lp96
tp97
Rp98
sL1566L
g8
((lp99
tp100
Rp101
sL1567L
g8
((lp102
tp103
Rp104
sL1568L
g8
((lp105
tp106
Rp107
sL1569L
g8
((lp108
tp109
Rp110
sL1570L
g8
((lp111
tp112
Rp113
sL1571L
g8
((lp114
tp115
Rp116
sL1572L
g8
((lp117
tp118
Rp119
sL1573L
g8
((lp120
tp121
Rp122
sL1574L
g8
((lp123
tp124
Rp125
sL1575L
g8
((lp126
tp127
Rp128
sL1576L
g8
((lp129
tp130
Rp131
sL1577L
g8
((lp132
L1339L
aL1342L
aL1343L
atp133
Rp134
sL1578L
g8
((lp135
tp136
Rp137
sL1579L
g8
((lp138
L1340L
atp139
Rp140
sL1580L
g8
((lp141
L1340L
atp142
Rp143
sL1581L
g8
((lp144
L1386L
atp145
Rp146
sL1583L
g8
((lp147
tp148
Rp149
sL1584L
g8
((lp150
tp151
Rp152
sL1585L
g8
((lp153
tp154
Rp155
sL1587L
g8
((lp156
tp157
Rp158
sL1588L
g8
((lp159
tp160
Rp161
sL1589L
g8
((lp162
L1358L
atp163
Rp164
sL1590L
g8
((lp165
tp166
Rp167
sL1591L
g8
((lp168
tp169
Rp170
sL1592L
g8
((lp171
tp172
Rp173
sL1593L
g8
((lp174
tp175
Rp176
sL1594L
g8
((lp177
tp178
Rp179
sL1595L
g8
((lp180
tp181
Rp182
sL1596L
g8
((lp183
tp184
Rp185
sL1597L
g8
((lp186
tp187
Rp188
sL1598L
g8
((lp189
L1408L
atp190
Rp191
sL1599L
g8
((lp192
tp193
Rp194
sL1600L
g8
((lp195
L1403L
atp196
Rp197
sL1601L
g8
((lp198
L1407L
atp199
Rp200
sL1602L
g8
((lp201
tp202
Rp203
sL1603L
g8
((lp204
L1518L
atp205
Rp206
sL1604L
g8
((lp207
L1527L
atp208
Rp209
sL1337L
g8
((lp210
tp211
Rp212
sL1338L
g8
((lp213
tp214
Rp215
sL1339L
g8
((lp216
L1577L
atp217
Rp218
sL1340L
g8
((lp219
L1530L
aL1579L
aL1580L
atp220
Rp221
sL1341L
g8
((lp222
tp223
Rp224
sL1342L
g8
((lp225
L1577L
atp226
Rp227
sL1343L
g8
((lp228
L1577L
atp229
Rp230
sL1344L
g8
((lp231
tp232
Rp233
sL1345L
g8
((lp234
tp235
Rp236
sL1346L
g8
((lp237
tp238
Rp239
sL1347L
g8
((lp240
tp241
Rp242
sL1348L
g8
((lp243
L1493L
atp244
Rp245
sL1349L
g8
((lp246
L1546L
aL1547L
aL1549L
aL1550L
aL1557L
aL1529L
atp247
Rp248
sL1350L
g8
((lp249
tp250
Rp251
sL1351L
g8
((lp252
tp253
Rp254
sL1352L
g8
((lp255
tp256
Rp257
sL1353L
g8
((lp258
L1547L
aL1548L
atp259
Rp260
sL1354L
g8
((lp261
tp262
Rp263
sL1355L
g8
((lp264
tp265
Rp266
sL1356L
g8
((lp267
tp268
Rp269
sL1357L
g8
((lp270
tp271
Rp272
sL1358L
g8
((lp273
L1589L
atp274
Rp275
sL1359L
g8
((lp276
tp277
Rp278
sL1360L
g8
((lp279
tp280
Rp281
sL1361L
g8
((lp282
L1537L
aL1534L
atp283
Rp284
sL1362L
g8
((lp285
L1534L
atp286
Rp287
sL1363L
g8
((lp288
tp289
Rp290
sL1364L
g8
((lp291
tp292
Rp293
sL1365L
g8
((lp294
tp295
Rp296
sL1366L
g8
((lp297
L1548L
atp298
Rp299
sL1367L
g8
((lp300
tp301
Rp302
sL1368L
g8
((lp303
tp304
Rp305
sL1370L
g8
((lp306
tp307
Rp308
sL1371L
g8
((lp309
tp310
Rp311
sL1372L
g8
((lp312
tp313
Rp314
sL1373L
g8
((lp315
tp316
Rp317
sL1374L
g8
((lp318
tp319
Rp320
sL1375L
g8
((lp321
tp322
Rp323
sL1376L
g8
((lp324
tp325
Rp326
sL1377L
g8
((lp327
L1515L
atp328
Rp329
sL1378L
g8
((lp330
tp331
Rp332
sL1380L
g8
((lp333
tp334
Rp335
sL1381L
g8
((lp336
L1524L
aL1549L
atp337
Rp338
sL1382L
g8
((lp339
tp340
Rp341
sL1383L
g8
((lp342
tp343
Rp344
sL1384L
g8
((lp345
tp346
Rp347
sL1385L
g8
((lp348
tp349
Rp350
sL1386L
g8
((lp351
L1581L
atp352
Rp353
sL1387L
g8
((lp354
tp355
Rp356
sL1388L
g8
((lp357
tp358
Rp359
sL1389L
g8
((lp360
tp361
Rp362
sL1390L
g8
((lp363
tp364
Rp365
sL1391L
g8
((lp366
L1393L
atp367
Rp368
sL1392L
g8
((lp369
tp370
Rp371
sL1393L
g8
((lp372
L1391L
atp373
Rp374
sL1394L
g8
((lp375
tp376
Rp377
sL1395L
g8
((lp378
L1543L
atp379
Rp380
sL1396L
g8
((lp381
tp382
Rp383
sL1397L
g8
((lp384
L1500L
atp385
Rp386
sL1398L
g8
((lp387
tp388
Rp389
sL1399L
g8
((lp390
tp391
Rp392
sL1400L
g8
((lp393
L1548L
atp394
Rp395
sL1401L
g8
((lp396
tp397
Rp398
sL1402L
g8
((lp399
tp400
Rp401
sL1403L
g8
((lp402
L1600L
atp403
Rp404
sL1404L
g8
((lp405
tp406
Rp407
sL1405L
g8
((lp408
tp409
Rp410
sL1406L
g8
((lp411
tp412
Rp413
sL1407L
g8
((lp414
L1601L
atp415
Rp416
sL1408L
g8
((lp417
L1598L
atp418
Rp419
sL1409L
g8
((lp420
tp421
Rp422
sL1410L
g8
((lp423
tp424
Rp425
sL1411L
g8
((lp426
L1525L
atp427
Rp428
sL1412L
g8
((lp429
tp430
Rp431
sL1413L
g8
((lp432
tp433
Rp434
sL1414L
g8
((lp435
tp436
Rp437
sL1415L
g8
((lp438
tp439
Rp440
sL1416L
g8
((lp441
tp442
Rp443
sL1417L
g8
((lp444
tp445
Rp446
sL1418L
g8
((lp447
tp448
Rp449
sL1419L
g8
((lp450
tp451
Rp452
sL1420L
g8
((lp453
tp454
Rp455
sL1421L
g8
((lp456
tp457
Rp458
sL1422L
g8
((lp459
tp460
Rp461
sL1423L
g8
((lp462
tp463
Rp464
sL1424L
g8
((lp465
tp466
Rp467
sL1425L
g8
((lp468
tp469
Rp470
sL1426L
g8
((lp471
tp472
Rp473
sL1427L
g8
((lp474
tp475
Rp476
sL1428L
g8
((lp477
tp478
Rp479
sL1429L
g8
((lp480
tp481
Rp482
sL1430L
g8
((lp483
tp484
Rp485
sL1431L
g8
((lp486
tp487
Rp488
sL1432L
g8
((lp489
tp490
Rp491
sL1433L
g8
((lp492
tp493
Rp494
sL1434L
g8
((lp495
tp496
Rp497
sL1435L
g8
((lp498
tp499
Rp500
sL1436L
g8
((lp501
tp502
Rp503
sL1437L
g8
((lp504
tp505
Rp506
sL1438L
g8
((lp507
tp508
Rp509
sL1439L
g8
((lp510
tp511
Rp512
sL1441L
g8
((lp513
tp514
Rp515
sL1442L
g8
((lp516
tp517
Rp518
sL1443L
g8
((lp519
tp520
Rp521
sL1444L
g8
((lp522
tp523
Rp524
sL1445L
g8
((lp525
tp526
Rp527
sL1446L
g8
((lp528
L1449L
atp529
Rp530
sL1447L
g8
((lp531
tp532
Rp533
sL1448L
g8
((lp534
tp535
Rp536
sL1449L
g8
((lp537
L1446L
atp538
Rp539
sL1450L
g8
((lp540
tp541
Rp542
sL1451L
g8
((lp543
tp544
Rp545
sL1452L
g8
((lp546
tp547
Rp548
sL1453L
g8
((lp549
tp550
Rp551
sL1454L
g8
((lp552
tp553
Rp554
sL1455L
g8
((lp555
tp556
Rp557
sL1456L
g8
((lp558
tp559
Rp560
sL1457L
g8
((lp561
tp562
Rp563
sL1458L
g8
((lp564
tp565
Rp566
sL1459L
g8
((lp567
tp568
Rp569
sL1460L
g8
((lp570
tp571
Rp572
sL1461L
g8
((lp573
tp574
Rp575
sL1462L
g8
((lp576
tp577
Rp578
sL1463L
g8
((lp579
tp580
Rp581
sL1464L
g8
((lp582
tp583
Rp584
sL1465L
g8
((lp585
tp586
Rp587
sL1466L
g8
((lp588
tp589
Rp590
sL1467L
g8
((lp591
tp592
Rp593
sL1468L
g8
((lp594
tp595
Rp596
sL1469L
g8
((lp597
tp598
Rp599
sL1470L
g8
((lp600
tp601
Rp602
sL1471L
g8
((lp603
tp604
Rp605
sL1472L
g8
((lp606
tp607
Rp608
sL1473L
g8
((lp609
tp610
Rp611
sL1474L
g8
((lp612
tp613
Rp614
sL1475L
g8
((lp615
tp616
Rp617
sL1476L
g8
((lp618
tp619
Rp620
sL1477L
g8
((lp621
tp622
Rp623
sL1478L
g8
((lp624
tp625
Rp626
sL1479L
g8
((lp627
tp628
Rp629
sL1480L
g8
((lp630
tp631
Rp632
sL1481L
g8
((lp633
tp634
Rp635
sL1482L
g8
((lp636
tp637
Rp638
sL1483L
g8
((lp639
tp640
Rp641
sL1484L
g8
((lp642
tp643
Rp644
sL1486L
g8
((lp645
tp646
Rp647
sL1488L
g8
((lp648
tp649
Rp650
sL1489L
g8
((lp651
tp652
Rp653
sL1490L
g8
((lp654
tp655
Rp656
sL1491L
g8
((lp657
tp658
Rp659
sL1492L
g8
((lp660
tp661
Rp662
sL1493L
g8
((lp663
L1348L
atp664
Rp665
sL1494L
g8
((lp666
tp667
Rp668
sL1495L
g8
((lp669
tp670
Rp671
sL1496L
g8
((lp672
tp673
Rp674
sL1497L
g8
((lp675
tp676
Rp677
sL1498L
g8
((lp678
tp679
Rp680
sL1499L
g8
((lp681
tp682
Rp683
sL1500L
g8
((lp684
L1397L
atp685
Rp686
sL1501L
g8
((lp687
tp688
Rp689
sL1502L
g8
((lp690
tp691
Rp692
sL1503L
g8
((lp693
tp694
Rp695
sL1504L
g8
((lp696
tp697
Rp698
sL1505L
g8
((lp699
tp700
Rp701
sL1506L
g8
((lp702
tp703
Rp704
sL1507L
g8
((lp705
tp706
Rp707
sL1508L
g8
((lp708
tp709
Rp710
sL1509L
g8
((lp711
tp712
Rp713
sL1510L
g8
((lp714
tp715
Rp716
sL1511L
g8
((lp717
tp718
Rp719
sL1512L
g8
((lp720
tp721
Rp722
sL1513L
g8
((lp723
tp724
Rp725
sL1515L
g8
((lp726
L1377L
atp727
Rp728
sL1516L
g8
((lp729
tp730
Rp731
sL1517L
g8
((lp732
tp733
Rp734
sL1518L
g8
((lp735
L1603L
atp736
Rp737
sL1519L
g8
((lp738
tp739
Rp740
sL1520L
g8
((lp741
tp742
Rp743
sL1521L
g8
((lp744
tp745
Rp746
sL1522L
g8
((lp747
tp748
Rp749
sL1523L
g8
((lp750
tp751
Rp752
sL1524L
g8
((lp753
L1381L
atp754
Rp755
sL1525L
g8
((lp756
L1411L
atp757
Rp758
sL1526L
g8
((lp759
tp760
Rp761
sL1527L
g8
((lp762
L1604L
atp763
Rp764
sL1528L
g8
((lp765
tp766
Rp767
sL1529L
g8
((lp768
L1349L
atp769
Rp770
sL1530L
g8
((lp771
L1340L
atp772
Rp773
sL1531L
g8
((lp774
tp775
Rp776
sL1532L
g8
((lp777
tp778
Rp779
sL1533L
g8
((lp780
tp781
Rp782
sL1534L
g8
((lp783
L1361L
aL1362L
aL1534L
atp784
Rp785
sL1535L
g8
((lp786
tp787
Rp788
ssS'names'
p789
(dp790
L1536L
S'Control, Design and Error Variables in Decomposition of Design Optimization Problems'
p791
sL1537L
S'Decomposition-Based Assembly Synthesis for In-Process Dimensional Adjustability'
p792
sL1538L
S'A Grammar-Based Approach to Sheet Metal Design'
p793
sL1539L
S'Adaptive-Agent Based Simulation Model to Study Diffusion of Eco-Innovation Strategies'
p794
sL1540L
S'A Knowledge-Based Approach to Spur Gear Fabrication in Precision Forging Process'
p795
sL1541L
S'A Benchmark Comparison of Curvature Matched Machining versus Three- and Five-Axis Machining Methods Applied to Industrial Part Surfaces'
p796
sL1542L
S'Adaptive Experimental Design Applied to Ergonomics Testing Procedure'
p797
sL1543L
S'On Sequential Sampling for Global Metamodeling in Engineering Design'
p798
sL1544L
S'Computer Implementation of an Improved Kutzbach-Grubler Mobility Criterion'
p799
sL1545L
S'Modeling of Slope Discontinuities in Flexible Body Dynamics Using the Finite Element Method'
p800
sL1546L
S'Design of Hierarchic Platforms for Customizable Products'
p801
sL1547L
S'A Quantitative Approach for Designing Multiple Product Platforms for an Evolving Portfolio of Products'
p802
sL1548L
S'Optimal Design Decisions in Product Portfolio Valuation'
p803
sL1549L
S'Knowledge Intensive Support for Product Family Design'
p804
sL1550L
S'Platform Selection Under Performance Loss Constraints in Optimal Design of Product Families'
p805
sL1551L
S'Inverse Parametric Modeling From Independently Generated Product Data Sets'
p806
sL1552L
S'A Hybrid Approach to Feature Recognition Using Approximate and Partial Exact CAD Models'
p807
sL1553L
S'A Mesh Feature Paradigm for Rapid Generation of CAE-Based Design of Experiments Data'
p808
sL1554L
S'Development of Adaptive Range Genetic Algorithms Considering Inheritance of Searching Range'
p809
sL1555L
S'GA-Based Multi-Objective Fuzzy Matter-Element Optimization'
p810
sL1556L
S'Using Genetic Algorithms With Niche Formation to Solve the Minimum Distance Problem Among Concave Objects'
p811
sL1557L
S'A Genetic Algorithm Based Method for Product Family Design Optimization'
p812
sL1558L
S'Shape Optimization of NURBS Modeled 3D C-Frames Using Hybrid Genetic Algorithm'
p813
sL1559L
S'Robust Design Through the Use of a Hybrid Genetic Algorithm'
p814
sL1560L
S'Nonlinear Kinematic Tolerance Analysis of Planar Higher Pairs'
p815
sL1561L
S'Parameter Sensitivity in System Identification of Parallel Mechanisms'
p816
sL1562L
S'A New Symbolic Method to Determine Base Inertia Parameters for General Spatial Mechanisms'
p817
sL1563L
S'Redesign of a Spatial Gear Pair Using Configuration Spaces'
p818
sL1564L
S'Error Sensitivity Analysis for Optimal Calibration of Parallel Kinematic Machines'
p819
sL1565L
S'Development of an Interactive Web-Based Support System for Gear Design'
p820
sL1566L
S'An Extensive Simplex Method Mapping the Global Feasibility'
p821
sL1567L
S'Theoretical Evaluation of the Integrated Structure and Control Design Approach by Optimization Theory'
p822
sL1568L
S'Finding the Shortest Path for Quality Assurance of Electric Components'
p823
sL1569L
S'Development of an Automatic Design and Optimization System for Industrial Silencers'
p824
sL1570L
S'Architectural Optimisation Using Real Options Theory and Dependency Structure Matrices'
p825
sL1571L
S'Dynamic Analysis and Optimization of Tensioner in Automotive Serpentine Belt Drive Systems'
p826
sL1572L
S'Configurable and Extensible System for Experimenting With Design Optimization'
p827
sL1573L
S'On the Entropy of Multi-Objective Design Optimization Solution Sets'
p828
sL1574L
S'A Sensitivity-Based Pattern Search Algorithm for 3D Component Layout'
p829
sL1575L
S'Hybrid Approach for Containment Problems'
p830
sL1576L
S'A Non-Deterministic Approach to Concept Selection Using S-Pareto Frontiers'
p831
sL1577L
S'Sequential Optimization and Reliability Assessment Method for Efficient Probabilistic Design'
p832
sL1578L
S'An Investigation of Nonlinearity of Reliability-Based Design Optimization Approaches'
p833
sL1579L
S'New Concepts in Graphic Visualization of Objective Functions'
p834
sL1580L
S'Visualization of Multidimensional Design and Optimization Data Using Cloud Visualization'
p835
sL1581L
S'Design Optimization for Structural-Acoustic Problems Using FEM-BEM'
p836
sL1583L
S'Dynamic Project Navigation: Modelling, Improving, and Review of Engineering Processes'
p837
sL1584L
S'Benefit Evaluation of New Technologies'
p838
sL1585L
S'Smart Assemblies for Robust Design: A Progress Report'
p839
sL1587L
S'The Evolution of a Layered Manufacturing Interchange Format'
p840
sL1588L
S'ModelAngelo: A Rapid Prototyping System for Polystyrene'
p841
sL1589L
S'Automatic Process Planning of a Multi-Axis Hybrid Manufacturing System'
p842
sL1590L
S'H-ISM: An Implementation of Heterogeneous Implicit Solid Modeling'
p843
sL1591L
S'Model Validation via Uncertainty Propagation Using Response Surface Models'
p844
sL1592L
S'Bayesian Evaluation of Engineering Models'
p845
sL1593L
S'Uncertainty Analysis Using a Constraint Reliability Index'
p846
sL1594L
S'A Tool Management System for Probabilistic Design Problems'
p847
sL1595L
S'Evaluation of Conceptual Designs and Maintainability Incorporating Uncertainty'
p848
sL1596L
S'Computer-Aided Fixture Design Verification: Part II -- Tolerance Analysis'
p849
sL1597L
S'A Scheme for Transformation of Tolerance Specifications to Generalized Deviation Space for Use in Tolerance Synthesis and Analysis'
p850
sL1598L
S'Topology Optimization of Compliant Mechanisms Using Evolutionary Algorithm With Design Geometry Encoded as a Graph'
p851
sL1599L
S'Optimal Embedding in the Topology Design of Structures'
p852
sL1600L
S'An Evolutionary Multi-Objective Optimization Approach to the Topology Optimization of Auxetic Structures'
p853
sL1601L
S'Compliant Mechanism Design With Non-Linear Materials Using Topology Optimization'
p854
sL1602L
S'An Interactive Virtual Environment for 3D Model Assembly With Video Immersion'
p855
sL1603L
S'Modeling of Hydraulic Hose Paths'
p856
sL1604L
S'Math-Based Performance Evaluation of an Experimental Car: Frontal Impact Crashworthiness'
p857
sL1337L
S'Design Under Uncertainty Using Monte Carlo Simulation and Probabilistic Sufficiency Factor'
p858
sL1338L
S'A Cross-Evaluation Matrix (CEM) Rating Based Approach to Pareto Efficient Frontier and Design Alternatives Enumeration'
p859
sL1339L
S'An Integrated Framework for Probabilistic Optimization Using Inverse Reliability Strategy'
p860
sL1340L
S'An Approach to Robust Multiattribute Concept Selection'
p861
sL1341L
S'An Indicator Response Surface-Based Monte Carlo Method for Efficient Component and System Reliability Analysis'
p862
sL1342L
S'Reliability-Based Design With the Mixture of Random and Interval Variables'
p863
sL1343L
S'Application of the Sequential Optimization and Reliability Assessment Method to Structural Design Problems'
p864
sL1344L
S'Structural Durability Design Optimization and Its Reliability Assessment'
p865
sL1345L
S'Incorporating Epistemic Uncertainty in Robust Design'
p866
sL1346L
S'Robust Optimization of an Automotive Valvetrain Using a Multiobjective Genetic Algorithm'
p867
sL1347L
S'Robust Design Using Preference Aggregation Methods'
p868
sL1348L
S'Non-Gradient Based Parameter Sensitivity Estimation for Robust Design Optimization'
p869
sL1349L
S'Product Platform Design and Optimization: Status and Promise'
p870
sL1350L
S'Optimal Design Methodology of Common Components for a Class of Products: Its Foundations and Promise'
p871
sL1351L
S'Internet Based Framework to Perform Automated FEA on User Customized Products'
p872
sL1352L
S'Production Cost Modeling to Support Product Family Design Optimization'
p873
sL1353L
S'Product Family and Platform Portfolio Optimization'
p874
sL1354L
S'Dimensional Adjustment for Assemblability of Rapid Protoyped Parts'
p875
sL1355L
S'WirePATH Rapid Tooling Process and Supporting Software Development'
p876
sL1356L
S'Layered Manufacturing by Electrophotographic Printing'
p877
sL1357L
S'Towards Automated Design of Multi-Piece Permanent Molds'
p878
sL1358L
S'Toward Automatic Process Planning of a Multi-Axis Hybrid Laser Aided Manufacturing System: Skeleton-Based Offset Edge Generation'
p879
sL1359L
S'Extracting Freeform Shape Information by Template Fitting'
p880
sL1360L
S'Extended Hierarchical Cluster Analysis for the Decomposition of Complex Design Problems'
p881
sL1361L
S'Assembly Synthesis With Subassembly Partitioning for Optimal In-Process Dimensional Adjustability'
p882
sL1362L
S'Topology Optimization of Multi-Component Structures via Decomposition-Based Assembly Synthesis'
p883
sL1363L
S'Quantitative Exploratory Techniques to Simplify Multiple Objectives in Product Design Optimization'
p884
sL1364L
S'Multi-Objective Optimisation of Ship Hull With Distributed Applications'
p885
sL1365L
S'Structural Topology Design Optimization for Controlled Crash Behavior'
p886
sL1366L
S'Analytical Target Setting: An Enterprise Context in Optimal Product Design'
p887
sL1367L
S'Multi-Objective Configuration Optimization With Vehicle Dynamics Applied to Midsize Truck Design'
p888
sL1368L
S'A New Mathematical Model for Geometric Tolerances as Applied to Axes'
p889
sL1370L
S'Tolerance Synthesis of Mechanisms: A Robust Design Approach'
p890
sL1371L
S'Development of a Design Reuse View of Cutting Tool Design Ontology'
p891
sL1372L
S'A Study of Geometric Error Measurement of CNC Machine Tools Using the Improved Planar Encoder System'
p892
sL1373L
S'Reducing Cycle Time and Errors in the Design and Layout of MEMS'
p893
sL1374L
S'Approaches of Knowledge-Based Design'
p894
sL1375L
S'A Methodology for the Study of the Effects of Communication Method on Design Review Effectiveness'
p895
sL1376L
S'Development of Knowledge Based System to Facilitate Design of On-Board Car Safety Systems'
p896
sL1377L
S'Shape Knowledge Indexing Using Invariant Shape Code'
p897
sL1378L
S'Knowledge Management: A Concept Review'
p898
sL1380L
S'A Design Alternatives Assessment and Management Approach'
p899
sL1381L
S'Knowledge Intensive Collaborative Decision Support for Design Process'
p900
sL1382L
S'A Knowledge-Supported System for Engineering Change Impact Analysis'
p901
sL1383L
S'Design Optimization of a Vehicle B-Pillar Subjected to Roof Crush Using Mixed Reactive Taboo Search'
p902
sL1384L
S'Design Optimization of Vehicle Structures for Crashworthiness Using Equivalent Mechanism Approximations'
p903
sL1385L
S'Response Surface Methods and Pareto Optimization in Crashworthiness Design'
p904
sL1386L
S'Parametric Design Sensitivity Analysis of High Frequency Structural-Acoustic Problems Using Energy Finite Element Method'
p905
sL1387L
S'The Effect of Tempering (Artificial Aging) on the Crashworthiness Performance of Mass-Efficient Extruded Aluminum Structures'
p906
sL1388L
S'Bayesian Approximation-Assisted Optimization Applied to Crashworthiness Design of a Pickup Truck'
p907
sL1389L
S'Emerging Virtual Machine Tools'
p908
sL1390L
S'Computer Model Validation in Vehicle Crash Safety Design'
p909
sL1391L
S'Penalized Likelihood Kriging Model for Analysis of Computer Experiments'
p910
sL1392L
S'Analysis of Support Vector Regression for Approximation of Complex Engineering Analyses'
p911
sL1393L
S'An Efficient Algorithm for Constructing Optimal Design of Computer Experiments'
p912
sL1394L
S'Introducing Rough Set for Design Space Exploration and Optimization'
p913
sL1395L
S'A Study on the Use of Kriging Models to Approximate Deterministic Computer Models'
p914
sL1396L
S'A New Global Optimization Method for Simultaneous Computation on Expensive Black-Box Functions'
p915
sL1397L
S'Multidimensional Solution Clustering and Its Application to the Coolant Passage Optimization of a Turbine Blade'
p916
sL1398L
S'Optimization of a Semi-Active Shock Absorber for Aircraft Landing Gear'
p917
sL1399L
S'Towards a Conceptual Design Explorer Using Metamodeling Approaches and Constraint Programming'
p918
sL1400L
S'A Study of Emission Policy Effects on Optimal Vehicle Design Decisions'
p919
sL1401L
S'Level Set Models for Structural Topology Optimization'
p920
sL1402L
S'Topology Optimization of Heat-Resistant Structures'
p921
sL1403L
S'Topology Optimization of a Compliant Gripper Using Hybrid Simulated Annealing and Direct Search'
p922
sL1404L
S'Topology Optimization and Dynamic Performance of a Bike Frame With Dampers'
p923
sL1405L
S'Robust Topological Design of Cellular Materials'
p924
sL1406L
S'Structural Topology Optimization Using Function-Oriented Elements Based on the Concept of First Order Analysis'
p925
sL1407L
S'Design of Energy Absorbing Structure Using Topology Optimization With a Multi-Material Model'
p926
sL1408L
S'Parameterization Strategy for Optimization of Shape Morphing Compliant Mechanisms Using Load Path Representation'
p927
sL1409L
S'A Face Clustering Method for a Hexahedral Meshing'
p928
sL1410L
S'A New Approach to Minimisations for Shape Control During Free-Form Surface Deformation'
p929
sL1411L
S'Smoothing of Noisy Laser Scanner Generated Meshes Using Polynomial Fitting and Neighborhood Erosion'
p930
sL1412L
S'Partitioning Positional and Normal Space for Fast Occlusion Detection'
p931
sL1413L
S'Automatic Toolpath Generation for Multi-Axis Surface Machining in a Hybrid Manufacturing System'
p932
sL1414L
S'A Taxonomy for Collaborative Design'
p933
sL1415L
S'A Study of Convergence in Decentralized Design'
p934
sL1416L
S'Port-Compatibility and Connectability Based Assembly Design'
p935
sL1417L
S'A Concurrent Design Method for Multiple Cross-Sectional Automotive Body Frames Involving Discrete and Continuous Design Variables'
p936
sL1418L
S'Design Space Visualization and Its Application to a Design by Shopping Paradigm'
p937
sL1419L
S'Design Process Error-Proofing: Development of Automated Error-Proofing Information Systems'
p938
sL1420L
S'Design Evaluation Method for Miniature Machine Tools Utilizing Form-Shaping Theory'
p939
sL1421L
S'Design Shell for Parametric Design at Embodiment Stage'
p940
sL1422L
S'Scenario Expression for Characterizing Failure Cases'
p941
sL1423L
S'Design Methodology for the Thermal Packaging of Hybrid Electronic-Mechanical Products: A Case Study on the Berkeley Emulation Engine (BEE)'
p942
sL1424L
S'A Modeling Method for Vibration Analysis of a Stator Frame of Turbine Generators and Its Application to a Design System: Vibration Analysis and Analysis System'
p943
sL1425L
S'Strengthening of Bone Cement by Shape Optimization of Short Fibers'
p944
sL1426L
S'Constraint Dominance Methods Applied to the Design of a Linear Motor'
p945
sL1427L
S'Design Sensitivity Analysis of Nonlinear Shell Structure With Frictionless Contact'
p946
sL1428L
S'Optimal Troubleshooting for Electro-Mechanical Systems'
p947
sL1429L
S'Optimization for Mass Variation of System Including Shock Absorber'
p948
sL1430L
S'Discretizing Continuous Problems for Faster Global Convergence'
p949
sL1431L
S'Optimal Packaging of Tank Turret System'
p950
sL1432L
S'Genetic Range Genetic Algorithms to Obtain Quasi-Optimum Solutions'
p951
sL1433L
S'Optimization of Helicopter Air Intake Scoop Design'
p952
sL1434L
S'A Study on Immune Algorithms Considering Interaction of Design With Environment Properties'
p953
sL1435L
S'Optimizing Optimization for Design Optimization'
p954
sL1436L
S'Generalized Random Tunneling Algorithm for Continuous Design Variables'
p955
sL1437L
S'Improved Development Cycle of a Compliant Manipulator'
p956
sL1438L
S'On Honeycomb Parameterization for Topology Optimization of Compliant Mechanisms'
p957
sL1439L
S'On Design of Electro-Thermally Compliant MEMS for Strength'
p958
sL1441L
S'Introduction to Compliant Long-Dwell Mechanism Synthesis Using Buckling Arc Theory'
p959
sL1442L
S'Distributed Compliant Model for Efficient Dynamic Simulation of Systems With Frictional Contacts'
p960
sL1443L
S'Suspension Synthesis for N:1 Roll Center Motion'
p961
sL1444L
S'A Robust Solution to the Spherical Rigid-Body Guidance Problem'
p962
sL1445L
S'Designing a Dexterous Reconfigurable Packaging System for Flexible Automation'
p963
sL1446L
S'Kinematic Synthesis of RPS Serial Chains'
p964
sL1447L
S'Approximate Motion Synthesis of Open and Closed Chains via Parametric Constraint Manifold Fitting: Preliminary Results'
p965
sL1448L
S'Suggesting Joint Limitations and Physical Parameters for Motion Generating 3 DOF Planar Chains'
p966
sL1449L
S'Geometric Design of Cylindric PRS Serial Chains'
p967
sL1450L
S'On the Effects of Weights in Rational Motion Design'
p968
sL1451L
S'Dimensional Synthesis of CRR Serial Chains'
p969
sL1452L
S'Analytical Determination of Principal Twists and Singular Directions in Robot Manipulators'
p970
sL1453L
S'Type Synthesis of Three-DOF Translational Parallel Mechanisms'
p971
sL1454L
S'Forward Problem Singularities of Manipulators Which Become PS-2RS or 2PS-RS Structures When the Actuators Are Locked'
p972
sL1455L
S'Singularity Analysis of a Novel 4-DOFs Parallel Robot H4 by Using Screw Theory'
p973
sL1456L
S'Planar Translational Cable-Direct-Driven Robots: Hardware Implementation'
p974
sL1457L
S'Interpolation Algorithm and Its Error Prediction of a Tripod-Based Parallel Kinematic Machine'
p975
sL1458L
S'An Integrated Virtual Validation System for Parallel Kinematic Machine Analysis Design'
p976
sL1459L
S'Design Optimization of 6-HTRT Parallel Robot Orientated on Workspace'
p977
sL1460L
S'Cable-Based Metrology System for Sculpting Assistance'
p978
sL1461L
S'Optimal Integration of Smart Actuators in the Structure of Serial and Parallel Robot Manipulators to Enhance Speed and Tracking Precision'
p979
sL1462L
S'An XZ Micropositioning Mechanism (XZMM) With Out-of-Plane Translation'
p980
sL1463L
S'Kinetic Analysis of Planar Frictionless Mechanisms Made Simple'
p981
sL1464L
S'Computer Simulation of Path and Motion Generation With Six-Bar Linkage'
p982
sL1465L
S'On the Existence of Special Cases of Input Speed Doubling Linkage Mechanisms'
p983
sL1466L
S'The Radius of Curvature of a Coupler Curve of the Single Flier Eight-Bar Linkage'
p984
sL1467L
S'An Analytical Comparison Between Ball and Crossed Roller Bearings for Utilization in Actuator Modules for Precision Modular Robots'
p985
sL1468L
S'Influence of End-Effector Velocities on Robotic Manipulator Dynamic Performance: An Analytical Approach'
p986
sL1469L
S'Analysis and Visualization of the Contact Force Solution Space for Multi-Limbed Mobile Robots With Three Feet Contact'
p987
sL1470L
S'Choosing the Optimal Contact Force Distribution for Multi-Limbed Mobile Robots With Three Feet Contact'
p988
sL1471L
S'An Articulated Body Algorithm for Modelling and Simulation of an Underwater Vehicle Equipped With Manipulator Arm'
p989
sL1472L
S'On the Design of Nesting Forces for Exactly Constrained, Robust Mechanical Assemblies'
p990
sL1473L
S'On the Robustness of Exactly Constrained Mechanical Assemblies'
p991
sL1474L
S'Analysis of Multiple Equilibrium Positions in Magnetostatic Field'
p992
sL1475L
S'On the Geometry of 3D Orientation Measurement Using a New Class of Wireless Angular Position Sensors'
p993
sL1476L
S'Similarity and Equivalence of Nutating Mechanisms to Bevel Epicyclic Gear Trains'
p994
sL1477L
S'Forward Kinematics of 3-GPR Planar Parallel Manipulators With Circular Rolling Contact Joints'
p995
sL1478L
S'The Robust Design of a Two-Wheeled Quasiholonomic Mobile Robot'
p996
sL1479L
S'Kinematics of Wheeled Mobile Robots With Toroidal Wheels on Uneven Terrain'
p997
sL1480L
S'Design of a Self-Actuating, Traction Drive System for High-Speed Ratios'
p998
sL1481L
S'Topology and Shape Optimization of an Interbody Fusion Implant for Lumbar Spine Fixation'
p999
sL1482L
S'An Integrated Design Optimization Approach for Quantitative and Qualitative Search Space'
p1000
sL1483L
S'An Approach for Generating Variational Geometry of a Pattern of Holes With Composite Positional Tolerances'
p1001
sL1484L
S'Design Decision-Making in the Early Stages of Collaborative Engineering'
p1002
sL1486L
S'Identifying Variable Effects on the Dimensional Quality of Compliant Assembly, Using Computer Experiments'
p1003
sL1488L
S'Reconstructing Freeform Surface With Parameterized Features'
p1004
sL1489L
S'Analysis and Design of a Four-Bar Linkage Type of Vibratory Parts Feeder Driven by Piezoelectric Actuator'
p1005
sL1490L
S'Autogenetic Design Theory: An Approach to Optimise Both the Design Process and the Product'
p1006
sL1491L
S'Human Head Aesthetic Design Using Hybrid Genetic Algorithm'
p1007
sL1492L
S'Applying Universal Linking of Engineering Objects in the Automotive Industry: Practical Aspects, Benefits, and Prototypes'
p1008
sL1493L
S'Mini-Max Type Formulation of Strict Robust Design Optimization Under Correlative Variation'
p1009
sL1494L
S'Optimization of Machine System Designs Using Hierarchical Decomposition Based on Criteria Influence'
p1010
sL1495L
S'Lifecycle-Based Product Design Using Global Optimization Methods Based on Hierarchical Genotype Representation of Alternatives and Constraints'
p1011
sL1496L
S'Conceptual Design of Tool Storage Based on the Divergent Tree Method'
p1012
sL1497L
S'Comparison of Gradient and Non Gradient Based Methods for Crash Optimisation'
p1013
sL1498L
S'Computational Geometric Modeling and Unfolding of 3-D Folded Structures'
p1014
sL1499L
S'Performance Optimization of Extrusion Blow Molded Parts Using Fuzzy Neural-Taguchi Method and Genetic Algorithm'
p1015
sL1500L
S'An Evolutionary Clustering Approach to Pareto Solutions in Multiobjective Optimization'
p1016
sL1501L
S'Automatic Conceptual Design of Mechanical Devices Based on Reasoning the Design Rules'
p1017
sL1502L
S'A Study on Collaborative Design Considering Features of Design'
p1018
sL1503L
S'Reconfiguration of Kinematic Structure for Changing Motion Requirement Based on Reusability Evaluation in Lie Algebra'
p1019
sL1504L
S'A Study on Optimum Topology of Plate Structure Using Coordinate Transformation by Conformal Mapping'
p1020
sL1505L
S'Computer-Aided Analysis of Free Transverse-Vibration of Stepped Beams'
p1021
sL1506L
S'Thermal Robustness and Mass Optimization of Heat Pipe Shape for Spacecraft Panel Using a Combination of Response Surface Methodology and Monte Carlo Simulation'
p1022
sL1507L
S'Dual Stage Input Coupled Split Power Transmission Efficiency Optimization'
p1023
sL1508L
S'Informing Design Using Data Mining Methods'
p1024
sL1509L
S'Development of Multi-Stage and Hybrid Real-Coded Genetic Algorithms With Active Constraints'
p1025
sL1510L
S'Computational Recognition of Functional Parameters of Surfaces for the Kinematic Design of Window Regulator Systems'
p1026
sL1511L
S'Human Modelling: A Constraint-Based Feature Modelling Approach'
p1027
sL1512L
S'Analysis of Loads and Stresses for a Sewing Needle'
p1028
sL1513L
S'Artificial Immune System Based Isomorphism Identification Method for Mechanism Kinematics Chains'
p1029
sL1515L
S'Cross Model Shape Reuse: Copying and Pasting of Freeform Features'
p1030
sL1516L
S'Automated Design Synthesis for Micro-Electro-Mechanical Systems (MEMS)'
p1031
sL1517L
S'Use of Constrained Viscoelastic Layers in the Design of Satellite Panels to Predict the Amplification Factor'
p1032
sL1518L
S'Stiffness Testing of Hydraulic Hoses'
p1033
sL1519L
S'Finite Element Analysis in 3D Using the Penalty Boundary Method'
p1034
sL1520L
S'Integration of Commercial CAD/CAM System With Custom CAPP Using Orbix Middleware and CORBA Standard'
p1035
sL1521L
S'Counting Degrees of Freedom for Developable Bezier Surface Design'
p1036
sL1522L
S'Determination of Geometric Distortions in Automotive Lamps Using Non-Linear Parametric Estimations'
p1037
sL1523L
S'Macroscopic Shape-Information as a Curve Design-Guideline'
p1038
sL1524L
S'Collaborative Decision Making Across Digital Interfaces'
p1039
sL1525L
S'Local Least Squares Fitting for Surface Mesh Fairing in Automobile Panel Design'
p1040
sL1526L
S'A Stochastic Optimization Application for Vehicle Structures'
p1041
sL1527L
S'Math-Based Performance Evaluation of an Experimental Car: Side Impact Protection'
p1042
sL1528L
S'Model Reduction in Structural Analysis Using a Multiresolution Analysis'
p1043
sL1529L
S'A Web Enabled Process for Accessing Customized Parametric Designs'
p1044
sL1530L
S'Multiattribute Decision Making Using Hypothetical Equivalents'
p1045
sL1531L
S'Interactive Product Design Selection With an Implicit Value Function'
p1046
sL1532L
S'A Customer-Based Expected Utility Metric for Product Design Selection'
p1047
sL1533L
S'Empirical Analysis Using Advanced Similarity Methods'
p1048
sL1534L
S'Decomposition-Based Assembly Synthesis Based on Structural Stiffness Considerations'
p1049
sL1535L
S'An Analytical Approach to Functional Design'
p1050
ssb.