(dp1
I1
I0
sI2
I1
sI3
I2
sI4
I3
sI5
I4
sI6
I5
sI7
I6
sI8
I7
sI9
I8
sI10
I9
sI11
I10
sI12
I11
sI13
I12
sI14
I13
sI15
I14
sI16
I15
sI17
I16
sI18
I17
sI19
I18
sI20
I19
sI21
I20
sI22
I21
sI23
I22
sI24
I23
sI25
I24
sI26
I25
sI27
I26
sI28
I27
sI29
I28
sI30
I29
sI31
I30
sI32
I31
sI33
I32
sI34
I33
sI35
I34
sI36
I35
sI37
I36
sI38
I37
sI39
I38
sI40
I39
sI41
I40
sI42
I41
sI43
I42
sI44
I43
sI45
I44
sI46
I45
sI47
I46
sI48
I47
sI49
I48
sI50
I49
sI51
I50
sI52
I51
sI53
I52
sI54
I53
sI55
I54
sI56
I55
sI57
I56
sI58
I57
sI59
I58
sI60
I59
sI61
I60
sI62
I61
sI63
I62
sI64
I63
sI65
I64
sI66
I65
sI67
I66
sI68
I67
sI69
I68
sI70
I69
sI71
I70
sI72
I71
sI73
I72
sI74
I73
sI75
I74
sI76
I75
sI77
I76
sI78
I77
sI79
I78
sI80
I79
sI81
I80
sI82
I81
sI83
I82
sI84
I83
sI85
I84
sI86
I85
sI87
I86
sI88
I87
sI89
I88
sI90
I89
sI91
I90
sI92
I91
sI93
I92
sI94
I93
sI95
I94
sI96
I95
sI97
I96
sI98
I97
sI99
I98
sI100
I99
sI101
I100
sI102
I101
sI103
I102
sI104
I103
sI105
I104
sI106
I105
sI107
I106
sI108
I107
sI109
I108
sI110
I109
sI111
I110
sI112
I111
sI113
I112
sI114
I113
sI115
I114
sI116
I115
sI117
I116
sI118
I117
sI119
I118
sI120
I119
sI121
I120
sI122
I121
sI123
I122
sI124
I123
sI125
I124
sI126
I125
sI127
I126
sI128
I127
sI129
I128
sI130
I129
sI131
I130
sI132
I131
sI133
I132
sI134
I133
sI135
I134
sI136
I135
sI137
I136
sI138
I137
sI139
I138
sI140
I139
sI141
I140
sI142
I141
sI143
I142
sI144
I143
sI145
I144
sI146
I145
sI147
I146
sI148
I147
sI149
I148
sI150
I149
sI151
I150
sI152
I151
sI153
I152
sI154
I153
sI155
I154
sI156
I155
sI157
I156
sI158
I157
sI159
I158
sI160
I159
sI161
I160
sI162
I161
sI163
I162
sI164
I163
sI165
I164
sI166
I165
sI167
I166
sI168
I167
sI169
I168
sI170
I169
sI171
I170
sI172
I171
sI173
I172
sI174
I173
sI175
I174
sI176
I175
sI177
I176
sI178
I177
sI179
I178
sI180
I179
sI181
I180
sI182
I181
sI183
I182
sI184
I183
sI185
I184
sI186
I185
sI187
I186
sI188
I187
sI189
I188
sI190
I189
sI191
I190
sI192
I191
sI193
I192
sI194
I193
sI195
I194
sI197
I195
sI198
I196
sI199
I197
sI200
I198
sI201
I199
sI202
I200
sI203
I201
sI204
I202
sI205
I203
sI206
I204
sI207
I205
sI208
I206
sI209
I207
sI210
I208
sI211
I209
sI212
I210
sI213
I211
sI214
I212
sI215
I213
sI216
I214
sI217
I215
sI218
I216
sI219
I217
sI220
I218
sI221
I219
sI222
I220
sI223
I221
sI224
I222
sI225
I223
sI226
I224
sI227
I225
sI228
I226
sI229
I227
sI230
I228
sI231
I229
sI232
I230
sI233
I231
sI234
I232
sI235
I233
sI236
I234
sI237
I235
sI238
I236
sI239
I237
sI240
I238
sI241
I239
sI242
I240
sI243
I241
sI244
I242
sI245
I243
sI246
I244
sI247
I245
sI248
I246
sI249
I247
sI250
I248
sI251
I249
sI252
I250
sI253
I251
sI254
I252
sI255
I253
sI256
I254
sI257
I255
sI258
I256
sI259
I257
sI260
I258
sI261
I259
sI262
I260
sI263
I261
sI264
I262
sI265
I263
sI266
I264
sI267
I265
sI268
I266
sI269
I267
sI270
I268
sI271
I269
sI272
I270
sI273
I271
sI274
I272
sI275
I273
sI276
I274
sI277
I275
sI278
I276
sI279
I277
sI280
I278
sI281
I279
sI282
I280
sI283
I281
sI284
I282
sI285
I283
sI286
I284
sI287
I285
sI288
I286
sI289
I287
sI290
I288
sI291
I289
sI292
I290
sI293
I291
sI294
I292
sI295
I293
sI296
I294
sI297
I295
sI298
I296
sI299
I297
sI300
I298
sI301
I299
sI302
I300
sI303
I301
sI304
I302
sI305
I303
sI306
I304
sI307
I305
sI308
I306
sI309
I307
sI310
I308
sI311
I309
sI312
I310
sI313
I311
sI314
I312
sI315
I313
sI316
I314
sI317
I315
sI318
I316
sI319
I317
sI320
I318
sI321
I319
sI322
I320
sI323
I321
sI324
I322
sI325
I323
sI326
I324
sI327
I325
sI328
I326
sI329
I327
sI330
I328
sI331
I329
sI332
I330
sI333
I331
sI334
I332
sI335
I333
sI336
I334
sI337
I335
sI338
I336
sI339
I337
sI340
I338
sI341
I339
sI342
I340
sI343
I341
sI344
I342
sI345
I343
sI346
I344
sI347
I345
sI348
I346
sI349
I347
sI350
I348
sI351
I349
sI352
I350
sI353
I351
sI354
I352
sI355
I353
sI356
I354
sI357
I355
sI358
I356
sI359
I357
sI360
I358
sI361
I359
sI362
I360
sI363
I361
sI364
I362
sI365
I363
sI366
I364
sI367
I365
sI368
I366
sI369
I367
sI370
I368
sI371
I369
sI372
I370
sI373
I371
sI374
I372
sI375
I373
sI376
I374
sI377
I375
sI378
I376
sI379
I377
sI380
I378
sI381
I379
sI382
I380
sI383
I381
sI384
I382
sI385
I383
sI386
I384
sI387
I385
sI388
I386
sI389
I387
sI390
I388
sI391
I389
sI392
I390
sI393
I391
sI394
I392
sI395
I393
sI396
I394
sI397
I395
sI398
I396
sI399
I397
sI400
I398
sI401
I399
sI402
I400
sI403
I401
sI404
I402
sI405
I403
sI406
I404
sI407
I405
sI408
I406
sI409
I407
sI410
I408
sI411
I409
sI412
I410
sI413
I411
sI414
I412
sI415
I413
sI416
I414
sI418
I415
sI419
I416
sI420
I417
sI421
I418
sI422
I419
sI423
I420
sI424
I421
sI425
I422
sI426
I423
sI427
I424
sI428
I425
sI429
I426
sI430
I427
sI431
I428
sI432
I429
sI433
I430
sI434
I431
sI435
I432
sI436
I433
sI437
I434
sI438
I435
sI439
I436
sI440
I437
sI441
I438
sI442
I439
sI443
I440
sI444
I441
sI445
I442
sI446
I443
sI447
I444
sI448
I445
sI449
I446
sI450
I447
sI451
I448
sI452
I449
sI453
I450
sI454
I451
sI455
I452
sI456
I453
sI457
I454
sI458
I455
sI459
I456
sI460
I457
sI461
I458
sI462
I459
sI463
I460
sI464
I461
sI465
I462
sI466
I463
sI467
I464
sI468
I465
sI469
I466
sI470
I467
sI471
I468
sI472
I469
sI473
I470
sI474
I471
sI475
I472
sI476
I473
sI477
I474
sI478
I475
sI479
I476
sI480
I477
sI481
I478
sI482
I479
sI483
I480
sI484
I481
sI485
I482
sI486
I483
sI487
I484
sI488
I485
sI489
I486
sI490
I487
sI491
I488
sI492
I489
sI493
I490
sI494
I491
sI495
I492
sI496
I493
sI497
I494
sI498
I495
sI499
I496
sI500
I497
sI501
I498
sI502
I499
sI503
I500
sI504
I501
sI505
I502
sI506
I503
sI507
I504
sI508
I505
sI509
I506
sI510
I507
sI511
I508
sI512
I509
sI513
I510
sI514
I511
sI515
I512
sI516
I513
sI517
I514
sI518
I515
sI519
I516
sI520
I517
sI521
I518
sI522
I519
sI523
I520
sI524
I521
sI525
I522
sI526
I523
sI527
I524
sI528
I525
sI529
I526
sI530
I527
sI531
I528
sI532
I529
sI533
I530
sI534
I531
sI535
I532
sI536
I533
sI537
I534
sI538
I535
sI539
I536
sI540
I537
sI541
I538
sI542
I539
sI543
I540
sI546
I541
sI547
I542
sI548
I543
sI550
I544
sI551
I545
sI552
I546
sI553
I547
sI554
I548
sI555
I549
sI556
I550
sI557
I551
sI558
I552
sI560
I553
sI561
I554
sI562
I555
sI563
I556
sI564
I557
sI565
I558
sI566
I559
sI567
I560
sI568
I561
sI569
I562
sI570
I563
sI571
I564
sI572
I565
sI573
I566
sI574
I567
sI575
I568
sI576
I569
sI577
I570
sI578
I571
sI579
I572
sI580
I573
sI581
I574
sI582
I575
sI583
I576
sI584
I577
sI585
I578
sI586
I579
sI587
I580
sI588
I581
sI589
I582
sI590
I583
sI591
I584
sI592
I585
sI593
I586
sI594
I587
sI595
I588
sI596
I589
sI597
I590
sI598
I591
sI599
I592
sI600
I593
sI601
I594
sI602
I595
sI603
I596
sI604
I597
sI605
I598
sI606
I599
sI607
I600
sI608
I601
sI609
I602
sI610
I603
sI611
I604
sI612
I605
sI613
I606
sI614
I607
sI615
I608
sI616
I609
sI617
I610
sI618
I611
sI619
I612
sI620
I613
sI621
I614
sI622
I615
sI623
I616
sI624
I617
sI625
I618
sI626
I619
sI627
I620
sI628
I621
sI629
I622
sI630
I623
sI631
I624
sI632
I625
sI633
I626
sI634
I627
sI635
I628
sI636
I629
sI637
I630
sI638
I631
sI639
I632
sI640
I633
sI641
I634
sI642
I635
sI643
I636
sI644
I637
sI645
I638
sI646
I639
sI647
I640
sI648
I641
sI649
I642
sI650
I643
sI651
I644
sI652
I645
sI653
I646
sI654
I647
sI655
I648
sI656
I649
sI657
I650
sI658
I651
sI659
I652
sI660
I653
sI661
I654
sI662
I655
sI663
I656
sI664
I657
sI665
I658
sI666
I659
sI667
I660
sI668
I661
sI669
I662
sI670
I663
sI671
I664
sI672
I665
sI673
I666
sI674
I667
sI675
I668
sI676
I669
sI677
I670
sI678
I671
sI679
I672
sI680
I673
sI681
I674
sI682
I675
sI683
I676
sI684
I677
sI685
I678
sI686
I679
sI687
I680
sI688
I681
sI689
I682
sI690
I683
sI692
I684
sI693
I685
sI694
I686
sI695
I687
sI696
I688
sI697
I689
sI698
I690
sI699
I691
sI700
I692
sI701
I693
sI702
I694
sI703
I695
sI704
I696
sI705
I697
sI706
I698
sI707
I699
sI708
I700
sI709
I701
sI710
I702
sI711
I703
sI712
I704
sI713
I705
sI714
I706
sI715
I707
sI716
I708
sI717
I709
sI718
I710
sI719
I711
sI720
I712
sI721
I713
sI722
I714
sI723
I715
sI724
I716
sI725
I717
sI726
I718
sI727
I719
sI728
I720
sI730
I721
sI731
I722
sI732
I723
sI733
I724
sI734
I725
sI735
I726
sI736
I727
sI737
I728
sI739
I729
sI740
I730
sI741
I731
sI742
I732
sI743
I733
sI745
I734
sI746
I735
sI747
I736
sI748
I737
sI749
I738
sI750
I739
sI751
I740
sI752
I741
sI753
I742
sI754
I743
sI755
I744
sI756
I745
sI757
I746
sI758
I747
sI761
I748
sI762
I749
sI763
I750
sI764
I751
sI765
I752
sI766
I753
sI767
I754
sI768
I755
sI769
I756
sI770
I757
sI771
I758
sI772
I759
sI773
I760
sI774
I761
sI775
I762
sI776
I763
sI777
I764
sI778
I765
sI779
I766
sI780
I767
sI781
I768
sI782
I769
sI783
I770
sI784
I771
sI785
I772
sI786
I773
sI787
I774
sI789
I775
sI790
I776
sI791
I777
sI792
I778
sI793
I779
sI794
I780
sI795
I781
sI796
I782
sI797
I783
sI798
I784
sI799
I785
sI800
I786
sI801
I787
sI802
I788
sI803
I789
sI804
I790
sI805
I791
sI806
I792
sI807
I793
sI808
I794
sI809
I795
sI810
I796
sI811
I797
sI812
I798
sI813
I799
sI814
I800
sI815
I801
sI816
I802
sI817
I803
sI818
I804
sI819
I805
sI820
I806
sI822
I807
sI823
I808
sI824
I809
sI825
I810
sI826
I811
sI827
I812
sI828
I813
sI829
I814
sI830
I815
sI831
I816
sI832
I817
sI833
I818
sI834
I819
sI835
I820
sI836
I821
sI837
I822
sI838
I823
sI839
I824
sI840
I825
sI841
I826
sI842
I827
sI843
I828
sI844
I829
sI845
I830
sI846
I831
sI847
I832
sI849
I833
sI850
I834
sI851
I835
sI852
I836
sI853
I837
sI854
I838
sI855
I839
sI856
I840
sI857
I841
sI858
I842
sI859
I843
sI860
I844
sI861
I845
sI862
I846
sI863
I847
sI864
I848
sI865
I849
sI866
I850
sI867
I851
sI868
I852
sI869
I853
sI870
I854
sI871
I855
sI872
I856
sI873
I857
sI874
I858
sI875
I859
sI876
I860
sI877
I861
sI878
I862
sI879
I863
sI880
I864
sI882
I865
sI883
I866
sI884
I867
sI885
I868
sI886
I869
sI887
I870
sI888
I871
sI889
I872
sI890
I873
sI891
I874
sI892
I875
sI893
I876
sI894
I877
sI895
I878
sI896
I879
sI897
I880
sI898
I881
sI899
I882
sI900
I883
sI902
I884
sI903
I885
sI905
I886
sI906
I887
sI907
I888
sI908
I889
sI909
I890
sI910
I891
sI911
I892
sI912
I893
sI913
I894
sI914
I895
sI915
I896
sI916
I897
sI917
I898
sI918
I899
sI919
I900
sI920
I901
sI921
I902
sI922
I903
sI923
I904
sI924
I905
sI925
I906
sI926
I907
sI927
I908
sI928
I909
sI929
I910
sI930
I911
sI931
I912
sI932
I913
sI933
I914
sI934
I915
sI935
I916
sI936
I917
sI937
I918
sI938
I919
sI939
I920
sI940
I921
sI941
I922
sI942
I923
sI943
I924
sI944
I925
sI945
I926
sI946
I927
sI947
I928
sI948
I929
sI949
I930
sI950
I931
sI951
I932
sI952
I933
sI953
I934
sI954
I935
sI955
I936
sI956
I937
sI957
I938
sI958
I939
sI959
I940
sI960
I941
sI962
I942
sI963
I943
sI964
I944
sI965
I945
sI967
I946
sI968
I947
sI969
I948
sI970
I949
sI972
I950
sI973
I951
sI974
I952
sI975
I953
sI976
I954
sI977
I955
sI978
I956
sI979
I957
sI980
I958
sI981
I959
sI982
I960
sI983
I961
sI984
I962
sI985
I963
sI986
I964
sI987
I965
sI988
I966
sI989
I967
sI990
I968
sI991
I969
sI992
I970
sI993
I971
sI994
I972
sI995
I973
sI996
I974
sI997
I975
sI998
I976
sI999
I977
sI1000
I978
sI1001
I979
sI1002
I980
sI1003
I981
sI1004
I982
sI1005
I983
sI1006
I984
sI1007
I985
sI1008
I986
sI1009
I987
sI1010
I988
sI1011
I989
sI1012
I990
sI1013
I991
sI1014
I992
sI1015
I993
sI1016
I994
sI1017
I995
sI1018
I996
sI1019
I997
sI1020
I998
sI1021
I999
sI1022
I1000
sI1023
I1001
sI1024
I1002
sI1025
I1003
sI1026
I1004
sI1027
I1005
sI1028
I1006
sI1029
I1007
sI1030
I1008
sI1031
I1009
sI1032
I1010
sI1033
I1011
sI1034
I1012
sI1035
I1013
sI1036
I1014
sI1037
I1015
sI1038
I1016
sI1039
I1017
sI1040
I1018
sI1041
I1019
sI1042
I1020
sI1043
I1021
sI1044
I1022
sI1045
I1023
sI1046
I1024
sI1047
I1025
sI1048
I1026
sI1049
I1027
sI1050
I1028
sI1051
I1029
sI1052
I1030
sI1053
I1031
sI1054
I1032
sI1055
I1033
sI1056
I1034
sI1057
I1035
sI1058
I1036
sI1059
I1037
sI1060
I1038
sI1061
I1039
sI1062
I1040
sI1063
I1041
sI1064
I1042
sI1065
I1043
sI1066
I1044
sI1067
I1045
sI1068
I1046
sI1069
I1047
sI1070
I1048
sI1071
I1049
sI1072
I1050
sI1073
I1051
sI1074
I1052
sI1075
I1053
sI1076
I1054
sI1077
I1055
sI1078
I1056
sI1079
I1057
sI1080
I1058
sI1081
I1059
sI1082
I1060
sI1083
I1061
sI1084
I1062
sI1085
I1063
sI1086
I1064
sI1087
I1065
sI1088
I1066
sI1089
I1067
sI1090
I1068
sI1091
I1069
sI1092
I1070
sI1093
I1071
sI1094
I1072
sI1095
I1073
sI1096
I1074
sI1097
I1075
sI1098
I1076
sI1099
I1077
sI1100
I1078
sI1101
I1079
sI1102
I1080
sI1103
I1081
sI1104
I1082
sI1105
I1083
sI1106
I1084
sI1107
I1085
sI1108
I1086
sI1109
I1087
sI1110
I1088
sI1111
I1089
sI1112
I1090
sI1113
I1091
sI1114
I1092
sI1115
I1093
sI1116
I1094
sI1117
I1095
sI1118
I1096
sI1119
I1097
sI1120
I1098
sI1121
I1099
sI1122
I1100
sI1123
I1101
sI1124
I1102
sI1125
I1103
sI1126
I1104
sI1127
I1105
sI1128
I1106
sI1129
I1107
sI1130
I1108
sI1131
I1109
sI1132
I1110
sI1133
I1111
sI1134
I1112
sI1135
I1113
sI1136
I1114
sI1137
I1115
sI1138
I1116
sI1139
I1117
sI1140
I1118
sI1141
I1119
sI1142
I1120
sI1143
I1121
sI1144
I1122
sI1145
I1123
sI1146
I1124
sI1147
I1125
sI1148
I1126
sI1149
I1127
sI1150
I1128
sI1151
I1129
sI1152
I1130
sI1153
I1131
sI1154
I1132
sI1155
I1133
sI1156
I1134
sI1157
I1135
sI1158
I1136
sI1159
I1137
sI1160
I1138
sI1161
I1139
sI1162
I1140
sI1163
I1141
sI1164
I1142
sI1165
I1143
sI1166
I1144
sI1167
I1145
sI1168
I1146
sI1169
I1147
sI1170
I1148
sI1171
I1149
sI1172
I1150
sI1173
I1151
sI1174
I1152
sI1175
I1153
sI1176
I1154
sI1177
I1155
sI1178
I1156
sI1179
I1157
sI1180
I1158
sI1181
I1159
sI1182
I1160
sI1183
I1161
sI1184
I1162
sI1185
I1163
sI1186
I1164
sI1187
I1165
sI1188
I1166
sI1189
I1167
sI1190
I1168
sI1191
I1169
sI1192
I1170
sI1193
I1171
sI1194
I1172
sI1195
I1173
sI1196
I1174
sI1197
I1175
sI1198
I1176
sI1199
I1177
sI1200
I1178
sI1201
I1179
sI1202
I1180
sI1203
I1181
sI1204
I1182
sI1205
I1183
sI1206
I1184
sI1207
I1185
sI1208
I1186
sI1209
I1187
sI1210
I1188
sI1211
I1189
sI1212
I1190
sI1213
I1191
sI1214
I1192
sI1215
I1193
sI1216
I1194
sI1217
I1195
sI1218
I1196
sI1219
I1197
sI1220
I1198
sI1221
I1199
sI1222
I1200
sI1223
I1201
sI1224
I1202
sI1225
I1203
sI1226
I1204
sI1227
I1205
sI1228
I1206
sI1229
I1207
sI1230
I1208
sI1231
I1209
sI1232
I1210
sI1233
I1211
sI1234
I1212
sI1235
I1213
sI1236
I1214
sI1237
I1215
sI1238
I1216
sI1239
I1217
sI1240
I1218
sI1241
I1219
sI1242
I1220
sI1243
I1221
sI1244
I1222
sI1245
I1223
sI1246
I1224
sI1247
I1225
sI1248
I1226
sI1249
I1227
sI1250
I1228
sI1251
I1229
sI1253
I1230
sI1254
I1231
sI1255
I1232
sI1256
I1233
sI1257
I1234
sI1258
I1235
sI1259
I1236
sI1260
I1237
sI1261
I1238
sI1262
I1239
sI1263
I1240
sI1264
I1241
sI1265
I1242
sI1266
I1243
sI1267
I1244
sI1268
I1245
sI1269
I1246
sI1270
I1247
sI1271
I1248
sI1272
I1249
sI1273
I1250
sI1275
I1251
sI1276
I1252
sI1277
I1253
sI1278
I1254
sI1279
I1255
sI1280
I1256
sI1281
I1257
sI1282
I1258
sI1283
I1259
sI1284
I1260
sI1285
I1261
sI1286
I1262
sI1287
I1263
sI1288
I1264
sI1289
I1265
sI1290
I1266
sI1291
I1267
sI1292
I1268
sI1293
I1269
sI1294
I1270
sI1295
I1271
sI1296
I1272
sI1297
I1273
sI1298
I1274
sI1299
I1275
sI1300
I1276
sI1301
I1277
sI1302
I1278
sI1303
I1279
sI1304
I1280
sI1305
I1281
sI1306
I1282
sI1307
I1283
sI1308
I1284
sI1309
I1285
sI1310
I1286
sI1311
I1287
sI1312
I1288
sI1313
I1289
sI1314
I1290
sI1315
I1291
sI1316
I1292
sI1317
I1293
sI1318
I1294
sI1319
I1295
sI1320
I1296
sI1321
I1297
sI1322
I1298
sI1323
I1299
sI1324
I1300
sI1325
I1301
sI1326
I1302
sI1327
I1303
sI1328
I1304
sI1329
I1305
sI1330
I1306
sI1331
I1307
sI1332
I1308
sI1333
I1309
sI1334
I1310
sI1335
I1311
sI1336
I1312
sI1337
I1313
sI1338
I1314
sI1339
I1315
sI1340
I1316
sI1341
I1317
sI1342
I1318
sI1343
I1319
sI1344
I1320
sI1345
I1321
sI1346
I1322
sI1347
I1323
sI1348
I1324
sI1349
I1325
sI1350
I1326
sI1351
I1327
sI1352
I1328
sI1353
I1329
sI1354
I1330
sI1355
I1331
sI1356
I1332
sI1357
I1333
sI1358
I1334
sI1359
I1335
sI1360
I1336
sI1361
I1337
sI1362
I1338
sI1363
I1339
sI1364
I1340
sI1365
I1341
sI1366
I1342
sI1367
I1343
sI1368
I1344
sI1369
I1345
sI1370
I1346
sI1371
I1347
sI1372
I1348
sI1373
I1349
sI1374
I1350
sI1375
I1351
sI1376
I1352
sI1377
I1353
sI1378
I1354
sI1379
I1355
sI1380
I1356
sI1381
I1357
sI1382
I1358
sI1383
I1359
sI1384
I1360
sI1385
I1361
sI1386
I1362
sI1387
I1363
sI1388
I1364
sI1389
I1365
sI1390
I1366
sI1391
I1367
sI1392
I1368
sI1393
I1369
sI1394
I1370
sI1395
I1371
sI1396
I1372
sI1397
I1373
sI1398
I1374
sI1399
I1375
sI1400
I1376
sI1401
I1377
sI1402
I1378
sI1403
I1379
sI1404
I1380
sI1405
I1381
sI1406
I1382
sI1407
I1383
sI1408
I1384
sI1409
I1385
sI1410
I1386
sI1412
I1387
sI1413
I1388
sI1414
I1389
sI1415
I1390
sI1416
I1391
sI1417
I1392
sI1418
I1393
sI1419
I1394
sI1420
I1395
sI1421
I1396
sI1422
I1397
sI1423
I1398
sI1424
I1399
sI1425
I1400
sI1426
I1401
sI1427
I1402
sI1428
I1403
sI1429
I1404
sI1430
I1405
sI1431
I1406
sI1432
I1407
sI1433
I1408
sI1434
I1409
sI1435
I1410
sI1436
I1411
sI1437
I1412
sI1438
I1413
sI1439
I1414
sI1440
I1415
sI1441
I1416
sI1442
I1417
sI1443
I1418
sI1444
I1419
sI1445
I1420
sI1447
I1421
sI1448
I1422
sI1449
I1423
sI1450
I1424
sI1451
I1425
sI1452
I1426
sI1453
I1427
sI1454
I1428
sI1455
I1429
sI1456
I1430
sI1457
I1431
sI1458
I1432
sI1459
I1433
sI1460
I1434
sI1461
I1435
sI1462
I1436
sI1463
I1437
sI1464
I1438
sI1465
I1439
sI1466
I1440
sI1467
I1441
sI1468
I1442
sI1469
I1443
sI1470
I1444
sI1471
I1445
sI1472
I1446
sI1473
I1447
sI1474
I1448
sI1475
I1449
sI1477
I1450
sI1478
I1451
sI1479
I1452
sI1480
I1453
sI1481
I1454
sI1482
I1455
sI1483
I1456
sI1484
I1457
sI1485
I1458
sI1486
I1459
sI1487
I1460
sI1488
I1461
sI1489
I1462
sI1490
I1463
sI1491
I1464
sI1492
I1465
sI1493
I1466
sI1494
I1467
sI1495
I1468
sI1496
I1469
sI1497
I1470
sI1498
I1471
sI1499
I1472
sI1500
I1473
sI1501
I1474
sI1502
I1475
sI1503
I1476
sI1504
I1477
sI1505
I1478
sI1506
I1479
sI1507
I1480
sI1508
I1481
sI1509
I1482
sI1510
I1483
sI1511
I1484
sI1512
I1485
sI1513
I1486
sI1514
I1487
sI1515
I1488
sI1516
I1489
sI1517
I1490
sI1518
I1491
sI1519
I1492
sI1520
I1493
sI1521
I1494
sI1522
I1495
sI1523
I1496
sI1524
I1497
sI1525
I1498
sI1526
I1499
sI1527
I1500
sI1528
I1501
sI1529
I1502
sI1530
I1503
sI1531
I1504
sI1532
I1505
sI1533
I1506
sI1534
I1507
sI1535
I1508
sI1536
I1509
sI1537
I1510
sI1538
I1511
sI1539
I1512
sI1540
I1513
sI1541
I1514
sI1542
I1515
sI1543
I1516
sI1544
I1517
sI1545
I1518
sI1546
I1519
sI1547
I1520
sI1548
I1521
sI1549
I1522
sI1550
I1523
sI1551
I1524
sI1552
I1525
sI1553
I1526
sI1554
I1527
sI1555
I1528
sI1556
I1529
sI1557
I1530
sI1559
I1531
sI1560
I1532
sI1561
I1533
sI1562
I1534
sI1563
I1535
sI1564
I1536
sI1565
I1537
sI1566
I1538
sI1567
I1539
sI1568
I1540
sI1569
I1541
sI1570
I1542
sI1571
I1543
sI1572
I1544
sI1573
I1545
sI1574
I1546
sI1575
I1547
sI1576
I1548
sI1577
I1549
sI1578
I1550
sI1579
I1551
sI1580
I1552
sI1581
I1553
sI1582
I1554
sI1584
I1555
sI1585
I1556
sI1586
I1557
sI1587
I1558
sI1588
I1559
sI1589
I1560
sI1590
I1561
sI1591
I1562
sI1592
I1563
sI1593
I1564
sI1594
I1565
sI1595
I1566
sI1596
I1567
sI1597
I1568
sI1598
I1569
sI1599
I1570
sI1600
I1571
sI1601
I1572
sI1602
I1573
sI1603
I1574
sI1604
I1575
sI1605
I1576
sI1606
I1577
sI1607
I1578
sI1608
I1579
sI1609
I1580
sI1610
I1581
sI1611
I1582
sI1612
I1583
sI1613
I1584
sI1614
I1585
sI1615
I1586
sI1616
I1587
sI1617
I1588
sI1618
I1589
sI1619
I1590
sI1620
I1591
sI1621
I1592
sI1622
I1593
sI1623
I1594
sI1624
I1595
sI1625
I1596
sI1626
I1597
sI1627
I1598
sI1629
I1599
sI1630
I1600
sI1631
I1601
sI1632
I1602
sI1633
I1603
sI1634
I1604
sI1635
I1605
sI1636
I1606
sI1637
I1607
sI1638
I1608
sI1639
I1609
sI1640
I1610
sI1641
I1611
sI1642
I1612
sI1643
I1613
sI1644
I1614
sI1645
I1615
sI1646
I1616
sI1647
I1617
sI1648
I1618
sI1649
I1619
sI1650
I1620
sI1651
I1621
sI1652
I1622
sI1653
I1623
sI1654
I1624
sI1655
I1625
sI1656
I1626
sI1657
I1627
sI1658
I1628
sI1659
I1629
sI1660
I1630
sI1661
I1631
sI1662
I1632
sI1663
I1633
sI1664
I1634
sI1665
I1635
sI1666
I1636
sI1667
I1637
sI1668
I1638
sI1669
I1639
sI1670
I1640
sI1671
I1641
sI1672
I1642
sI1673
I1643
sI1674
I1644
sI1675
I1645
sI1676
I1646
sI1677
I1647
sI1678
I1648
sI1679
I1649
sI1680
I1650
sI1681
I1651
sI1682
I1652
sI1683
I1653
sI1684
I1654
sI1685
I1655
sI1686
I1656
sI1687
I1657
sI1688
I1658
sI1689
I1659
sI1690
I1660
sI1691
I1661
sI1692
I1662
sI1693
I1663
sI1694
I1664
sI1695
I1665
sI1696
I1666
sI1697
I1667
sI1698
I1668
sI1699
I1669
sI1700
I1670
sI1701
I1671
sI1702
I1672
sI1703
I1673
sI1704
I1674
sI1705
I1675
sI1706
I1676
sI1707
I1677
sI1708
I1678
sI1709
I1679
sI1710
I1680
sI1712
I1681
sI1713
I1682
sI1714
I1683
sI1715
I1684
sI1716
I1685
sI1717
I1686
sI1718
I1687
sI1719
I1688
sI1720
I1689
sI1721
I1690
sI1722
I1691
sI1723
I1692
sI1724
I1693
sI1726
I1694
sI1727
I1695
sI1728
I1696
sI1729
I1697
sI1730
I1698
sI1731
I1699
sI1732
I1700
sI1734
I1701
sI1735
I1702
sI1736
I1703
sI1737
I1704
sI1738
I1705
sI1739
I1706
sI1740
I1707
sI1741
I1708
sI1742
I1709
sI1743
I1710
sI1744
I1711
sI1745
I1712
sI1746
I1713
sI1747
I1714
sI1748
I1715
sI1750
I1716
sI1751
I1717
sI1752
I1718
sI1753
I1719
sI1754
I1720
sI1755
I1721
sI1756
I1722
sI1757
I1723
sI1758
I1724
sI1759
I1725
sI1760
I1726
sI1761
I1727
sI1762
I1728
sI1763
I1729
sI1764
I1730
sI1765
I1731
sI1766
I1732
sI1767
I1733
sI1768
I1734
sI1769
I1735
sI1770
I1736
sI1771
I1737
sI1772
I1738
sI1773
I1739
sI1774
I1740
sI1775
I1741
sI1776
I1742
sI1777
I1743
sI1778
I1744
sI1779
I1745
sI1780
I1746
sI1781
I1747
sI1782
I1748
sI1783
I1749
sI1784
I1750
sI1785
I1751
sI1786
I1752
sI1787
I1753
sI1788
I1754
sI1789
I1755
sI1790
I1756
sI1791
I1757
sI1792
I1758
sI1793
I1759
sI1794
I1760
sI1795
I1761
sI1796
I1762
sI1797
I1763
sI1798
I1764
sI1799
I1765
sI1800
I1766
sI1801
I1767
sI1802
I1768
sI1803
I1769
sI1804
I1770
sI1805
I1771
sI1806
I1772
sI1807
I1773
sI1808
I1774
sI1809
I1775
sI1810
I1776
sI1811
I1777
sI1812
I1778
sI1813
I1779
sI1814
I1780
sI1815
I1781
sI1816
I1782
sI1817
I1783
sI1818
I1784
sI1819
I1785
sI1820
I1786
sI1821
I1787
sI1822
I1788
sI1823
I1789
sI1824
I1790
sI1825
I1791
sI1826
I1792
sI1827
I1793
sI1828
I1794
sI1829
I1795
sI1830
I1796
sI1831
I1797
sI1832
I1798
sI1833
I1799
sI1834
I1800
sI1835
I1801
sI1836
I1802
sI1837
I1803
sI1838
I1804
sI1839
I1805
sI1840
I1806
sI1841
I1807
sI1842
I1808
sI1843
I1809
sI1844
I1810
sI1845
I1811
sI1846
I1812
sI1847
I1813
sI1848
I1814
sI1849
I1815
sI1850
I1816
sI1851
I1817
sI1852
I1818
sI1854
I1819
sI1855
I1820
sI1856
I1821
sI1857
I1822
sI1858
I1823
sI1859
I1824
sI1860
I1825
sI1861
I1826
sI1862
I1827
sI1863
I1828
sI1864
I1829
sI1865
I1830
sI1866
I1831
sI1867
I1832
sI1868
I1833
sI1869
I1834
sI1870
I1835
sI1872
I1836
sI1873
I1837
sI1874
I1838
sI1875
I1839
sI1876
I1840
sI1877
I1841
sI1878
I1842
sI1879
I1843
sI1880
I1844
sI1881
I1845
sI1882
I1846
sI1883
I1847
sI1884
I1848
sI1885
I1849
sI1886
I1850
sI1887
I1851
sI1888
I1852
sI1889
I1853
sI1890
I1854
sI1891
I1855
sI1892
I1856
sI1893
I1857
sI1894
I1858
sI1895
I1859
sI1896
I1860
sI1897
I1861
sI1898
I1862
sI1899
I1863
sI1900
I1864
sI1901
I1865
sI1902
I1866
sI1904
I1867
sI1905
I1868
sI1906
I1869
sI1907
I1870
sI1908
I1871
sI1909
I1872
sI1910
I1873
sI1911
I1874
sI1912
I1875
sI1913
I1876
sI1914
I1877
sI1915
I1878
sI1916
I1879
sI1917
I1880
sI1918
I1881
sI1919
I1882
sI1920
I1883
sI1921
I1884
sI1922
I1885
sI1923
I1886
sI1924
I1887
sI1925
I1888
sI1926
I1889
sI1927
I1890
sI1928
I1891
sI1929
I1892
sI1930
I1893
sI1931
I1894
sI1932
I1895
sI1933
I1896
sI1934
I1897
sI1935
I1898
sI1936
I1899
sI1938
I1900
sI1939
I1901
sI1940
I1902
sI1941
I1903
sI1942
I1904
sI1943
I1905
sI1944
I1906
sI1945
I1907
sI1946
I1908
sI1947
I1909
sI1948
I1910
sI1949
I1911
sI1950
I1912
sI1951
I1913
sI1952
I1914
sI1953
I1915
sI1954
I1916
sI1955
I1917
sI1957
I1918
sI1958
I1919
sI1959
I1920
sI1960
I1921
sI1961
I1922
sI1962
I1923
sI1963
I1924
sI1964
I1925
sI1965
I1926
sI1966
I1927
sI1967
I1928
sI1969
I1929
sI1970
I1930
sI1971
I1931
sI1972
I1932
sI1973
I1933
sI1974
I1934
sI1975
I1935
sI1976
I1936
sI1977
I1937
sI1978
I1938
sI1979
I1939
sI1980
I1940
sI1981
I1941
sI1982
I1942
sI1983
I1943
sI1984
I1944
sI1985
I1945
sI1986
I1946
sI1987
I1947
sI1988
I1948
sI1989
I1949
sI1990
I1950
sI1991
I1951
sI1992
I1952
sI1993
I1953
sI1994
I1954
sI1995
I1955
sI1996
I1956
sI1997
I1957
sI1998
I1958
sI1999
I1959
sI2000
I1960
sI2001
I1961
sI2002
I1962
sI2003
I1963
sI2004
I1964
sI2005
I1965
sI2006
I1966
sI2007
I1967
sI2008
I1968
sI2009
I1969
sI2010
I1970
sI2011
I1971
sI2012
I1972
sI2013
I1973
sI2014
I1974
sI2015
I1975
sI2016
I1976
sI2017
I1977
sI2018
I1978
sI2019
I1979
sI2020
I1980
sI2021
I1981
sI2022
I1982
sI2023
I1983
sI2024
I1984
sI2025
I1985
sI2026
I1986
sI2027
I1987
sI2028
I1988
sI2029
I1989
sI2030
I1990
sI2031
I1991
sI2032
I1992
sI2033
I1993
sI2034
I1994
sI2036
I1995
sI2037
I1996
sI2038
I1997
sI2039
I1998
sI2040
I1999
sI2041
I2000
sI2042
I2001
sI2043
I2002
sI2044
I2003
sI2045
I2004
sI2046
I2005
sI2047
I2006
sI2048
I2007
sI2049
I2008
sI2050
I2009
sI2051
I2010
sI2052
I2011
sI2053
I2012
sI2054
I2013
sI2055
I2014
sI2056
I2015
sI2057
I2016
sI2058
I2017
sI2059
I2018
sI2060
I2019
sI2061
I2020
sI2062
I2021
sI2063
I2022
sI2064
I2023
sI2065
I2024
sI2066
I2025
sI2067
I2026
sI2068
I2027
sI2069
I2028
sI2070
I2029
sI2071
I2030
sI2072
I2031
sI2073
I2032
sI2074
I2033
sI2075
I2034
sI2076
I2035
sI2077
I2036
sI2078
I2037
sI2079
I2038
sI2080
I2039
sI2081
I2040
sI2082
I2041
sI2083
I2042
sI2084
I2043
sI2085
I2044
sI2086
I2045
sI2087
I2046
sI2088
I2047
sI2089
I2048
sI2090
I2049
sI2091
I2050
sI2092
I2051
sI2093
I2052
sI2094
I2053
sI2095
I2054
sI2096
I2055
sI2097
I2056
sI2098
I2057
sI2099
I2058
sI2100
I2059
sI2101
I2060
sI2102
I2061
sI2103
I2062
sI2104
I2063
sI2105
I2064
sI2106
I2065
sI2107
I2066
sI2108
I2067
sI2109
I2068
sI2110
I2069
sI2111
I2070
sI2112
I2071
sI2113
I2072
sI2114
I2073
sI2115
I2074
sI2116
I2075
sI2117
I2076
sI2118
I2077
sI2119
I2078
sI2120
I2079
sI2121
I2080
sI2122
I2081
sI2124
I2082
sI2125
I2083
sI2127
I2084
sI2128
I2085
sI2129
I2086
sI2130
I2087
sI2132
I2088
sI2133
I2089
sI2134
I2090
sI2135
I2091
sI2136
I2092
sI2137
I2093
sI2138
I2094
sI2139
I2095
sI2140
I2096
sI2141
I2097
sI2142
I2098
sI2143
I2099
sI2144
I2100
sI2146
I2101
sI2147
I2102
sI2148
I2103
sI2149
I2104
sI2150
I2105
sI2151
I2106
sI2152
I2107
sI2153
I2108
sI2154
I2109
sI2155
I2110
sI2156
I2111
sI2157
I2112
sI2158
I2113
sI2159
I2114
sI2160
I2115
sI2161
I2116
sI2162
I2117
sI2163
I2118
sI2164
I2119
sI2165
I2120
sI2166
I2121
sI2167
I2122
sI2168
I2123
sI2169
I2124
sI2170
I2125
sI2171
I2126
sI2172
I2127
sI2173
I2128
sI2174
I2129
sI2175
I2130
sI2176
I2131
sI2177
I2132
sI2178
I2133
sI2179
I2134
sI2180
I2135
sI2181
I2136
sI2182
I2137
sI2183
I2138
sI2184
I2139
sI2185
I2140
sI2186
I2141
sI2187
I2142
sI2189
I2143
sI2190
I2144
sI2191
I2145
sI2192
I2146
sI2193
I2147
sI2194
I2148
sI2195
I2149
sI2196
I2150
sI2197
I2151
sI2198
I2152
sI2199
I2153
sI2200
I2154
sI2201
I2155
sI2202
I2156
sI2203
I2157
sI2204
I2158
sI2205
I2159
sI2206
I2160
sI2207
I2161
sI2208
I2162
sI2209
I2163
sI2210
I2164
sI2211
I2165
sI2212
I2166
sI2213
I2167
sI2214
I2168
sI2215
I2169
sI2216
I2170
sI2217
I2171
sI2218
I2172
sI2219
I2173
sI2220
I2174
sI2221
I2175
sI2222
I2176
sI2223
I2177
sI2224
I2178
sI2225
I2179
sI2226
I2180
sI2227
I2181
sI2228
I2182
sI2229
I2183
sI2230
I2184
sI2231
I2185
sI2232
I2186
sI2233
I2187
sI2234
I2188
sI2235
I2189
sI2236
I2190
sI2237
I2191
sI2238
I2192
sI2239
I2193
sI2240
I2194
sI2241
I2195
sI2242
I2196
sI2243
I2197
sI2244
I2198
sI2245
I2199
sI2246
I2200
sI2247
I2201
sI2248
I2202
sI2249
I2203
sI2250
I2204
sI2251
I2205
sI2252
I2206
sI2253
I2207
sI2254
I2208
sI2255
I2209
sI2256
I2210
sI2257
I2211
sI2258
I2212
sI2259
I2213
sI2260
I2214
sI2261
I2215
sI2262
I2216
sI2263
I2217
sI2264
I2218
sI2265
I2219
sI2266
I2220
sI2267
I2221
sI2268
I2222
sI2269
I2223
sI2270
I2224
sI2271
I2225
sI2272
I2226
sI2273
I2227
sI2274
I2228
sI2275
I2229
sI2276
I2230
sI2277
I2231
sI2278
I2232
sI2279
I2233
sI2280
I2234
sI2281
I2235
sI2282
I2236
sI2283
I2237
sI2284
I2238
sI2285
I2239
sI2286
I2240
sI2287
I2241
sI2288
I2242
sI2289
I2243
sI2290
I2244
sI2291
I2245
sI2292
I2246
sI2293
I2247
sI2294
I2248
sI2295
I2249
sI2296
I2250
sI2297
I2251
sI2298
I2252
sI2299
I2253
sI2300
I2254
sI2301
I2255
sI2302
I2256
sI2303
I2257
sI2304
I2258
sI2305
I2259
sI2306
I2260
sI2307
I2261
sI2308
I2262
sI2309
I2263
sI2310
I2264
sI2311
I2265
sI2312
I2266
sI2313
I2267
sI2314
I2268
sI2315
I2269
sI2316
I2270
sI2317
I2271
sI2319
I2272
sI2320
I2273
sI2321
I2274
sI2322
I2275
sI2323
I2276
sI2324
I2277
sI2325
I2278
sI2326
I2279
sI2327
I2280
sI2328
I2281
sI2329
I2282
sI2330
I2283
sI2331
I2284
sI2332
I2285
sI2333
I2286
sI2334
I2287
sI2335
I2288
sI2336
I2289
sI2337
I2290
sI2338
I2291
sI2339
I2292
sI2341
I2293
sI2342
I2294
sI2343
I2295
sI2344
I2296
sI2345
I2297
sI2346
I2298
sI2347
I2299
sI2348
I2300
sI2349
I2301
sI2350
I2302
sI2351
I2303
sI2352
I2304
sI2353
I2305
sI2354
I2306
sI2355
I2307
sI2356
I2308
sI2357
I2309
sI2358
I2310
sI2359
I2311
sI2360
I2312
sI2361
I2313
sI2362
I2314
sI2363
I2315
sI2364
I2316
sI2365
I2317
sI2366
I2318
sI2367
I2319
sI2368
I2320
sI2369
I2321
sI2370
I2322
sI2371
I2323
sI2372
I2324
s.