(dp1
I2
I0
sI3
I1
sI4
I2
sI5
I3
sI6
I4
sI7
I5
sI8
I6
sI9
I7
sI10
I8
sI11
I9
sI12
I10
sI13
I11
sI14
I12
sI15
I13
sI16
I14
sI17
I15
sI18
I16
sI19
I17
sI20
I18
sI21
I19
sI22
I20
sI23
I21
sI24
I22
sI25
I23
sI26
I24
sI27
I25
sI28
I26
sI29
I27
sI30
I28
sI31
I29
sI32
I30
sI33
I31
sI34
I32
sI35
I33
sI36
I34
sI37
I35
sI38
I36
sI39
I37
sI40
I38
sI41
I39
sI42
I40
sI43
I41
sI44
I42
sI45
I43
sI46
I44
sI47
I45
sI48
I46
sI49
I47
sI50
I48
sI51
I49
sI52
I50
sI53
I51
sI54
I52
sI55
I53
sI56
I54
sI57
I55
sI58
I56
sI59
I57
sI60
I58
sI61
I59
sI62
I60
sI63
I61
sI64
I62
sI65
I63
sI66
I64
sI67
I65
sI68
I66
sI69
I67
sI70
I68
sI71
I69
sI72
I70
sI73
I71
sI74
I72
sI75
I73
sI76
I74
sI77
I75
sI78
I76
sI79
I77
sI80
I78
sI81
I79
sI82
I80
sI83
I81
sI84
I82
sI85
I83
sI86
I84
sI87
I85
sI88
I86
sI89
I87
sI90
I88
sI91
I89
sI92
I90
sI93
I91
sI94
I92
sI95
I93
sI96
I94
sI97
I95
sI98
I96
sI99
I97
sI100
I98
sI101
I99
sI102
I100
sI103
I101
sI104
I102
sI105
I103
sI106
I104
sI107
I105
sI108
I106
sI109
I107
sI110
I108
sI111
I109
sI112
I110
sI113
I111
sI114
I112
sI115
I113
sI116
I114
sI117
I115
sI118
I116
sI119
I117
sI120
I118
sI121
I119
sI122
I120
sI123
I121
sI124
I122
sI125
I123
sI126
I124
sI127
I125
sI128
I126
sI129
I127
sI130
I128
sI131
I129
sI132
I130
sI133
I131
sI134
I132
sI135
I133
sI136
I134
sI137
I135
sI138
I136
sI139
I137
sI140
I138
sI141
I139
sI142
I140
sI143
I141
sI144
I142
sI145
I143
sI146
I144
sI147
I145
sI148
I146
sI149
I147
sI150
I148
sI151
I149
sI152
I150
sI153
I151
sI154
I152
sI155
I153
sI156
I154
sI157
I155
sI158
I156
sI159
I157
sI160
I158
sI161
I159
sI162
I160
sI163
I161
sI164
I162
sI165
I163
sI166
I164
sI167
I165
sI168
I166
sI169
I167
sI170
I168
sI171
I169
sI172
I170
sI173
I171
sI174
I172
sI175
I173
sI176
I174
sI177
I175
sI178
I176
sI179
I177
sI180
I178
sI181
I179
sI182
I180
sI183
I181
sI184
I182
sI185
I183
sI186
I184
sI187
I185
sI188
I186
sI189
I187
sI190
I188
sI191
I189
sI192
I190
sI193
I191
sI194
I192
sI195
I193
sI196
I194
sI197
I195
sI198
I196
sI199
I197
sI200
I198
sI201
I199
sI202
I200
sI203
I201
sI204
I202
sI205
I203
sI206
I204
sI207
I205
sI208
I206
sI209
I207
sI210
I208
sI211
I209
sI212
I210
sI213
I211
sI214
I212
sI215
I213
sI216
I214
sI217
I215
sI218
I216
sI219
I217
sI220
I218
sI221
I219
sI222
I220
sI223
I221
sI224
I222
sI225
I223
sI226
I224
sI227
I225
sI228
I226
sI229
I227
sI230
I228
sI231
I229
sI232
I230
sI233
I231
sI234
I232
sI235
I233
sI236
I234
sI237
I235
sI238
I236
sI239
I237
sI240
I238
sI241
I239
sI242
I240
sI243
I241
sI244
I242
sI245
I243
sI246
I244
sI247
I245
sI248
I246
sI249
I247
sI250
I248
sI251
I249
sI252
I250
sI253
I251
sI254
I252
sI255
I253
sI256
I254
sI257
I255
sI258
I256
sI259
I257
sI260
I258
sI261
I259
sI262
I260
sI263
I261
sI264
I262
sI265
I263
sI266
I264
sI267
I265
sI268
I266
sI269
I267
sI270
I268
sI271
I269
sI272
I270
sI273
I271
sI274
I272
sI275
I273
sI276
I274
sI277
I275
sI278
I276
sI279
I277
sI280
I278
sI281
I279
sI283
I280
sI284
I281
sI285
I282
sI286
I283
sI287
I284
sI288
I285
sI289
I286
sI290
I287
sI291
I288
sI292
I289
sI293
I290
sI294
I291
sI295
I292
sI296
I293
sI297
I294
sI298
I295
sI299
I296
sI300
I297
sI301
I298
sI302
I299
sI303
I300
sI304
I301
sI305
I302
sI306
I303
sI307
I304
sI308
I305
sI309
I306
sI310
I307
sI311
I308
sI312
I309
sI313
I310
sI314
I311
sI315
I312
sI316
I313
sI317
I314
sI318
I315
sI319
I316
sI320
I317
sI321
I318
sI322
I319
sI323
I320
sI324
I321
sI325
I322
sI326
I323
sI327
I324
sI328
I325
sI329
I326
sI330
I327
sI331
I328
sI332
I329
sI333
I330
sI334
I331
sI335
I332
sI336
I333
sI337
I334
sI338
I335
sI339
I336
sI340
I337
sI341
I338
sI342
I339
sI343
I340
sI344
I341
sI345
I342
sI346
I343
sI347
I344
sI348
I345
sI349
I346
sI350
I347
sI351
I348
sI352
I349
sI353
I350
sI354
I351
sI355
I352
sI356
I353
sI357
I354
sI358
I355
sI359
I356
sI360
I357
sI361
I358
sI362
I359
sI363
I360
sI364
I361
sI365
I362
sI366
I363
sI367
I364
sI368
I365
sI369
I366
sI377
I367
sI378
I368
sI379
I369
sI381
I370
sI382
I371
sI383
I372
sI384
I373
sI385
I374
sI386
I375
sI387
I376
sI388
I377
sI389
I378
sI390
I379
sI391
I380
sI392
I381
sI393
I382
sI394
I383
sI395
I384
sI396
I385
sI397
I386
sI398
I387
sI399
I388
sI400
I389
sI401
I390
sI404
I391
sI405
I392
sI406
I393
sI407
I394
sI408
I395
sI409
I396
sI410
I397
sI411
I398
sI412
I399
sI413
I400
sI414
I401
sI415
I402
sI416
I403
sI417
I404
sI418
I405
sI420
I406
sI422
I407
sI423
I408
sI424
I409
sI425
I410
sI426
I411
sI427
I412
sI428
I413
sI429
I414
sI430
I415
sI431
I416
sI434
I417
sI435
I418
sI436
I419
sI437
I420
sI438
I421
sI439
I422
sI440
I423
sI441
I424
sI442
I425
sI443
I426
sI444
I427
sI445
I428
sI446
I429
sI447
I430
sI448
I431
sI449
I432
sI450
I433
sI451
I434
sI452
I435
sI453
I436
sI454
I437
sI455
I438
sI456
I439
sI457
I440
sI458
I441
sI459
I442
sI460
I443
sI461
I444
sI462
I445
sI463
I446
sI464
I447
sI465
I448
sI466
I449
sI467
I450
sI468
I451
sI469
I452
sI470
I453
sI471
I454
sI472
I455
sI473
I456
sI474
I457
sI475
I458
sI476
I459
sI477
I460
sI478
I461
sI479
I462
sI480
I463
sI481
I464
sI482
I465
sI483
I466
sI484
I467
sI485
I468
sI486
I469
sI487
I470
sI488
I471
sI489
I472
sI490
I473
sI491
I474
sI492
I475
sI493
I476
sI495
I477
sI496
I478
sI497
I479
sI498
I480
sI499
I481
sI500
I482
sI501
I483
sI502
I484
sI503
I485
sI504
I486
sI505
I487
sI506
I488
sI507
I489
sI508
I490
sI509
I491
sI510
I492
sI511
I493
sI512
I494
sI513
I495
sI514
I496
sI515
I497
sI519
I498
sI521
I499
sI522
I500
sI523
I501
sI524
I502
sI525
I503
sI526
I504
sI527
I505
sI528
I506
sI529
I507
sI530
I508
sI531
I509
sI532
I510
sI533
I511
sI534
I512
sI535
I513
sI536
I514
sI537
I515
sI538
I516
sI539
I517
sI540
I518
sI541
I519
sI542
I520
sI543
I521
sI544
I522
sI545
I523
sI546
I524
sI547
I525
sI548
I526
sI549
I527
sI550
I528
sI551
I529
sI552
I530
sI553
I531
sI554
I532
sI555
I533
sI556
I534
sI557
I535
sI558
I536
sI559
I537
sI560
I538
sI561
I539
sI562
I540
sI563
I541
sI564
I542
sI565
I543
sI566
I544
sI567
I545
sI568
I546
sI569
I547
sI570
I548
sI571
I549
sI572
I550
sI573
I551
sI574
I552
sI575
I553
sI576
I554
sI577
I555
sI578
I556
sI579
I557
sI580
I558
sI582
I559
sI583
I560
sI584
I561
sI585
I562
sI586
I563
sI588
I564
sI589
I565
sI590
I566
sI591
I567
sI592
I568
sI593
I569
sI594
I570
sI595
I571
sI596
I572
sI597
I573
sI598
I574
sI599
I575
sI600
I576
sI601
I577
sI602
I578
sI604
I579
sI605
I580
sI606
I581
sI607
I582
sI608
I583
sI609
I584
sI610
I585
sI611
I586
sI612
I587
sI613
I588
sI614
I589
sI615
I590
sI616
I591
sI617
I592
sI618
I593
sI619
I594
sI620
I595
sI621
I596
sI622
I597
sI623
I598
sI624
I599
sI625
I600
sI626
I601
sI627
I602
sI628
I603
sI629
I604
sI630
I605
sI631
I606
sI632
I607
sI633
I608
sI634
I609
sI635
I610
sI636
I611
sI637
I612
sI638
I613
sI639
I614
sI640
I615
sI641
I616
sI642
I617
sI643
I618
sI644
I619
sI645
I620
sI646
I621
sI647
I622
sI648
I623
sI649
I624
sI650
I625
sI651
I626
sI652
I627
sI653
I628
sI654
I629
sI655
I630
sI656
I631
sI657
I632
sI658
I633
sI659
I634
sI660
I635
sI661
I636
sI662
I637
sI663
I638
sI664
I639
sI666
I640
sI667
I641
sI668
I642
sI669
I643
sI670
I644
sI671
I645
sI672
I646
sI673
I647
sI674
I648
sI675
I649
sI676
I650
sI677
I651
sI678
I652
sI679
I653
sI680
I654
sI681
I655
sI682
I656
sI683
I657
sI684
I658
sI685
I659
sI686
I660
sI687
I661
sI688
I662
sI689
I663
sI690
I664
sI691
I665
sI692
I666
sI693
I667
sI694
I668
sI695
I669
sI696
I670
sI697
I671
sI698
I672
sI699
I673
sI700
I674
sI701
I675
sI702
I676
sI703
I677
sI704
I678
sI705
I679
sI706
I680
sI707
I681
sI708
I682
sI709
I683
sI710
I684
sI711
I685
sI712
I686
sI713
I687
sI714
I688
sI715
I689
sI716
I690
sI717
I691
sI718
I692
sI719
I693
sI720
I694
sI721
I695
sI722
I696
sI723
I697
sI724
I698
sI725
I699
sI726
I700
sI727
I701
sI728
I702
sI729
I703
sI730
I704
sI731
I705
sI732
I706
sI733
I707
sI734
I708
sI735
I709
sI736
I710
sI737
I711
sI738
I712
sI739
I713
sI740
I714
sI741
I715
sI743
I716
sI744
I717
sI745
I718
sI746
I719
sI747
I720
sI748
I721
sI749
I722
sI750
I723
sI751
I724
sI752
I725
sI753
I726
sI754
I727
sI756
I728
sI757
I729
sI758
I730
sI759
I731
sI760
I732
sI761
I733
sI762
I734
sI763
I735
sI764
I736
sI765
I737
sI766
I738
sI767
I739
sI768
I740
sI769
I741
sI770
I742
sI771
I743
sI772
I744
sI773
I745
sI774
I746
sI775
I747
sI777
I748
sI779
I749
sI780
I750
sI781
I751
sI782
I752
sI784
I753
sI785
I754
sI786
I755
sI787
I756
sI788
I757
sI789
I758
sI790
I759
sI791
I760
sI792
I761
sI793
I762
sI794
I763
sI795
I764
sI796
I765
sI797
I766
sI798
I767
sI799
I768
sI800
I769
sI801
I770
sI802
I771
sI803
I772
sI804
I773
sI805
I774
sI806
I775
sI807
I776
sI808
I777
sI809
I778
sI810
I779
sI811
I780
sI812
I781
sI813
I782
sI814
I783
sI815
I784
sI816
I785
sI817
I786
sI818
I787
sI819
I788
sI820
I789
sI821
I790
sI822
I791
sI823
I792
sI824
I793
sI825
I794
sI826
I795
sI828
I796
sI829
I797
sI830
I798
sI831
I799
sI832
I800
sI833
I801
sI834
I802
sI836
I803
sI837
I804
sI838
I805
sI839
I806
sI840
I807
sI841
I808
sI842
I809
sI843
I810
sI845
I811
sI846
I812
sI847
I813
sI848
I814
sI849
I815
sI850
I816
sI851
I817
sI852
I818
sI853
I819
sI854
I820
sI855
I821
sI856
I822
sI857
I823
sI858
I824
sI859
I825
sI860
I826
sI861
I827
sI862
I828
sI863
I829
sI864
I830
sI865
I831
sI866
I832
sI867
I833
sI868
I834
sI869
I835
sI870
I836
sI871
I837
sI872
I838
sI873
I839
sI874
I840
sI875
I841
sI876
I842
sI877
I843
sI878
I844
sI879
I845
sI880
I846
sI881
I847
sI882
I848
sI883
I849
sI884
I850
sI885
I851
sI886
I852
sI887
I853
sI888
I854
sI889
I855
sI890
I856
sI891
I857
sI892
I858
sI894
I859
sI895
I860
sI896
I861
sI897
I862
sI898
I863
sI899
I864
sI900
I865
sI901
I866
sI902
I867
sI903
I868
sI904
I869
sI905
I870
sI906
I871
sI907
I872
sI908
I873
sI909
I874
sI910
I875
sI911
I876
sI912
I877
sI913
I878
sI914
I879
sI915
I880
sI916
I881
sI917
I882
sI918
I883
sI919
I884
sI920
I885
sI921
I886
sI922
I887
sI923
I888
sI924
I889
sI925
I890
sI926
I891
sI927
I892
sI928
I893
sI929
I894
sI930
I895
sI931
I896
sI932
I897
sI933
I898
sI934
I899
sI935
I900
sI936
I901
sI937
I902
sI938
I903
sI939
I904
sI940
I905
sI941
I906
sI942
I907
sI943
I908
sI944
I909
sI945
I910
sI946
I911
sI947
I912
sI948
I913
sI949
I914
sI950
I915
sI951
I916
sI952
I917
sI953
I918
sI954
I919
sI955
I920
sI956
I921
sI957
I922
sI958
I923
sI960
I924
sI961
I925
sI962
I926
sI963
I927
sI964
I928
sI965
I929
sI966
I930
sI967
I931
sI968
I932
sI969
I933
sI970
I934
sI971
I935
sI972
I936
sI973
I937
sI974
I938
sI975
I939
sI976
I940
sI977
I941
sI978
I942
sI979
I943
sI980
I944
sI981
I945
sI982
I946
sI983
I947
sI984
I948
sI985
I949
sI986
I950
sI987
I951
sI988
I952
sI989
I953
sI990
I954
sI991
I955
sI992
I956
sI993
I957
sI994
I958
sI995
I959
sI996
I960
sI997
I961
sI998
I962
sI999
I963
sI1000
I964
sI1001
I965
sI1002
I966
sI1003
I967
sI1004
I968
sI1005
I969
sI1006
I970
sI1007
I971
sI1008
I972
sI1009
I973
sI1010
I974
sI1012
I975
sI1013
I976
sI1014
I977
sI1015
I978
sI1016
I979
sI1017
I980
sI1018
I981
sI1019
I982
sI1020
I983
sI1021
I984
sI1022
I985
sI1023
I986
sI1024
I987
sI1025
I988
sI1026
I989
sI1027
I990
sI1028
I991
sI1029
I992
sI1030
I993
sI1031
I994
sI1032
I995
sI1033
I996
sI1034
I997
sI1035
I998
sI1036
I999
sI1037
I1000
sI1038
I1001
sI1039
I1002
sI1040
I1003
sI1041
I1004
sI1042
I1005
sI1043
I1006
sI1044
I1007
sI1045
I1008
sI1046
I1009
sI1048
I1010
sI1049
I1011
sI1050
I1012
sI1052
I1013
sI1053
I1014
sI1054
I1015
sI1055
I1016
sI1056
I1017
sI1057
I1018
sI1058
I1019
sI1059
I1020
sI1060
I1021
sI1061
I1022
sI1062
I1023
sI1063
I1024
sI1064
I1025
sI1065
I1026
sI1066
I1027
sI1067
I1028
sI1068
I1029
sI1069
I1030
sI1070
I1031
sI1071
I1032
sI1072
I1033
sI1073
I1034
sI1074
I1035
sI1075
I1036
sI1076
I1037
sI1077
I1038
sI1078
I1039
sI1079
I1040
sI1080
I1041
sI1081
I1042
sI1082
I1043
sI1083
I1044
sI1084
I1045
sI1085
I1046
sI1086
I1047
sI1087
I1048
sI1088
I1049
sI1089
I1050
sI1090
I1051
sI1091
I1052
sI1092
I1053
sI1093
I1054
sI1094
I1055
sI1095
I1056
sI1096
I1057
sI1097
I1058
sI1098
I1059
sI1099
I1060
sI1100
I1061
sI1101
I1062
sI1102
I1063
sI1103
I1064
sI1104
I1065
sI1105
I1066
sI1106
I1067
sI1107
I1068
sI1108
I1069
sI1109
I1070
sI1110
I1071
sI1111
I1072
sI1112
I1073
sI1113
I1074
sI1114
I1075
sI1115
I1076
sI1116
I1077
sI1117
I1078
sI1118
I1079
sI1119
I1080
sI1120
I1081
sI1121
I1082
sI1122
I1083
sI1123
I1084
sI1124
I1085
sI1125
I1086
sI1126
I1087
sI1127
I1088
sI1128
I1089
sI1129
I1090
sI1130
I1091
sI1131
I1092
sI1132
I1093
sI1133
I1094
sI1134
I1095
sI1135
I1096
sI1136
I1097
sI1137
I1098
sI1138
I1099
sI1139
I1100
sI1140
I1101
sI1141
I1102
sI1142
I1103
sI1143
I1104
sI1144
I1105
sI1145
I1106
sI1146
I1107
sI1147
I1108
sI1148
I1109
sI1149
I1110
sI1150
I1111
sI1151
I1112
sI1152
I1113
sI1153
I1114
sI1155
I1115
sI1156
I1116
sI1157
I1117
sI1158
I1118
sI1159
I1119
sI1160
I1120
sI1161
I1121
sI1162
I1122
sI1163
I1123
sI1164
I1124
sI1165
I1125
sI1166
I1126
sI1167
I1127
sI1168
I1128
sI1169
I1129
sI1170
I1130
sI1171
I1131
sI1172
I1132
sI1173
I1133
sI1174
I1134
sI1175
I1135
sI1176
I1136
sI1177
I1137
sI1178
I1138
sI1179
I1139
sI1180
I1140
sI1181
I1141
sI1182
I1142
sI1183
I1143
sI1184
I1144
sI1185
I1145
sI1186
I1146
sI1187
I1147
sI1188
I1148
sI1189
I1149
sI1190
I1150
sI1191
I1151
sI1192
I1152
sI1193
I1153
sI1194
I1154
sI1195
I1155
sI1196
I1156
sI1197
I1157
sI1198
I1158
sI1199
I1159
sI1200
I1160
sI1201
I1161
sI1202
I1162
sI1203
I1163
sI1204
I1164
sI1205
I1165
sI1206
I1166
sI1207
I1167
sI1208
I1168
sI1209
I1169
sI1210
I1170
sI1211
I1171
sI1212
I1172
sI1213
I1173
sI1214
I1174
sI1215
I1175
sI1216
I1176
sI1217
I1177
sI1218
I1178
sI1219
I1179
sI1220
I1180
sI1221
I1181
sI1222
I1182
sI1223
I1183
sI1224
I1184
sI1225
I1185
sI1226
I1186
sI1228
I1187
sI1229
I1188
sI1230
I1189
sI1231
I1190
sI1232
I1191
sI1233
I1192
sI1234
I1193
sI1236
I1194
sI1237
I1195
sI1238
I1196
sI1239
I1197
sI1240
I1198
sI1241
I1199
sI1242
I1200
sI1243
I1201
sI1244
I1202
sI1245
I1203
sI1246
I1204
sI1247
I1205
sI1248
I1206
sI1249
I1207
sI1250
I1208
sI1251
I1209
sI1252
I1210
sI1253
I1211
sI1254
I1212
sI1255
I1213
sI1256
I1214
sI1257
I1215
sI1258
I1216
sI1259
I1217
sI1260
I1218
sI1261
I1219
sI1262
I1220
sI1263
I1221
sI1264
I1222
sI1265
I1223
sI1266
I1224
sI1267
I1225
sI1268
I1226
sI1269
I1227
sI1270
I1228
sI1271
I1229
sI1272
I1230
sI1273
I1231
sI1274
I1232
sI1275
I1233
sI1276
I1234
sI1277
I1235
sI1278
I1236
sI1279
I1237
sI1280
I1238
sI1281
I1239
sI1282
I1240
sI1283
I1241
sI1284
I1242
sI1285
I1243
sI1286
I1244
sI1287
I1245
sI1288
I1246
sI1289
I1247
sI1290
I1248
sI1291
I1249
sI1292
I1250
sI1293
I1251
sI1294
I1252
sI1295
I1253
sI1296
I1254
sI1297
I1255
sI1298
I1256
sI1299
I1257
sI1300
I1258
sI1301
I1259
sI1302
I1260
sI1303
I1261
sI1304
I1262
sI1305
I1263
sI1306
I1264
sI1307
I1265
sI1308
I1266
sI1309
I1267
sI1310
I1268
sI1311
I1269
sI1312
I1270
sI1313
I1271
sI1315
I1272
sI1316
I1273
sI1317
I1274
sI1318
I1275
sI1319
I1276
sI1320
I1277
sI1321
I1278
sI1322
I1279
sI1323
I1280
sI1324
I1281
sI1325
I1282
sI1326
I1283
sI1327
I1284
sI1328
I1285
sI1329
I1286
sI1330
I1287
sI1331
I1288
sI1332
I1289
sI1333
I1290
sI1334
I1291
sI1335
I1292
sI1336
I1293
sI1337
I1294
sI1338
I1295
sI1339
I1296
sI1340
I1297
sI1341
I1298
sI1342
I1299
sI1343
I1300
sI1344
I1301
sI1345
I1302
sI1346
I1303
sI1347
I1304
sI1348
I1305
sI1349
I1306
sI1350
I1307
sI1351
I1308
sI1352
I1309
sI1353
I1310
sI1354
I1311
sI1355
I1312
sI1356
I1313
sI1357
I1314
sI1358
I1315
sI1359
I1316
sI1360
I1317
sI1361
I1318
sI1362
I1319
sI1363
I1320
sI1364
I1321
sI1365
I1322
sI1366
I1323
sI1367
I1324
sI1368
I1325
sI1370
I1326
sI1371
I1327
sI1372
I1328
sI1373
I1329
sI1374
I1330
sI1375
I1331
sI1376
I1332
sI1377
I1333
sI1378
I1334
sI1380
I1335
sI1381
I1336
sI1382
I1337
sI1383
I1338
sI1384
I1339
sI1385
I1340
sI1386
I1341
sI1387
I1342
sI1388
I1343
sI1389
I1344
sI1390
I1345
sI1391
I1346
sI1392
I1347
sI1393
I1348
sI1394
I1349
sI1395
I1350
sI1396
I1351
sI1397
I1352
sI1398
I1353
sI1399
I1354
sI1400
I1355
sI1401
I1356
sI1402
I1357
sI1403
I1358
sI1404
I1359
sI1405
I1360
sI1406
I1361
sI1407
I1362
sI1408
I1363
sI1409
I1364
sI1410
I1365
sI1411
I1366
sI1412
I1367
sI1413
I1368
sI1414
I1369
sI1415
I1370
sI1416
I1371
sI1417
I1372
sI1418
I1373
sI1419
I1374
sI1420
I1375
sI1421
I1376
sI1422
I1377
sI1423
I1378
sI1424
I1379
sI1425
I1380
sI1426
I1381
sI1427
I1382
sI1428
I1383
sI1429
I1384
sI1430
I1385
sI1431
I1386
sI1432
I1387
sI1433
I1388
sI1434
I1389
sI1435
I1390
sI1436
I1391
sI1437
I1392
sI1438
I1393
sI1439
I1394
sI1441
I1395
sI1442
I1396
sI1443
I1397
sI1444
I1398
sI1445
I1399
sI1446
I1400
sI1447
I1401
sI1448
I1402
sI1449
I1403
sI1450
I1404
sI1451
I1405
sI1452
I1406
sI1453
I1407
sI1454
I1408
sI1455
I1409
sI1456
I1410
sI1457
I1411
sI1458
I1412
sI1459
I1413
sI1460
I1414
sI1461
I1415
sI1462
I1416
sI1463
I1417
sI1464
I1418
sI1465
I1419
sI1466
I1420
sI1467
I1421
sI1468
I1422
sI1469
I1423
sI1470
I1424
sI1471
I1425
sI1472
I1426
sI1473
I1427
sI1474
I1428
sI1475
I1429
sI1476
I1430
sI1477
I1431
sI1478
I1432
sI1479
I1433
sI1480
I1434
sI1481
I1435
sI1482
I1436
sI1483
I1437
sI1484
I1438
sI1486
I1439
sI1488
I1440
sI1489
I1441
sI1490
I1442
sI1491
I1443
sI1492
I1444
sI1493
I1445
sI1494
I1446
sI1495
I1447
sI1496
I1448
sI1497
I1449
sI1498
I1450
sI1499
I1451
sI1500
I1452
sI1501
I1453
sI1502
I1454
sI1503
I1455
sI1504
I1456
sI1505
I1457
sI1506
I1458
sI1507
I1459
sI1508
I1460
sI1509
I1461
sI1510
I1462
sI1511
I1463
sI1512
I1464
sI1513
I1465
sI1515
I1466
sI1516
I1467
sI1517
I1468
sI1518
I1469
sI1519
I1470
sI1520
I1471
sI1521
I1472
sI1522
I1473
sI1523
I1474
sI1524
I1475
sI1525
I1476
sI1526
I1477
sI1527
I1478
sI1528
I1479
sI1529
I1480
sI1530
I1481
sI1531
I1482
sI1532
I1483
sI1533
I1484
sI1534
I1485
sI1535
I1486
sI1536
I1487
sI1537
I1488
sI1538
I1489
sI1539
I1490
sI1540
I1491
sI1541
I1492
sI1542
I1493
sI1543
I1494
sI1544
I1495
sI1545
I1496
sI1546
I1497
sI1547
I1498
sI1548
I1499
sI1549
I1500
sI1550
I1501
sI1551
I1502
sI1552
I1503
sI1553
I1504
sI1554
I1505
sI1555
I1506
sI1556
I1507
sI1557
I1508
sI1558
I1509
sI1559
I1510
sI1560
I1511
sI1561
I1512
sI1562
I1513
sI1563
I1514
sI1564
I1515
sI1565
I1516
sI1566
I1517
sI1567
I1518
sI1568
I1519
sI1569
I1520
sI1570
I1521
sI1571
I1522
sI1572
I1523
sI1573
I1524
sI1574
I1525
sI1575
I1526
sI1576
I1527
sI1577
I1528
sI1578
I1529
sI1579
I1530
sI1580
I1531
sI1581
I1532
sI1583
I1533
sI1584
I1534
sI1585
I1535
sI1587
I1536
sI1588
I1537
sI1589
I1538
sI1590
I1539
sI1591
I1540
sI1592
I1541
sI1593
I1542
sI1594
I1543
sI1595
I1544
sI1596
I1545
sI1597
I1546
sI1598
I1547
sI1599
I1548
sI1600
I1549
sI1601
I1550
sI1602
I1551
sI1603
I1552
sI1604
I1553
s.